 loader

 Timestamp is 5f05af88 (Wed Jul  8 20:35:36 2020)

 Preferred load address is 0000000140000000

 Start         Length     Name                   Class
 0001:00000000 00000490H .text$di                CODE
 0001:00000490 000714e0H .text$mn                CODE
 0001:00071970 00000020H .text$mn$00             CODE
 0001:00071990 00001720H .text$x                 CODE
 0001:000730b0 0000048cH .text$yd                CODE
 0002:00000000 000003b8H .idata$5                DATA
 0002:000003b8 00000028H .00cfg                  DATA
 0002:000003e0 00000008H .CRT$XCA                DATA
 0002:000003e8 00000008H .CRT$XCAA               DATA
 0002:000003f0 00000028H .CRT$XCC                DATA
 0002:00000418 00000028H .CRT$XCL                DATA
 0002:00000440 00000080H .CRT$XCU                DATA
 0002:000004c0 00000008H .CRT$XCZ                DATA
 0002:000004c8 00000008H .CRT$XIA                DATA
 0002:000004d0 00000008H .CRT$XIAA               DATA
 0002:000004d8 00000008H .CRT$XIAC               DATA
 0002:000004e0 00000038H .CRT$XIC                DATA
 0002:00000518 00000008H .CRT$XIZ                DATA
 0002:00000520 00000008H .CRT$XLA                DATA
 0002:00000528 00000008H .CRT$XLZ                DATA
 0002:00000530 00000008H .CRT$XPA                DATA
 0002:00000538 00000008H .CRT$XPB                DATA
 0002:00000540 00000010H .CRT$XPX                DATA
 0002:00000550 00000008H .CRT$XPXA               DATA
 0002:00000558 00000008H .CRT$XPZ                DATA
 0002:00000560 00000008H .CRT$XTA                DATA
 0002:00000568 00000018H .CRT$XTZ                DATA
 0002:00000570 00000000H .gfids$y                DATA
 0002:00000580 00018910H .rdata                  DATA
 0002:00018e90 00000030H .rdata$T                DATA
 0002:00018ec0 00004a9cH .rdata$r                DATA
 0002:0001d95c 000003dcH .rdata$zzzdbg           DATA
 0002:0001dd38 00000008H .rtc$IAA                DATA
 0002:0001dd40 00000008H .rtc$IZZ                DATA
 0002:0001dd48 00000008H .rtc$TAA                DATA
 0002:0001dd50 00000010H .rtc$TZZ                DATA
 0002:0001dd60 00000010H .tls                    DATA
 0002:0001dd70 000013a8H .tls$                   DATA
 0002:0001f118 00000008H .tls$ZZZ                DATA
 0002:0001f120 000067c0H .xdata                  DATA
 0002:000258e0 0000094cH .xdata$x                DATA
 0002:0002622c 00000000H .edata                  DATA
 0002:0002622c 00000078H .idata$2                DATA
 0002:000262a4 00000014H .idata$3                DATA
 0002:000262b8 000003b8H .idata$4                DATA
 0002:00026670 0000084aH .idata$6                DATA
 0003:00000000 00054360H .data                   DATA
 0003:00054360 000027a0H .data$r                 DATA
 0003:00056b00 00006a5cH .bss                    DATA
 0004:00000000 00006dc8H .pdata                  DATA
 0005:00000000 00000094H _RDATA                  DATA
 0006:00000000 00000060H .rsrc$01                DATA
 0006:00000060 00000188H .rsrc$02                DATA

  Address         Publics by Value              Rva+Base               Lib:Object

 0000:00000000       ___safe_se_handler_count   0000000000000000     <absolute>
 0000:00000000       ___safe_se_handler_table   0000000000000000     <absolute>
 0000:00000000       __enclave_config           0000000000000000     <absolute>
 0000:00000000       __volatile_metadata        0000000000000000     <absolute>
 0000:00000000       __guard_eh_cont_count      0000000000000000     <absolute>
 0000:00000000       __guard_iat_count          0000000000000000     <absolute>
 0000:00000000       __hybrid_code_map          0000000000000000     <absolute>
 0000:00000000       __guard_eh_cont_table      0000000000000000     <absolute>
 0000:00000000       __hybrid_code_map_count    0000000000000000     <absolute>
 0000:00000000       __guard_fids_count         0000000000000000     <absolute>
 0000:00000000       __hybrid_auxiliary_iat     0000000000000000     <absolute>
 0000:00000000       __guard_iat_table          0000000000000000     <absolute>
 0000:00000000       __guard_longjmp_table      0000000000000000     <absolute>
 0000:00000000       __guard_longjmp_count      0000000000000000     <absolute>
 0000:00000000       __AbsoluteZero             0000000000000000     <absolute>
 0000:00000000       __guard_fids_table         0000000000000000     <absolute>
 0000:00000000       __dynamic_value_reloc_table 0000000000000000     <absolute>
 0000:00000100       __guard_flags              0000000000000100     <absolute>
 0000:00000000       __ImageBase                0000000140000000     <linker-defined>
 0001:00000490       ??2@YAPEAX_KPEAX@Z         0000000140001490 f i client.obj
 0001:000004a0       ?max@?$numeric_limits@_J@std@@SA_JXZ 00000001400014a0 f i client.obj
 0001:000004a0       ?max_size@?$_Default_allocator_traits@V?$allocator@_W@std@@@std@@SA_KAEBV?$allocator@_W@2@@Z 00000001400014a0 f i utilities.obj
 0001:000004b0       ??0exception@std@@QEAA@QEBDH@Z 00000001400014b0 f i client.obj
 0001:000004d0       ??0exception@std@@QEAA@AEBV01@@Z 00000001400014d0 f i client.obj
 0001:00000510       ??1__non_rtti_object@std@@UEAA@XZ 0000000140001510 f i libvcruntime:rtti.obj
 0001:00000510       ??1length_error@std@@UEAA@XZ 0000000140001510 f i libcpmt:xthrow.obj
 0001:00000510       ??1exception@std@@UEAA@XZ  0000000140001510 f i client.obj
 0001:00000510       ??1out_of_range@std@@UEAA@XZ 0000000140001510 f i libcpmt:xthrow.obj
 0001:00000510       ??1bad_exception@std@@UEAA@XZ 0000000140001510 f i libvcruntime:frame.obj
 0001:00000530       ?what@exception@std@@UEBAPEBDXZ 0000000140001530 f i client.obj
 0001:00000550       ??_Gexception@std@@UEAAPEAXI@Z 0000000140001550 f i client.obj
 0001:00000550       ??_Eexception@std@@UEAAPEAXI@Z 0000000140001550 f i * CIL library *:* CIL module *
 0001:00000590       ??0bad_alloc@std@@AEAA@QEBD@Z 0000000140001590 f i client.obj
 0001:000005c0       ??_Ebad_alloc@std@@UEAAPEAXI@Z 00000001400015c0 f i * CIL library *:* CIL module *
 0001:000005c0       ??_Ebad_cast@std@@UEAAPEAXI@Z 00000001400015c0 f i * CIL library *:* CIL module *
 0001:000005c0       ??_Gbad_cast@std@@UEAAPEAXI@Z 00000001400015c0 f i utilities.obj
 0001:000005c0       ??_Gbad_alloc@std@@UEAAPEAXI@Z 00000001400015c0 f i client.obj
 0001:00000600       ??1bad_cast@std@@UEAA@XZ   0000000140001600 f i utilities.obj
 0001:00000600       ??1bad_alloc@std@@UEAA@XZ  0000000140001600 f i client.obj
 0001:00000610       ??0bad_array_new_length@std@@QEAA@XZ 0000000140001610 f i client.obj
 0001:00000640       ??_Ebad_array_new_length@std@@UEAAPEAXI@Z 0000000140001640 f i * CIL library *:* CIL module *
 0001:00000640       ??_Gbad_array_new_length@std@@UEAAPEAXI@Z 0000000140001640 f i client.obj
 0001:00000680       ??1bad_array_new_length@std@@UEAA@XZ 0000000140001680 f i client.obj
 0001:00000690       ?__scrt_throw_std_bad_array_new_length@@YAXXZ 0000000140001690 f i LIBCMT:throw_bad_alloc.obj
 0001:00000690       ?_Throw_bad_array_new_length@std@@YAXXZ 0000000140001690 f i client.obj
 0001:000006b0       ??0bad_array_new_length@std@@QEAA@AEBV01@@Z 00000001400016b0 f i client.obj
 0001:000006e0       ??0bad_alloc@std@@QEAA@AEBV01@@Z 00000001400016e0 f i client.obj
 0001:00000710       ?_Allocate@_Default_allocate_traits@std@@SAPEAX_K@Z 0000000140001710 f i client.obj
 0001:00000710       ??_U@YAPEAX_K@Z            0000000140001710 f i LIBCMT:new_array.obj
 0001:00000720       ?_Adjust_manually_vector_aligned@std@@YAXAEAPEAXAEA_K@Z 0000000140001720 f i client.obj
 0001:00000750       ??$_Unfancy@D@std@@YAPEADPEAD@Z 0000000140001750 f i client.obj
 0001:00000750       ??$move@AEAD@std@@YA$$QEADAEAD@Z 0000000140001750 f i utilities.obj
 0001:00000750       ??$forward@V?$basic_string@DU?$char_traits@D@std@@V?$allocator@D@2@@std@@@std@@YA$$QEAV?$basic_string@DU?$char_traits@D@std@@V?$allocator@D@2@@0@AEAV10@@Z 0000000140001750 f i client.obj
 0001:00000750       ??$forward@PEAD@std@@YA$$QEAPEADAEAPEAD@Z 0000000140001750 f i client.obj
 0001:00000750       ?_Get_first@?$_Compressed_pair@V?$allocator@_W@std@@V?$_String_val@U?$_Simple_types@_W@std@@@2@$00@std@@QEAAAEAV?$allocator@_W@2@XZ 0000000140001750 f i utilities.obj
 0001:00000750       ??$_Unfancy@_W@std@@YAPEA_WPEA_W@Z 0000000140001750 f i utilities.obj
 0001:00000750       ?_Get_first@?$_Compressed_pair@V?$allocator@D@std@@V?$_String_val@U?$_Simple_types@D@std@@@2@$00@std@@QEAAAEAV?$allocator@D@2@XZ 0000000140001750 f i client.obj
 0001:00000750       ??$forward@AEBQEA_W@std@@YAAEBQEA_WAEBQEA_W@Z 0000000140001750 f i utilities.obj
 0001:00000750       ?_Get_first@?$_Compressed_pair@V?$allocator@V?$basic_string@DU?$char_traits@D@std@@V?$allocator@D@2@@std@@@std@@V?$_Vector_val@U?$_Simple_types@V?$basic_string@DU?$char_traits@D@std@@V?$allocator@D@2@@std@@@std@@@2@$00@std@@QEAAAEAV?$allocator@V?$basic_string@DU?$char_traits@D@std@@V?$allocator@D@2@@std@@@2@XZ 0000000140001750 f i client.obj
 0001:00000750       ?_Get_first@?$_Compressed_pair@V?$allocator@D@std@@V?$_String_val@U?$_Simple_types@D@std@@@2@$00@std@@QEBAAEBV?$allocator@D@2@XZ 0000000140001750 f i client.obj
 0001:00000750       ??$_Refancy@PEBD$0A@@std@@YAPEBDPEBD@Z 0000000140001750 f i utilities.obj
 0001:00000750       ??$_Convert_size@_K@std@@YA_K_K@Z 0000000140001750 f i client.obj
 0001:00000750       ??$addressof@V?$_String_val@U?$_Simple_types@D@std@@@std@@@std@@YAPEAV?$_String_val@U?$_Simple_types@D@std@@@0@AEAV10@@Z 0000000140001750 f i client.obj
 0001:00000750       ??$addressof@$$CBV?$_String_val@U?$_Simple_types@D@std@@@std@@@std@@YAPEBV?$_String_val@U?$_Simple_types@D@std@@@0@AEBV10@@Z 0000000140001750 f i client.obj
 0001:00000750       ??$move@AEAV?$basic_string@DU?$char_traits@D@std@@V?$allocator@D@2@@std@@@std@@YA$$QEAV?$basic_string@DU?$char_traits@D@std@@V?$allocator@D@2@@0@AEAV10@@Z 0000000140001750 f i client.obj
 0001:00000750       ??$addressof@PEAD@std@@YAPEAPEADAEAPEAD@Z 0000000140001750 f i client.obj
 0001:00000750       ??$_Unfancy@V?$basic_string@DU?$char_traits@D@std@@V?$allocator@D@2@@std@@@std@@YAPEAV?$basic_string@DU?$char_traits@D@std@@V?$allocator@D@2@@0@PEAV10@@Z 0000000140001750 f i client.obj
 0001:00000750       ?_Get_first@?$_Compressed_pair@V?$allocator@_W@std@@V?$_String_val@U?$_Simple_types@_W@std@@@2@$00@std@@QEBAAEBV?$allocator@_W@2@XZ 0000000140001750 f i utilities.obj
 0001:00000750       ??$addressof@PEA_W@std@@YAPEAPEA_WAEAPEA_W@Z 0000000140001750 f i utilities.obj
 0001:00000750       ?select_on_container_copy_construction@?$_Default_allocator_traits@V?$allocator@D@std@@@std@@SA?AV?$allocator@D@2@AEBV32@@Z 0000000140001750 f i client.obj
 0001:00000750       ??$forward@AEBV?$basic_string@DU?$char_traits@D@std@@V?$allocator@D@2@@std@@@std@@YAAEBV?$basic_string@DU?$char_traits@D@std@@V?$allocator@D@2@@0@AEBV10@@Z 0000000140001750 f i utilities.obj
 0001:00000750       ??$_Refancy@PEAD$0A@@std@@YAPEADPEAD@Z 0000000140001750 f i encrypt-decrypt.obj
 0001:00000750       ?_Adjust@?$uniform_int@_K@std@@CA_K_KU?$integral_constant@_N$0A@@2@@Z 0000000140001750 f i utilities.obj
 0001:00000750       ??$addressof@V?$basic_string@DU?$char_traits@D@std@@V?$allocator@D@2@@std@@@std@@YAPEAV?$basic_string@DU?$char_traits@D@std@@V?$allocator@D@2@@0@AEAV10@@Z 0000000140001750 f i client.obj
 0001:00000750       ??$addressof@$$CBV?$basic_string@DU?$char_traits@D@std@@V?$allocator@D@2@@std@@@std@@YAPEBV?$basic_string@DU?$char_traits@D@std@@V?$allocator@D@2@@0@AEBV10@@Z 0000000140001750 f i client.obj
 0001:00000750       ??$forward@AEBQEAD@std@@YAAEBQEADAEBQEAD@Z 0000000140001750 f i client.obj
 0001:00000750       ??$_Get_size_of_n@$00@std@@YA_K_K@Z 0000000140001750 f i client.obj
 0001:00000750       ??$move@AEAV?$allocator@D@std@@@std@@YA$$QEAV?$allocator@D@0@AEAV10@@Z 0000000140001750 f i client.obj
 0001:00000750       ??$_Unfancy@$$CBD@std@@YAPEBDPEBD@Z 0000000140001750 f i encrypt-decrypt.obj
 0001:00000760       ??$_Get_unwrapped@AEBQEAD@std@@YAPEADAEBQEAD@Z 0000000140001760 f i utilities.obj
 0001:00000760       ??$_Get_unwrapped@AEAPEAD@std@@YAPEADAEAPEAD@Z 0000000140001760 f i client.obj
 0001:00000760       ??$_Get_unwrapped@AEBQEAV?$basic_string@DU?$char_traits@D@std@@V?$allocator@D@2@@std@@@std@@YAPEAV?$basic_string@DU?$char_traits@D@std@@V?$allocator@D@2@@0@AEBQEAV10@@Z 0000000140001760 f i client.obj
 0001:00000760       ?count@?$duration@_JU?$ratio@$00$0JIJGIA@@std@@@chrono@std@@QEBA_JXZ 0000000140001760 f i main.obj
 0001:00000760       ??$_Get_unwrapped@AEBQEBD@std@@YAPEBDAEBQEBD@Z 0000000140001760 f i encrypt-decrypt.obj
 0001:00000760       ??C?$member_ptr@VAlgorithmParametersBase@CryptoPP@@@CryptoPP@@QEAAPEAVAlgorithmParametersBase@1@XZ 0000000140001760 f i encrypt-decrypt.obj
 0001:00000760       ?count@?$duration@_JU?$ratio@$00$0DOI@@std@@@chrono@std@@QEBA_JXZ 0000000140001760 f i main.obj
 0001:00000760       ??C?$member_ptr@VBufferedTransformation@CryptoPP@@@CryptoPP@@QEAAPEAVBufferedTransformation@1@XZ 0000000140001760 f i encrypt-decrypt.obj
 0001:00000760       ?load_order_next@LDR_DATA_TABLE_ENTRY_T@win@detail@li@@QEBAPEBU1234@XZ 0000000140001760 f i client.obj
 0001:00000770       ?single@hash_t@detail@li@@SAKKD@Z 0000000140001770 f i client.obj
 0001:00000780       ?peb@detail@li@@YAPEBUPEB_T@win@12@XZ 0000000140001780 f i client.obj
 0001:00000790       ?ldr@detail@li@@YAPEBUPEB_LDR_DATA_T@win@12@XZ 0000000140001790 f i client.obj
 0001:000007b0       ?nt_headers@detail@li@@YAPEBUIMAGE_NT_HEADERS@win@12@PEBD@Z 00000001400017b0 f i client.obj
 0001:000007c0       ?ldr_data_entry@detail@li@@YAPEBULDR_DATA_TABLE_ENTRY_T@win@12@XZ 00000001400017c0 f i client.obj
 0001:000007e0       ??0exports_directory@detail@li@@QEAA@PEBD@Z 00000001400017e0 f i client.obj
 0001:00000820       ??Bexports_directory@detail@li@@QEBA_NXZ 0000000140001820 f i client.obj
 0001:00000830       ?size@exports_directory@detail@li@@QEBAKXZ 0000000140001830 f i client.obj
 0001:00000840       ?name@exports_directory@detail@li@@QEBAPEBDK@Z 0000000140001840 f i client.obj
 0001:00000860       ?address@exports_directory@detail@li@@QEBAPEBDK@Z 0000000140001860 f i client.obj
 0001:00000890       ??0unsafe_module_enumerator@detail@li@@QEAA@XZ 0000000140001890 f i client.obj
 0001:000008b0       ?next@unsafe_module_enumerator@detail@li@@QEAA_NXZ 00000001400018b0 f i client.obj
 0001:000008d0       ??$emplace_back@PEADPEAD@?$vector@V?$basic_string@DU?$char_traits@D@std@@V?$allocator@D@2@@std@@V?$allocator@V?$basic_string@DU?$char_traits@D@std@@V?$allocator@D@2@@std@@@2@@std@@QEAAAEAV?$basic_string@DU?$char_traits@D@std@@V?$allocator@D@2@@1@$$QEAPEAD0@Z 00000001400018d0 f i client.obj
 0001:00000920       ??$_Emplace_back_with_unused_capacity@PEADPEAD@?$vector@V?$basic_string@DU?$char_traits@D@std@@V?$allocator@D@2@@std@@V?$allocator@V?$basic_string@DU?$char_traits@D@std@@V?$allocator@D@2@@std@@@2@@std@@AEAAAEAV?$basic_string@DU?$char_traits@D@std@@V?$allocator@D@2@@1@$$QEAPEAD0@Z 0000000140001920 f i client.obj
 0001:00000ab0       ?crypt_get@?$xor_string@U?$tstring_@$MD0CP@$MD0GD@$MD0GM@$MD0GJ@$MD0GF@$MD0GO@$MD0HE@$MD0CP@$MD0GB@$MD0GD@$MD0HE@$MD0GJ@$MD0HG@$MD0GB@$MD0HE@$MD0GJ@$MD0GP@$MD0GO@$MD0CO@$MD0HA@$MD0GI@$MD0HA@$MD0DP@$MD0GB@$MD0DN@$MD0CF@$MD0HD@$MD0CG@$MD0GC@$MD0DN@$MD0CF@$MD0HD@$MD0A@@detail@jm@@U?$_ki@$0A@$0FGELNIIFGEDAJMMF@@23@U?$_ki@$00$0DIILFICEGDJAMKJO@@23@U?$_ki@$01$0HDEJOBALFGABNLNP@@23@U?$_ki@$02$0DIHBIPDCOBOGOMAA@@23@U?$_ki@$03$0?FMGNNDKGMCFHANHH@@23@U?$_ki@$04$0FGMEFHEIHNMGKDLC@@23@@jm@@QEAAQEADXZ 0000000140001ab0 f i client.obj
 0001:00000ad0       ??0?$xor_string@U?$tstring_@$MD0CP@$MD0GD@$MD0GM@$MD0GJ@$MD0GF@$MD0GO@$MD0HE@$MD0CP@$MD0GB@$MD0GD@$MD0HE@$MD0GJ@$MD0HG@$MD0GB@$MD0HE@$MD0GJ@$MD0GP@$MD0GO@$MD0CO@$MD0HA@$MD0GI@$MD0HA@$MD0DP@$MD0GB@$MD0DN@$MD0CF@$MD0HD@$MD0CG@$MD0GC@$MD0DN@$MD0CF@$MD0HD@$MD0A@@detail@jm@@U?$_ki@$0A@$0FGELNIIFGEDAJMMF@@23@U?$_ki@$00$0DIILFICEGDJAMKJO@@23@U?$_ki@$01$0HDEJOBALFGABNLNP@@23@U?$_ki@$02$0DIHBIPDCOBOGOMAA@@23@U?$_ki@$03$0?FMGNNDKGMCFHANHH@@23@U?$_ki@$04$0FGMEFHEIHNMGKDLC@@23@@jm@@QEAA@XZ 0000000140001ad0 f i client.obj
 0001:00000af0       ?crypt_get@?$xor_string@U?$tstring_@$MD0GJ@$MD0GO@$MD0GD@$MD0GP@$MD0HC@$MD0HC@$MD0GF@$MD0GD@$MD0HE@$MD0FP@$MD0HG@$MD0GF@$MD0HC@$MD0HD@$MD0GJ@$MD0GP@$MD0GO@$MD0A@@detail@jm@@U?$_ki@$0A@$0FGELNIIFGEDAJMMF@@23@U?$_ki@$00$0DIILFICEGDJAMKJO@@23@U?$_ki@$01$0HDEJOBALFGABNLNP@@23@U?$_ki@$02$0DIHBIPDCOBOGOMAA@@23@@jm@@QEAAQEADXZ 0000000140001af0 f i client.obj
 0001:00000b10       ??0?$xor_string@U?$tstring_@$MD0GJ@$MD0GO@$MD0GD@$MD0GP@$MD0HC@$MD0HC@$MD0GF@$MD0GD@$MD0HE@$MD0FP@$MD0HG@$MD0GF@$MD0HC@$MD0HD@$MD0GJ@$MD0GP@$MD0GO@$MD0A@@detail@jm@@U?$_ki@$0A@$0FGELNIIFGEDAJMMF@@23@U?$_ki@$00$0DIILFICEGDJAMKJO@@23@U?$_ki@$01$0HDEJOBALFGABNLNP@@23@U?$_ki@$02$0DIHBIPDCOBOGOMAA@@23@@jm@@QEAA@XZ 0000000140001b10 f i client.obj
 0001:00000b30       ?crypt_get@?$xor_string@U?$tstring_@$MD0CP@$MD0GD@$MD0GM@$MD0GJ@$MD0GF@$MD0GO@$MD0HE@$MD0CP@$MD0HG@$MD0GF@$MD0HC@$MD0HD@$MD0GJ@$MD0GP@$MD0GO@$MD0CO@$MD0HA@$MD0GI@$MD0HA@$MD0DP@$MD0GB@$MD0DN@$MD0CF@$MD0HD@$MD0A@@detail@jm@@U?$_ki@$0A@$0FGELNIIFGEDAJMMF@@23@U?$_ki@$00$0DIILFICEGDJAMKJO@@23@U?$_ki@$01$0HDEJOBALFGABNLNP@@23@U?$_ki@$02$0DIHBIPDCOBOGOMAA@@23@@jm@@QEAAQEADXZ 0000000140001b30 f i client.obj
 0001:00000b50       ??0?$xor_string@U?$tstring_@$MD0CP@$MD0GD@$MD0GM@$MD0GJ@$MD0GF@$MD0GO@$MD0HE@$MD0CP@$MD0HG@$MD0GF@$MD0HC@$MD0HD@$MD0GJ@$MD0GP@$MD0GO@$MD0CO@$MD0HA@$MD0GI@$MD0HA@$MD0DP@$MD0GB@$MD0DN@$MD0CF@$MD0HD@$MD0A@@detail@jm@@U?$_ki@$0A@$0FGELNIIFGEDAJMMF@@23@U?$_ki@$00$0DIILFICEGDJAMKJO@@23@U?$_ki@$01$0HDEJOBALFGABNLNP@@23@U?$_ki@$02$0DIHBIPDCOBOGOMAA@@23@@jm@@QEAA@XZ 0000000140001b50 f i client.obj
 0001:00000b70       ?crypt_get@?$xor_string@U?$tstring_@$MD0HD@$MD0HF@$MD0GD@$MD0GD@$MD0GF@$MD0HD@$MD0HD@$MD0A@@detail@jm@@U?$_ki@$0A@$0FGELNIIFGEDAJMMF@@23@U?$_ki@$00$0DIILFICEGDJAMKJO@@23@@jm@@QEAAQEADXZ 0000000140001b70 f i client.obj
 0001:00000b90       ??0?$xor_string@U?$tstring_@$MD0HD@$MD0HF@$MD0GD@$MD0GD@$MD0GF@$MD0HD@$MD0HD@$MD0A@@detail@jm@@U?$_ki@$0A@$0FGELNIIFGEDAJMMF@@23@U?$_ki@$00$0DIILFICEGDJAMKJO@@23@@jm@@QEAA@XZ 0000000140001b90 f i client.obj
 0001:00000bb0       ?crypt_get@?$xor_string@U?$tstring_@$MD0GE@$MD0GB@$MD0HE@$MD0GB@$MD0FP@$MD0GF@$MD0HC@$MD0HC@$MD0GP@$MD0HC@$MD0A@@detail@jm@@U?$_ki@$0A@$0FGELNIIFGEDAJMMF@@23@U?$_ki@$00$0DIILFICEGDJAMKJO@@23@@jm@@QEAAQEADXZ 0000000140001bb0 f i client.obj
 0001:00000bd0       ??0?$xor_string@U?$tstring_@$MD0GE@$MD0GB@$MD0HE@$MD0GB@$MD0FP@$MD0GF@$MD0HC@$MD0HC@$MD0GP@$MD0HC@$MD0A@@detail@jm@@U?$_ki@$0A@$0FGELNIIFGEDAJMMF@@23@U?$_ki@$00$0DIILFICEGDJAMKJO@@23@@jm@@QEAA@XZ 0000000140001bd0 f i client.obj
 0001:00000bf0       ?crypt_get@?$xor_string@U?$tstring_@$MD0GJ@$MD0GO@$MD0HE@$MD0GF@$MD0HC@$MD0GO@$MD0GB@$MD0GM@$MD0FP@$MD0GF@$MD0HC@$MD0HC@$MD0GP@$MD0HC@$MD0A@@detail@jm@@U?$_ki@$0A@$0FGELNIIFGEDAJMMF@@23@U?$_ki@$00$0DIILFICEGDJAMKJO@@23@@jm@@QEAAQEADXZ 0000000140001bf0 f i client.obj
 0001:00000c10       ??0?$xor_string@U?$tstring_@$MD0GJ@$MD0GO@$MD0HE@$MD0GF@$MD0HC@$MD0GO@$MD0GB@$MD0GM@$MD0FP@$MD0GF@$MD0HC@$MD0HC@$MD0GP@$MD0HC@$MD0A@@detail@jm@@U?$_ki@$0A@$0FGELNIIFGEDAJMMF@@23@U?$_ki@$00$0DIILFICEGDJAMKJO@@23@@jm@@QEAA@XZ 0000000140001c10 f i client.obj
 0001:00000c30       ?crypt_get@?$xor_string@U?$tstring_@$MD0DL@$MD0A@@detail@jm@@U?$_ki@$0A@$0FGELNIIFGEDAJMMF@@23@U?$_ki@$00$0DIILFICEGDJAMKJO@@23@@jm@@QEAAQEADXZ 0000000140001c30 f i client.obj
 0001:00000c50       ??0?$xor_string@U?$tstring_@$MD0DL@$MD0A@@detail@jm@@U?$_ki@$0A@$0FGELNIIFGEDAJMMF@@23@U?$_ki@$00$0DIILFICEGDJAMKJO@@23@@jm@@QEAA@XZ 0000000140001c50 f i client.obj
 0001:00000c70       ?crypt_get@?$xor_string@U?$tstring_@$MD0CP@$MD0GD@$MD0GM@$MD0GJ@$MD0GF@$MD0GO@$MD0HE@$MD0CP@$MD0GB@$MD0HF@$MD0HE@$MD0GI@$MD0GF@$MD0GO@$MD0HE@$MD0GJ@$MD0GD@$MD0GB@$MD0HE@$MD0GJ@$MD0GP@$MD0GO@$MD0CO@$MD0HA@$MD0GI@$MD0HA@$MD0DP@$MD0GB@$MD0DN@$MD0CF@$MD0HD@$MD0CG@$MD0GC@$MD0DN@$MD0CF@$MD0HD@$MD0A@@detail@jm@@U?$_ki@$0A@$0FGELNIIFGEDAJMMF@@23@U?$_ki@$00$0DIILFICEGDJAMKJO@@23@U?$_ki@$01$0HDEJOBALFGABNLNP@@23@U?$_ki@$02$0DIHBIPDCOBOGOMAA@@23@U?$_ki@$03$0?FMGNNDKGMCFHANHH@@23@U?$_ki@$04$0FGMEFHEIHNMGKDLC@@23@@jm@@QEAAQEADXZ 0000000140001c70 f i client.obj
 0001:00000c90       ??0?$xor_string@U?$tstring_@$MD0CP@$MD0GD@$MD0GM@$MD0GJ@$MD0GF@$MD0GO@$MD0HE@$MD0CP@$MD0GB@$MD0HF@$MD0HE@$MD0GI@$MD0GF@$MD0GO@$MD0HE@$MD0GJ@$MD0GD@$MD0GB@$MD0HE@$MD0GJ@$MD0GP@$MD0GO@$MD0CO@$MD0HA@$MD0GI@$MD0HA@$MD0DP@$MD0GB@$MD0DN@$MD0CF@$MD0HD@$MD0CG@$MD0GC@$MD0DN@$MD0CF@$MD0HD@$MD0A@@detail@jm@@U?$_ki@$0A@$0FGELNIIFGEDAJMMF@@23@U?$_ki@$00$0DIILFICEGDJAMKJO@@23@U?$_ki@$01$0HDEJOBALFGABNLNP@@23@U?$_ki@$02$0DIHBIPDCOBOGOMAA@@23@U?$_ki@$03$0?FMGNNDKGMCFHANHH@@23@U?$_ki@$04$0FGMEFHEIHNMGKDLC@@23@@jm@@QEAA@XZ 0000000140001c90 f i client.obj
 0001:00000cb0       ?crypt_get@?$xor_string@U?$tstring_@$MD0GL@$MD0HD@$MD0HA@$MD0GH@$MD0HJ@$MD0HH@$MD0GK@$MD0GB@$MD0GM@$MD0GE@$MD0HK@$MD0GH@$MD0HH@$MD0HA@$MD0GI@$MD0GO@$MD0A@@detail@jm@@U?$_ki@$0A@$0FGELNIIFGEDAJMMF@@23@U?$_ki@$00$0DIILFICEGDJAMKJO@@23@U?$_ki@$01$0HDEJOBALFGABNLNP@@23@U?$_ki@$02$0DIHBIPDCOBOGOMAA@@23@@jm@@QEAAQEADXZ 0000000140001cb0 f i client.obj
 0001:00000cd0       ??0?$xor_string@U?$tstring_@$MD0GL@$MD0HD@$MD0HA@$MD0GH@$MD0HJ@$MD0HH@$MD0GK@$MD0GB@$MD0GM@$MD0GE@$MD0HK@$MD0GH@$MD0HH@$MD0HA@$MD0GI@$MD0GO@$MD0A@@detail@jm@@U?$_ki@$0A@$0FGELNIIFGEDAJMMF@@23@U?$_ki@$00$0DIILFICEGDJAMKJO@@23@U?$_ki@$01$0HDEJOBALFGABNLNP@@23@U?$_ki@$02$0DIHBIPDCOBOGOMAA@@23@@jm@@QEAA@XZ 0000000140001cd0 f i client.obj
 0001:00000cf0       ?crypt_get@?$xor_string@U?$tstring_@$MD0HA@$MD0GP@$MD0GH@$MD0HG@$MD0GC@$MD0HF@$MD0GG@$MD0HA@$MD0GD@$MD0HF@$MD0HD@$MD0GN@$MD0GG@$MD0HE@$MD0HC@$MD0HF@$MD0HC@$MD0HC@$MD0HD@$MD0HK@$MD0HJ@$MD0GD@$MD0GG@$MD0GF@$MD0GG@$MD0GI@$MD0GJ@$MD0GE@$MD0HG@$MD0GE@$MD0GG@$MD0HD@$MD0A@@detail@jm@@U?$_ki@$0A@$0FGELNIIFGEDAJMMF@@23@U?$_ki@$00$0DIILFICEGDJAMKJO@@23@U?$_ki@$01$0HDEJOBALFGABNLNP@@23@U?$_ki@$02$0DIHBIPDCOBOGOMAA@@23@U?$_ki@$03$0?FMGNNDKGMCFHANHH@@23@U?$_ki@$04$0FGMEFHEIHNMGKDLC@@23@@jm@@QEAAQEADXZ 0000000140001cf0 f i client.obj
 0001:00000d10       ??0?$xor_string@U?$tstring_@$MD0HA@$MD0GP@$MD0GH@$MD0HG@$MD0GC@$MD0HF@$MD0GG@$MD0HA@$MD0GD@$MD0HF@$MD0HD@$MD0GN@$MD0GG@$MD0HE@$MD0HC@$MD0HF@$MD0HC@$MD0HC@$MD0HD@$MD0HK@$MD0HJ@$MD0GD@$MD0GG@$MD0GF@$MD0GG@$MD0GI@$MD0GJ@$MD0GE@$MD0HG@$MD0GE@$MD0GG@$MD0HD@$MD0A@@detail@jm@@U?$_ki@$0A@$0FGELNIIFGEDAJMMF@@23@U?$_ki@$00$0DIILFICEGDJAMKJO@@23@U?$_ki@$01$0HDEJOBALFGABNLNP@@23@U?$_ki@$02$0DIHBIPDCOBOGOMAA@@23@U?$_ki@$03$0?FMGNNDKGMCFHANHH@@23@U?$_ki@$04$0FGMEFHEIHNMGKDLC@@23@@jm@@QEAA@XZ 0000000140001d10 f i client.obj
 0001:00000d30       ?_Getal@?$basic_string@DU?$char_traits@D@std@@V?$allocator@D@2@@std@@AEAAAEAV?$allocator@D@2@XZ 0000000140001d30 f i client.obj
 0001:00000d30       ?_Getal@?$vector@V?$basic_string@DU?$char_traits@D@std@@V?$allocator@D@2@@std@@V?$allocator@V?$basic_string@DU?$char_traits@D@std@@V?$allocator@D@2@@std@@@2@@std@@AEAAAEAV?$allocator@V?$basic_string@DU?$char_traits@D@std@@V?$allocator@D@2@@std@@@2@XZ 0000000140001d30 f i client.obj
 0001:00000d30       ?_Getal@?$basic_string@_WU?$char_traits@_W@std@@V?$allocator@_W@2@@std@@AEAAAEAV?$allocator@_W@2@XZ 0000000140001d30 f i utilities.obj
 0001:00000d30       ?_Getal@?$basic_string@DU?$char_traits@D@std@@V?$allocator@D@2@@std@@AEBAAEBV?$allocator@D@2@XZ 0000000140001d30 f i client.obj
 0001:00000d30       ?_Adjust@?$uniform_int@_K@std@@CA_K_K@Z 0000000140001d30 f i utilities.obj
 0001:00000d30       ?_Getal@?$basic_string@_WU?$char_traits@_W@std@@V?$allocator@_W@2@@std@@AEBAAEBV?$allocator@_W@2@XZ 0000000140001d30 f i utilities.obj
 0001:00000d40       ??A?$vector@V?$basic_string@DU?$char_traits@D@std@@V?$allocator@D@2@@std@@V?$allocator@V?$basic_string@DU?$char_traits@D@std@@V?$allocator@D@2@@std@@@2@@std@@QEAAAEAV?$basic_string@DU?$char_traits@D@std@@V?$allocator@D@2@@1@_K@Z 0000000140001d40 f i client.obj
 0001:00000d40       ??A?$vector@V?$basic_string@DU?$char_traits@D@std@@V?$allocator@D@2@@std@@V?$allocator@V?$basic_string@DU?$char_traits@D@std@@V?$allocator@D@2@@std@@@2@@std@@QEBAAEBV?$basic_string@DU?$char_traits@D@std@@V?$allocator@D@2@@1@_K@Z 0000000140001d40 f i main.obj
 0001:00000d50       ??1?$vector@V?$basic_string@DU?$char_traits@D@std@@V?$allocator@D@2@@std@@V?$allocator@V?$basic_string@DU?$char_traits@D@std@@V?$allocator@D@2@@std@@@2@@std@@QEAA@XZ 0000000140001d50 f i client.obj
 0001:00000d60       ??0?$vector@V?$basic_string@DU?$char_traits@D@std@@V?$allocator@D@2@@std@@V?$allocator@V?$basic_string@DU?$char_traits@D@std@@V?$allocator@D@2@@std@@@2@@std@@QEAA@XZ 0000000140001d60 f i client.obj
 0001:00000d80       ?length@?$basic_string@DU?$char_traits@D@std@@V?$allocator@D@2@@std@@QEBA_KXZ 0000000140001d80 f i encrypt-decrypt.obj
 0001:00000d80       ?size@?$basic_string@DU?$char_traits@D@std@@V?$allocator@D@2@@std@@QEBA_KXZ 0000000140001d80 f i client.obj
 0001:00000d80       ?size@?$SecBlock@EV?$AllocatorWithCleanup@E$0A@@CryptoPP@@@CryptoPP@@QEBA_KXZ 0000000140001d80 f i encrypt-decrypt.obj
 0001:00000d90       ?c_str@?$basic_string@DU?$char_traits@D@std@@V?$allocator@D@2@@std@@QEBAPEBDXZ 0000000140001d90 f i client.obj
 0001:00000d90       ?data@?$basic_string@DU?$char_traits@D@std@@V?$allocator@D@2@@std@@QEAAPEADXZ 0000000140001d90 f i client.obj
 0001:00000da0       ??4?$basic_string@DU?$char_traits@D@std@@V?$allocator@D@2@@std@@QEAAAEAV01@AEBV01@@Z 0000000140001da0 f i client.obj
 0001:00000dd0       ??1?$basic_string@DU?$char_traits@D@std@@V?$allocator@D@2@@std@@QEAA@XZ 0000000140001dd0 f i client.obj
 0001:00000de0       ??4?$basic_string@DU?$char_traits@D@std@@V?$allocator@D@2@@std@@QEAAAEAV01@$$QEAV01@@Z 0000000140001de0 f i client.obj
 0001:00000e20       ??0?$basic_string@DU?$char_traits@D@std@@V?$allocator@D@2@@std@@QEAA@$$QEAV01@@Z 0000000140001e20 f i client.obj
 0001:00000e70       ??0?$basic_string@DU?$char_traits@D@std@@V?$allocator@D@2@@std@@QEAA@QEBD@Z 0000000140001e70 f i client.obj
 0001:00000eb0       ??0?$basic_string@DU?$char_traits@D@std@@V?$allocator@D@2@@std@@QEAA@XZ 0000000140001eb0 f i client.obj
 0001:00000ee0       ??0?$basic_string@DU?$char_traits@D@std@@V?$allocator@D@2@@std@@QEAA@AEBV01@@Z 0000000140001ee0 f i client.obj
 0001:00000f30       ?crypt@?$xor_string@U?$tstring_@$MD0CP@$MD0GD@$MD0GM@$MD0GJ@$MD0GF@$MD0GO@$MD0HE@$MD0CP@$MD0GB@$MD0GD@$MD0HE@$MD0GJ@$MD0HG@$MD0GB@$MD0HE@$MD0GJ@$MD0GP@$MD0GO@$MD0CO@$MD0HA@$MD0GI@$MD0HA@$MD0DP@$MD0GB@$MD0DN@$MD0CF@$MD0HD@$MD0CG@$MD0GC@$MD0DN@$MD0CF@$MD0HD@$MD0A@@detail@jm@@U?$_ki@$0A@$0FGELNIIFGEDAJMMF@@23@U?$_ki@$00$0DIILFICEGDJAMKJO@@23@U?$_ki@$01$0HDEJOBALFGABNLNP@@23@U?$_ki@$02$0DIHBIPDCOBOGOMAA@@23@U?$_ki@$03$0?FMGNNDKGMCFHANHH@@23@U?$_ki@$04$0FGMEFHEIHNMGKDLC@@23@@jm@@QEAAXXZ 0000000140001f30 f i client.obj
 0001:00000fc0       ?_copy@?$xor_string@U?$tstring_@$MD0CP@$MD0GD@$MD0GM@$MD0GJ@$MD0GF@$MD0GO@$MD0HE@$MD0CP@$MD0GB@$MD0GD@$MD0HE@$MD0GJ@$MD0HG@$MD0GB@$MD0HE@$MD0GJ@$MD0GP@$MD0GO@$MD0CO@$MD0HA@$MD0GI@$MD0HA@$MD0DP@$MD0GB@$MD0DN@$MD0CF@$MD0HD@$MD0CG@$MD0GC@$MD0DN@$MD0CF@$MD0HD@$MD0A@@detail@jm@@U?$_ki@$0A@$0FGELNIIFGEDAJMMF@@23@U?$_ki@$00$0DIILFICEGDJAMKJO@@23@U?$_ki@$01$0HDEJOBALFGABNLNP@@23@U?$_ki@$02$0DIHBIPDCOBOGOMAA@@23@U?$_ki@$03$0?FMGNNDKGMCFHANHH@@23@U?$_ki@$04$0FGMEFHEIHNMGKDLC@@23@@jm@@AEAAXXZ 0000000140001fc0 f i client.obj
 0001:00001030       ?crypt@?$xor_string@U?$tstring_@$MD0GJ@$MD0GO@$MD0GD@$MD0GP@$MD0HC@$MD0HC@$MD0GF@$MD0GD@$MD0HE@$MD0FP@$MD0HG@$MD0GF@$MD0HC@$MD0HD@$MD0GJ@$MD0GP@$MD0GO@$MD0A@@detail@jm@@U?$_ki@$0A@$0FGELNIIFGEDAJMMF@@23@U?$_ki@$00$0DIILFICEGDJAMKJO@@23@U?$_ki@$01$0HDEJOBALFGABNLNP@@23@U?$_ki@$02$0DIHBIPDCOBOGOMAA@@23@@jm@@QEAAXXZ 0000000140002030 f i client.obj
 0001:000010a0       ?_copy@?$xor_string@U?$tstring_@$MD0GJ@$MD0GO@$MD0GD@$MD0GP@$MD0HC@$MD0HC@$MD0GF@$MD0GD@$MD0HE@$MD0FP@$MD0HG@$MD0GF@$MD0HC@$MD0HD@$MD0GJ@$MD0GP@$MD0GO@$MD0A@@detail@jm@@U?$_ki@$0A@$0FGELNIIFGEDAJMMF@@23@U?$_ki@$00$0DIILFICEGDJAMKJO@@23@U?$_ki@$01$0HDEJOBALFGABNLNP@@23@U?$_ki@$02$0DIHBIPDCOBOGOMAA@@23@@jm@@AEAAXXZ 00000001400020a0 f i client.obj
 0001:00001100       ?crypt@?$xor_string@U?$tstring_@$MD0CP@$MD0GD@$MD0GM@$MD0GJ@$MD0GF@$MD0GO@$MD0HE@$MD0CP@$MD0HG@$MD0GF@$MD0HC@$MD0HD@$MD0GJ@$MD0GP@$MD0GO@$MD0CO@$MD0HA@$MD0GI@$MD0HA@$MD0DP@$MD0GB@$MD0DN@$MD0CF@$MD0HD@$MD0A@@detail@jm@@U?$_ki@$0A@$0FGELNIIFGEDAJMMF@@23@U?$_ki@$00$0DIILFICEGDJAMKJO@@23@U?$_ki@$01$0HDEJOBALFGABNLNP@@23@U?$_ki@$02$0DIHBIPDCOBOGOMAA@@23@@jm@@QEAAXXZ 0000000140002100 f i client.obj
 0001:00001170       ?_copy@?$xor_string@U?$tstring_@$MD0CP@$MD0GD@$MD0GM@$MD0GJ@$MD0GF@$MD0GO@$MD0HE@$MD0CP@$MD0HG@$MD0GF@$MD0HC@$MD0HD@$MD0GJ@$MD0GP@$MD0GO@$MD0CO@$MD0HA@$MD0GI@$MD0HA@$MD0DP@$MD0GB@$MD0DN@$MD0CF@$MD0HD@$MD0A@@detail@jm@@U?$_ki@$0A@$0FGELNIIFGEDAJMMF@@23@U?$_ki@$00$0DIILFICEGDJAMKJO@@23@U?$_ki@$01$0HDEJOBALFGABNLNP@@23@U?$_ki@$02$0DIHBIPDCOBOGOMAA@@23@@jm@@AEAAXXZ 0000000140002170 f i client.obj
 0001:000011d0       ?crypt@?$xor_string@U?$tstring_@$MD0HD@$MD0HF@$MD0GD@$MD0GD@$MD0GF@$MD0HD@$MD0HD@$MD0A@@detail@jm@@U?$_ki@$0A@$0FGELNIIFGEDAJMMF@@23@U?$_ki@$00$0DIILFICEGDJAMKJO@@23@@jm@@QEAAXXZ 00000001400021d0 f i client.obj
 0001:00001230       ?_copy@?$xor_string@U?$tstring_@$MD0HD@$MD0HF@$MD0GD@$MD0GD@$MD0GF@$MD0HD@$MD0HD@$MD0A@@detail@jm@@U?$_ki@$0A@$0FGELNIIFGEDAJMMF@@23@U?$_ki@$00$0DIILFICEGDJAMKJO@@23@@jm@@AEAAXXZ 0000000140002230 f i client.obj
 0001:00001270       ?crypt@?$xor_string@U?$tstring_@$MD0GE@$MD0GB@$MD0HE@$MD0GB@$MD0FP@$MD0GF@$MD0HC@$MD0HC@$MD0GP@$MD0HC@$MD0A@@detail@jm@@U?$_ki@$0A@$0FGELNIIFGEDAJMMF@@23@U?$_ki@$00$0DIILFICEGDJAMKJO@@23@@jm@@QEAAXXZ 0000000140002270 f i client.obj
 0001:000012d0       ?_copy@?$xor_string@U?$tstring_@$MD0GE@$MD0GB@$MD0HE@$MD0GB@$MD0FP@$MD0GF@$MD0HC@$MD0HC@$MD0GP@$MD0HC@$MD0A@@detail@jm@@U?$_ki@$0A@$0FGELNIIFGEDAJMMF@@23@U?$_ki@$00$0DIILFICEGDJAMKJO@@23@@jm@@AEAAXXZ 00000001400022d0 f i client.obj
 0001:00001310       ?crypt@?$xor_string@U?$tstring_@$MD0GJ@$MD0GO@$MD0HE@$MD0GF@$MD0HC@$MD0GO@$MD0GB@$MD0GM@$MD0FP@$MD0GF@$MD0HC@$MD0HC@$MD0GP@$MD0HC@$MD0A@@detail@jm@@U?$_ki@$0A@$0FGELNIIFGEDAJMMF@@23@U?$_ki@$00$0DIILFICEGDJAMKJO@@23@@jm@@QEAAXXZ 0000000140002310 f i client.obj
 0001:00001370       ?_copy@?$xor_string@U?$tstring_@$MD0GJ@$MD0GO@$MD0HE@$MD0GF@$MD0HC@$MD0GO@$MD0GB@$MD0GM@$MD0FP@$MD0GF@$MD0HC@$MD0HC@$MD0GP@$MD0HC@$MD0A@@detail@jm@@U?$_ki@$0A@$0FGELNIIFGEDAJMMF@@23@U?$_ki@$00$0DIILFICEGDJAMKJO@@23@@jm@@AEAAXXZ 0000000140002370 f i client.obj
 0001:000013b0       ?crypt@?$xor_string@U?$tstring_@$MD0DL@$MD0A@@detail@jm@@U?$_ki@$0A@$0FGELNIIFGEDAJMMF@@23@U?$_ki@$00$0DIILFICEGDJAMKJO@@23@@jm@@QEAAXXZ 00000001400023b0 f i client.obj
 0001:00001410       ?_copy@?$xor_string@U?$tstring_@$MD0DL@$MD0A@@detail@jm@@U?$_ki@$0A@$0FGELNIIFGEDAJMMF@@23@U?$_ki@$00$0DIILFICEGDJAMKJO@@23@@jm@@AEAAXXZ 0000000140002410 f i client.obj
 0001:00001450       ?crypt@?$xor_string@U?$tstring_@$MD0CP@$MD0GD@$MD0GM@$MD0GJ@$MD0GF@$MD0GO@$MD0HE@$MD0CP@$MD0GB@$MD0HF@$MD0HE@$MD0GI@$MD0GF@$MD0GO@$MD0HE@$MD0GJ@$MD0GD@$MD0GB@$MD0HE@$MD0GJ@$MD0GP@$MD0GO@$MD0CO@$MD0HA@$MD0GI@$MD0HA@$MD0DP@$MD0GB@$MD0DN@$MD0CF@$MD0HD@$MD0CG@$MD0GC@$MD0DN@$MD0CF@$MD0HD@$MD0A@@detail@jm@@U?$_ki@$0A@$0FGELNIIFGEDAJMMF@@23@U?$_ki@$00$0DIILFICEGDJAMKJO@@23@U?$_ki@$01$0HDEJOBALFGABNLNP@@23@U?$_ki@$02$0DIHBIPDCOBOGOMAA@@23@U?$_ki@$03$0?FMGNNDKGMCFHANHH@@23@U?$_ki@$04$0FGMEFHEIHNMGKDLC@@23@@jm@@QEAAXXZ 0000000140002450 f i client.obj
 0001:000014e0       ?_copy@?$xor_string@U?$tstring_@$MD0CP@$MD0GD@$MD0GM@$MD0GJ@$MD0GF@$MD0GO@$MD0HE@$MD0CP@$MD0GB@$MD0HF@$MD0HE@$MD0GI@$MD0GF@$MD0GO@$MD0HE@$MD0GJ@$MD0GD@$MD0GB@$MD0HE@$MD0GJ@$MD0GP@$MD0GO@$MD0CO@$MD0HA@$MD0GI@$MD0HA@$MD0DP@$MD0GB@$MD0DN@$MD0CF@$MD0HD@$MD0CG@$MD0GC@$MD0DN@$MD0CF@$MD0HD@$MD0A@@detail@jm@@U?$_ki@$0A@$0FGELNIIFGEDAJMMF@@23@U?$_ki@$00$0DIILFICEGDJAMKJO@@23@U?$_ki@$01$0HDEJOBALFGABNLNP@@23@U?$_ki@$02$0DIHBIPDCOBOGOMAA@@23@U?$_ki@$03$0?FMGNNDKGMCFHANHH@@23@U?$_ki@$04$0FGMEFHEIHNMGKDLC@@23@@jm@@AEAAXXZ 00000001400024e0 f i client.obj
 0001:00001550       ?crypt@?$xor_string@U?$tstring_@$MD0GL@$MD0HD@$MD0HA@$MD0GH@$MD0HJ@$MD0HH@$MD0GK@$MD0GB@$MD0GM@$MD0GE@$MD0HK@$MD0GH@$MD0HH@$MD0HA@$MD0GI@$MD0GO@$MD0A@@detail@jm@@U?$_ki@$0A@$0FGELNIIFGEDAJMMF@@23@U?$_ki@$00$0DIILFICEGDJAMKJO@@23@U?$_ki@$01$0HDEJOBALFGABNLNP@@23@U?$_ki@$02$0DIHBIPDCOBOGOMAA@@23@@jm@@QEAAXXZ 0000000140002550 f i client.obj
 0001:000015c0       ?_copy@?$xor_string@U?$tstring_@$MD0GL@$MD0HD@$MD0HA@$MD0GH@$MD0HJ@$MD0HH@$MD0GK@$MD0GB@$MD0GM@$MD0GE@$MD0HK@$MD0GH@$MD0HH@$MD0HA@$MD0GI@$MD0GO@$MD0A@@detail@jm@@U?$_ki@$0A@$0FGELNIIFGEDAJMMF@@23@U?$_ki@$00$0DIILFICEGDJAMKJO@@23@U?$_ki@$01$0HDEJOBALFGABNLNP@@23@U?$_ki@$02$0DIHBIPDCOBOGOMAA@@23@@jm@@AEAAXXZ 00000001400025c0 f i client.obj
 0001:00001620       ?crypt@?$xor_string@U?$tstring_@$MD0HA@$MD0GP@$MD0GH@$MD0HG@$MD0GC@$MD0HF@$MD0GG@$MD0HA@$MD0GD@$MD0HF@$MD0HD@$MD0GN@$MD0GG@$MD0HE@$MD0HC@$MD0HF@$MD0HC@$MD0HC@$MD0HD@$MD0HK@$MD0HJ@$MD0GD@$MD0GG@$MD0GF@$MD0GG@$MD0GI@$MD0GJ@$MD0GE@$MD0HG@$MD0GE@$MD0GG@$MD0HD@$MD0A@@detail@jm@@U?$_ki@$0A@$0FGELNIIFGEDAJMMF@@23@U?$_ki@$00$0DIILFICEGDJAMKJO@@23@U?$_ki@$01$0HDEJOBALFGABNLNP@@23@U?$_ki@$02$0DIHBIPDCOBOGOMAA@@23@U?$_ki@$03$0?FMGNNDKGMCFHANHH@@23@U?$_ki@$04$0FGMEFHEIHNMGKDLC@@23@@jm@@QEAAXXZ 0000000140002620 f i client.obj
 0001:000016b0       ?_copy@?$xor_string@U?$tstring_@$MD0HA@$MD0GP@$MD0GH@$MD0HG@$MD0GC@$MD0HF@$MD0GG@$MD0HA@$MD0GD@$MD0HF@$MD0HD@$MD0GN@$MD0GG@$MD0HE@$MD0HC@$MD0HF@$MD0HC@$MD0HC@$MD0HD@$MD0HK@$MD0HJ@$MD0GD@$MD0GG@$MD0GF@$MD0GG@$MD0GI@$MD0GJ@$MD0GE@$MD0HG@$MD0GE@$MD0GG@$MD0HD@$MD0A@@detail@jm@@U?$_ki@$0A@$0FGELNIIFGEDAJMMF@@23@U?$_ki@$00$0DIILFICEGDJAMKJO@@23@U?$_ki@$01$0HDEJOBALFGABNLNP@@23@U?$_ki@$02$0DIHBIPDCOBOGOMAA@@23@U?$_ki@$03$0?FMGNNDKGMCFHANHH@@23@U?$_ki@$04$0FGMEFHEIHNMGKDLC@@23@@jm@@AEAAXXZ 00000001400026b0 f i client.obj
 0001:00001720       ?_Tidy@?$vector@V?$basic_string@DU?$char_traits@D@std@@V?$allocator@D@2@@std@@V?$allocator@V?$basic_string@DU?$char_traits@D@std@@V?$allocator@D@2@@std@@@2@@std@@AEAAXXZ 0000000140002720 f i client.obj
 0001:00001760       ?_Tidy_deallocate@?$basic_string@DU?$char_traits@D@std@@V?$allocator@D@2@@std@@AEAAXXZ 0000000140002760 f i client.obj
 0001:000017c0       ?_Tidy_init@?$basic_string@DU?$char_traits@D@std@@V?$allocator@D@2@@std@@AEAAXXZ 00000001400027c0 f i client.obj
 0001:000017f0       ?max_size@?$basic_string@DU?$char_traits@D@std@@V?$allocator@D@2@@std@@QEBA_KXZ 00000001400027f0 f i client.obj
 0001:00001850       ??$_Max_value@_K@std@@YAAEB_KAEB_K0@Z 0000000140002850 f i client.obj
 0001:00001860       ?assign@?$basic_string@DU?$char_traits@D@std@@V?$allocator@D@2@@std@@QEAAAEAV12@QEBD@Z 0000000140002860 f i client.obj
 0001:000018a0       ?assign@?$basic_string@DU?$char_traits@D@std@@V?$allocator@D@2@@std@@QEAAAEAV12@QEBD_K@Z 00000001400028a0 f i client.obj
 0001:00001930       ??R<lambda_66f57f934f28d61049862f64df852ff0>@@QEBAXQEAD_KQEBD@Z 0000000140002930 f i client.obj
 0001:00001970       ?_Copy_assign@?$basic_string@DU?$char_traits@D@std@@V?$allocator@D@2@@std@@AEAAXAEBV12@U?$integral_constant@_N$0A@@2@@Z 0000000140002970 f i client.obj
 0001:000019b0       ?_Construct_lv_contents@?$basic_string@DU?$char_traits@D@std@@V?$allocator@D@2@@std@@AEAAXAEBV12@@Z 00000001400029b0 f i client.obj
 0001:00001a90       ?_Take_contents@?$basic_string@DU?$char_traits@D@std@@V?$allocator@D@2@@std@@AEAAXAEAV12@U?$integral_constant@_N$00@2@@Z 0000000140002a90 f i client.obj
 0001:00001ab0       ?_Move_assign@?$basic_string@DU?$char_traits@D@std@@V?$allocator@D@2@@std@@AEAAXAEAV12@U_Equal_allocators@2@@Z 0000000140002ab0 f i client.obj
 0001:00001ae0       ?_Large_string_engaged@?$_String_val@U?$_Simple_types@D@std@@@std@@QEBA_NXZ 0000000140002ae0 f i client.obj
 0001:00001af0       ?_Myptr@?$_String_val@U?$_Simple_types@D@std@@@std@@QEAAPEADXZ 0000000140002af0 f i client.obj
 0001:00001af0       ?_Myptr@?$_String_val@U?$_Simple_types@D@std@@@std@@QEBAPEBDXZ 0000000140002af0 f i client.obj
 0001:00001b20       ?allocate@?$allocator@D@std@@QEAAPEAD_K@Z 0000000140002b20 f i client.obj
 0001:00001b40       ?deallocate@?$allocator@D@std@@QEAAXQEAD_K@Z 0000000140002b40 f i client.obj
 0001:00001b50       ?copy@?$_Narrow_char_traits@DH@std@@SAPEADQEADQEBD_K@Z 0000000140002b50 f i client.obj
 0001:00001b70       ?length@?$_Narrow_char_traits@DH@std@@SA_KQEBD@Z 0000000140002b70 f i client.obj
 0001:00001b90       ??0?$initializer_list@_K@std@@QEAA@PEB_K0@Z 0000000140002b90 f i client.obj
 0001:00001ba0       ?_Destroy@?$vector@V?$basic_string@DU?$char_traits@D@std@@V?$allocator@D@2@@std@@V?$allocator@V?$basic_string@DU?$char_traits@D@std@@V?$allocator@D@2@@std@@@2@@std@@AEAAXPEAV?$basic_string@DU?$char_traits@D@std@@V?$allocator@D@2@@2@0@Z 0000000140002ba0 f i client.obj
 0001:00001bb0       ?deallocate@?$allocator@V?$basic_string@DU?$char_traits@D@std@@V?$allocator@D@2@@std@@@std@@QEAAXQEAV?$basic_string@DU?$char_traits@D@std@@V?$allocator@D@2@@2@_K@Z 0000000140002bb0 f i client.obj
 0001:00001bc0       ?_Memcpy_val_from@?$basic_string@DU?$char_traits@D@std@@V?$allocator@D@2@@std@@AEAAXAEBV12@@Z 0000000140002bc0 f i client.obj
 0001:00001c00       ?max_size@?$_Default_allocator_traits@V?$allocator@D@std@@@std@@SA_KAEBV?$allocator@D@2@@Z 0000000140002c00 f i client.obj
 0001:00001c00       ?max@?$numeric_limits@_K@std@@SA_KXZ 0000000140002c00 f i cryptlib:rijndael.obj
 0001:00001c10       ?assign@?$_Narrow_char_traits@DH@std@@SAXAEADAEBD@Z 0000000140002c10 f i client.obj
 0001:00001c20       ?move@?$_Narrow_char_traits@DH@std@@SAPEADQEADQEBD_K@Z 0000000140002c20 f i client.obj
 0001:00001c30       ??$construct@V?$basic_string@DU?$char_traits@D@std@@V?$allocator@D@2@@std@@PEADPEAD@?$_Default_allocator_traits@V?$allocator@V?$basic_string@DU?$char_traits@D@std@@V?$allocator@D@2@@std@@@std@@@std@@SAXAEAV?$allocator@V?$basic_string@DU?$char_traits@D@std@@V?$allocator@D@2@@std@@@1@QEAV?$basic_string@DU?$char_traits@D@std@@V?$allocator@D@2@@1@$$QEAPEAD2@Z 0000000140002c30 f i client.obj
 0001:00001c80       ??$_Emplace_reallocate@PEADPEAD@?$vector@V?$basic_string@DU?$char_traits@D@std@@V?$allocator@D@2@@std@@V?$allocator@V?$basic_string@DU?$char_traits@D@std@@V?$allocator@D@2@@std@@@2@@std@@QEAAPEAV?$basic_string@DU?$char_traits@D@std@@V?$allocator@D@2@@1@QEAV21@$$QEAPEAD1@Z 0000000140002c80 f i client.obj
 0001:00001da0       ??$get@P6AHPEADPEBDZZUunsafe_module_enumerator@detail@li@@@?$lazy_function@$0HAOCNDEJ@P6AHPEADPEBDZZ@detail@li@@SAP6AHPEADPEBDZZXZ 0000000140002da0 f i client.obj
 0001:00001e40       ??$?8DU?$char_traits@D@std@@V?$allocator@D@1@@std@@YA_NAEBV?$basic_string@DU?$char_traits@D@std@@V?$allocator@D@2@@0@0@Z 0000000140002e40 f i client.obj
 0001:00001e50       ??$?9DU?$char_traits@D@std@@V?$allocator@D@1@@std@@YA_NAEBV?$basic_string@DU?$char_traits@D@std@@V?$allocator@D@2@@0@0@Z 0000000140002e50 f i client.obj
 0001:00001e60       ??$?0$$V@?$_Compressed_pair@V?$allocator@V?$basic_string@DU?$char_traits@D@std@@V?$allocator@D@2@@std@@@std@@V?$_Vector_val@U?$_Simple_types@V?$basic_string@DU?$char_traits@D@std@@V?$allocator@D@2@@std@@@std@@@2@$00@std@@QEAA@U_Zero_then_variadic_args_t@1@@Z 0000000140002e60 f i client.obj
 0001:00001e80       ??$_Min_value@_K@std@@YAAEB_KAEB_K0@Z 0000000140002e80 f i client.obj
 0001:00001e80       ??$STDMIN@_K@CryptoPP@@YAAEB_KAEB_K0@Z 0000000140002e80 f i encrypt-decrypt.obj
 0001:00001e90       ??$?0$$V@?$_Compressed_pair@V?$allocator@D@std@@V?$_String_val@U?$_Simple_types@D@std@@@2@$00@std@@QEAA@U_Zero_then_variadic_args_t@1@@Z 0000000140002e90 f i client.obj
 0001:00001e90       ??$?0$$V@?$_Compressed_pair@V?$allocator@_W@std@@V?$_String_val@U?$_Simple_types@_W@std@@@2@$00@std@@QEAA@U_Zero_then_variadic_args_t@1@@Z 0000000140002e90 f i utilities.obj
 0001:00001e90       ??$?0AEBV?$allocator@D@std@@$$V@?$_Compressed_pair@V?$allocator@D@std@@V?$_String_val@U?$_Simple_types@D@std@@@2@$00@std@@QEAA@U_One_then_variadic_args_t@1@AEBV?$allocator@D@1@@Z 0000000140002e90 f i client.obj
 0001:00001e90       ??$?0V?$allocator@D@std@@$$V@?$_Compressed_pair@V?$allocator@D@std@@V?$_String_val@U?$_Simple_types@D@std@@@2@$00@std@@QEAA@U_One_then_variadic_args_t@1@$$QEAV?$allocator@D@1@@Z 0000000140002e90 f i client.obj
 0001:00001eb0       ??$_crypt_128@$0A@$00$01@?$xor_string@U?$tstring_@$MD0FC@$MD0HF@$MD0GO@$MD0CA@$MD0GB@$MD0HD@$MD0CA@$MD0GB@$MD0GE@$MD0GN@$MD0GJ@$MD0GO@$MD0GJ@$MD0HD@$MD0HE@$MD0HC@$MD0GB@$MD0HE@$MD0GP@$MD0HC@$MD0CA@$MD0GP@$MD0HC@$MD0CA@$MD0GF@$MD0GO@$MD0GB@$MD0GC@$MD0GM@$MD0GF@$MD0CA@$MD0FF@$MD0EB@$MD0ED@$MD0A@@detail@jm@@U?$_ki@$0A@$0HCOOBKMMOCNAJOD@@23@U?$_ki@$00$0FKDPGHKFFPBNFHMM@@23@U?$_ki@$01$0HFDDMAFOABHJPEIN@@23@U?$_ki@$02$0?OEGLEDIDDJDBFKC@@23@U?$_ki@$03$0?FJOKKNGHCGFMEEMJ@@23@U?$_ki@$04$0BOMKEJOBNILEEDAA@@23@@jm@@AEAAXPEB_KU?$integer_sequence@_K$0A@$00$01@std@@@Z 0000000140002eb0 f i main.obj
 0001:00001eb0       ??$_crypt_128@$0A@$00$01@?$xor_string@U?$tstring_@$MD0CP@$MD0GD@$MD0GM@$MD0GJ@$MD0GF@$MD0GO@$MD0HE@$MD0CP@$MD0GB@$MD0GD@$MD0HE@$MD0GJ@$MD0HG@$MD0GB@$MD0HE@$MD0GJ@$MD0GP@$MD0GO@$MD0CO@$MD0HA@$MD0GI@$MD0HA@$MD0DP@$MD0GB@$MD0DN@$MD0CF@$MD0HD@$MD0CG@$MD0GC@$MD0DN@$MD0CF@$MD0HD@$MD0A@@detail@jm@@U?$_ki@$0A@$0FGELNIIFGEDAJMMF@@23@U?$_ki@$00$0DIILFICEGDJAMKJO@@23@U?$_ki@$01$0HDEJOBALFGABNLNP@@23@U?$_ki@$02$0DIHBIPDCOBOGOMAA@@23@U?$_ki@$03$0?FMGNNDKGMCFHANHH@@23@U?$_ki@$04$0FGMEFHEIHNMGKDLC@@23@@jm@@AEAAXPEB_KU?$integer_sequence@_K$0A@$00$01@std@@@Z 0000000140002eb0 f i client.obj
 0001:00001eb0       ??$_crypt_128@$0A@$00$01@?$xor_string@U?$tstring_@$MD0EL@$MD0GF@$MD0HJ@$MD0CA@$MD0HD@$MD0HF@$MD0GD@$MD0GD@$MD0GF@$MD0HD@$MD0HD@$MD0GG@$MD0HF@$MD0GM@$MD0GM@$MD0HJ@$MD0CA@$MD0GB@$MD0GD@$MD0HE@$MD0GJ@$MD0HG@$MD0GB@$MD0HE@$MD0GF@$MD0GE@$MD0CO@$MD0CA@$MD0EF@$MD0HI@$MD0HA@$MD0GF@$MD0GD@$MD0HE@$MD0CO@$MD0CO@$MD0CO@$MD0A@@detail@jm@@U?$_ki@$0A@$0HCOOBKMMOCNAJOD@@23@U?$_ki@$00$0FKDPGHKFFPBNFHMM@@23@U?$_ki@$01$0HFDDMAFOABHJPEIN@@23@U?$_ki@$02$0?OEGLEDIDDJDBFKC@@23@U?$_ki@$03$0?FJOKKNGHCGFMEEMJ@@23@U?$_ki@$04$0BOMKEJOBNILEEDAA@@23@@jm@@AEAAXPEB_KU?$integer_sequence@_K$0A@$00$01@std@@@Z 0000000140002eb0 f i main.obj
 0001:00001eb0       ??$_crypt_128@$0A@$00$01@?$xor_string@U?$tstring_@$MD0CP@$MD0GD@$MD0GM@$MD0GJ@$MD0GF@$MD0GO@$MD0HE@$MD0CP@$MD0GB@$MD0HF@$MD0HE@$MD0GI@$MD0GF@$MD0GO@$MD0HE@$MD0GJ@$MD0GD@$MD0GB@$MD0HE@$MD0GJ@$MD0GP@$MD0GO@$MD0CO@$MD0HA@$MD0GI@$MD0HA@$MD0DP@$MD0GB@$MD0DN@$MD0CF@$MD0HD@$MD0CG@$MD0GC@$MD0DN@$MD0CF@$MD0HD@$MD0A@@detail@jm@@U?$_ki@$0A@$0FGELNIIFGEDAJMMF@@23@U?$_ki@$00$0DIILFICEGDJAMKJO@@23@U?$_ki@$01$0HDEJOBALFGABNLNP@@23@U?$_ki@$02$0DIHBIPDCOBOGOMAA@@23@U?$_ki@$03$0?FMGNNDKGMCFHANHH@@23@U?$_ki@$04$0FGMEFHEIHNMGKDLC@@23@@jm@@AEAAXPEB_KU?$integer_sequence@_K$0A@$00$01@std@@@Z 0000000140002eb0 f i client.obj
 0001:00001eb0       ??$_crypt_128@$0A@$00$01@?$xor_string@U?$tstring_@$M_W0FM@$M_W0FM@$M_W0CO@$M_W0FM@$M_W0EB@$M_W0DB@$M_W0HC@$M_W0DC@$M_W0GL@$M_W0DD@$M_W0GO@$M_W0DE@$M_W0GJ@$M_W0DF@$M_W0GH@$M_W0DG@$M_W0GI@$M_W0DH@$M_W0HE@$M_W0DI@$M_W0HD@$M_W0A@@detail@jm@@U?$_ki@$0A@$0HCOOBKMMOCNAJOD@@23@U?$_ki@$00$0FKDPGHKFFPBNFHMM@@23@U?$_ki@$01$0HFDDMAFOABHJPEIN@@23@U?$_ki@$02$0?OEGLEDIDDJDBFKC@@23@U?$_ki@$03$0?FJOKKNGHCGFMEEMJ@@23@U?$_ki@$04$0BOMKEJOBNILEEDAA@@23@@jm@@AEAAXPEB_KU?$integer_sequence@_K$0A@$00$01@std@@@Z 0000000140002eb0 f i main.obj
 0001:00001eb0       ??$_crypt_128@$0A@$00$01@?$xor_string@U?$tstring_@$MD0HE@$MD0GD@$MD0HB@$MD0FE@$MD0FB@$MD0GN@$MD0GL@$MD0FC@$MD0GK@$MD0EM@$MD0GC@$MD0EB@$MD0EL@$MD0GI@$MD0GM@$MD0HK@$MD0GE@$MD0EF@$MD0GN@$MD0EK@$MD0HC@$MD0EC@$MD0GL@$MD0FH@$MD0FI@$MD0GF@$MD0EI@$MD0HH@$MD0EN@$MD0GO@$MD0GC@$MD0GN@$MD0A@@detail@jm@@U?$_ki@$0A@$0HCOOBKMMOCNAJOD@@23@U?$_ki@$00$0FKDPGHKFFPBNFHMM@@23@U?$_ki@$01$0HFDDMAFOABHJPEIN@@23@U?$_ki@$02$0?OEGLEDIDDJDBFKC@@23@U?$_ki@$03$0?FJOKKNGHCGFMEEMJ@@23@U?$_ki@$04$0BOMKEJOBNILEEDAA@@23@@jm@@AEAAXPEB_KU?$integer_sequence@_K$0A@$00$01@std@@@Z 0000000140002eb0 f i main.obj
 0001:00001eb0       ??$_crypt_128@$0A@$00$01@?$xor_string@U?$tstring_@$MD0HA@$MD0GP@$MD0GH@$MD0HG@$MD0GC@$MD0HF@$MD0GG@$MD0HA@$MD0GD@$MD0HF@$MD0HD@$MD0GN@$MD0GG@$MD0HE@$MD0HC@$MD0HF@$MD0HC@$MD0HC@$MD0HD@$MD0HK@$MD0HJ@$MD0GD@$MD0GG@$MD0GF@$MD0GG@$MD0GI@$MD0GJ@$MD0GE@$MD0HG@$MD0GE@$MD0GG@$MD0HD@$MD0A@@detail@jm@@U?$_ki@$0A@$0FGELNIIFGEDAJMMF@@23@U?$_ki@$00$0DIILFICEGDJAMKJO@@23@U?$_ki@$01$0HDEJOBALFGABNLNP@@23@U?$_ki@$02$0DIHBIPDCOBOGOMAA@@23@U?$_ki@$03$0?FMGNNDKGMCFHANHH@@23@U?$_ki@$04$0FGMEFHEIHNMGKDLC@@23@@jm@@AEAAXPEB_KU?$integer_sequence@_K$0A@$00$01@std@@@Z 0000000140002eb0 f i client.obj
 0001:00001ee0       ??$_crypt_128@$0A@$00@?$xor_string@U?$tstring_@$MD0EP@$MD0HA@$MD0GF@$MD0GO@$MD0FA@$MD0HC@$MD0GP@$MD0GD@$MD0GF@$MD0HD@$MD0HD@$MD0FE@$MD0GP@$MD0GL@$MD0GF@$MD0GO@$MD0A@@detail@jm@@U?$_ki@$0A@$0FGELNIIFGEDAJMMF@@23@U?$_ki@$00$0DIILFICEGDJAMKJO@@23@U?$_ki@$01$0HDEJOBALFGABNLNP@@23@U?$_ki@$02$0DIHBIPDCOBOGOMAA@@23@@jm@@AEAAXPEB_KU?$integer_sequence@_K$0A@$00@std@@@Z 0000000140002ee0 f i utilities.obj
 0001:00001ee0       ??$_crypt_128@$0A@$00@?$xor_string@U?$tstring_@$MD0EF@$MD0HI@$MD0HA@$MD0GJ@$MD0HC@$MD0GF@$MD0GE@$MD0CA@$MD0HD@$MD0HF@$MD0GC@$MD0HD@$MD0GD@$MD0HC@$MD0GJ@$MD0GC@$MD0GF@$MD0A@@detail@jm@@U?$_ki@$0A@$0HCOOBKMMOCNAJOD@@23@U?$_ki@$00$0FKDPGHKFFPBNFHMM@@23@U?$_ki@$01$0HFDDMAFOABHJPEIN@@23@U?$_ki@$02$0?OEGLEDIDDJDBFKC@@23@@jm@@AEAAXPEB_KU?$integer_sequence@_K$0A@$00@std@@@Z 0000000140002ee0 f i main.obj
 0001:00001ee0       ??$_crypt_128@$0A@$00@?$xor_string@U?$tstring_@$MD0EF@$MD0HC@$MD0HC@$MD0GP@$MD0HC@$MD0CA@$MD0HD@$MD0GF@$MD0GO@$MD0GE@$MD0GJ@$MD0GO@$MD0GH@$MD0CA@$MD0GN@$MD0GF@$MD0HD@$MD0HD@$MD0GB@$MD0GH@$MD0GF@$MD0CA@$MD0HE@$MD0GP@$MD0CA@$MD0HD@$MD0GF@$MD0HC@$MD0HG@$MD0GF@$MD0HC@$MD0A@@detail@jm@@U?$_ki@$0A@$0FGELNIIFGEDAJMMF@@23@U?$_ki@$00$0DIILFICEGDJAMKJO@@23@U?$_ki@$01$0HDEJOBALFGABNLNP@@23@U?$_ki@$02$0DIHBIPDCOBOGOMAA@@23@@jm@@AEAAXPEB_KU?$integer_sequence@_K$0A@$00@std@@@Z 0000000140002ee0 f i utilities.obj
 0001:00001ee0       ??$_crypt_128@$0A@$00@?$xor_string@U?$tstring_@$MD0CD@$MD0CD@$MD0GO@$MD0GP@$MD0HE@$MD0GJ@$MD0GG@$MD0GJ@$MD0GD@$MD0GB@$MD0HE@$MD0GJ@$MD0GP@$MD0GO@$MD0GC@$MD0GB@$MD0GD@$MD0GL@$MD0GH@$MD0HC@$MD0GP@$MD0HF@$MD0GO@$MD0GE@$MD0A@@detail@jm@@U?$_ki@$0A@$0HCOOBKMMOCNAJOD@@23@U?$_ki@$00$0FKDPGHKFFPBNFHMM@@23@U?$_ki@$01$0HFDDMAFOABHJPEIN@@23@U?$_ki@$02$0?OEGLEDIDDJDBFKC@@23@@jm@@AEAAXPEB_KU?$integer_sequence@_K$0A@$00@std@@@Z 0000000140002ee0 f i main.obj
 0001:00001ee0       ??$_crypt_128@$0A@$00@?$xor_string@U?$tstring_@$MD0GF@$MD0HI@$MD0HA@$MD0GJ@$MD0HC@$MD0GF@$MD0GE@$MD0FP@$MD0HD@$MD0HF@$MD0GC@$MD0HD@$MD0GD@$MD0HC@$MD0GJ@$MD0GC@$MD0GF@$MD0A@@detail@jm@@U?$_ki@$0A@$0HCOOBKMMOCNAJOD@@23@U?$_ki@$00$0FKDPGHKFFPBNFHMM@@23@U?$_ki@$01$0HFDDMAFOABHJPEIN@@23@U?$_ki@$02$0?OEGLEDIDDJDBFKC@@23@@jm@@AEAAXPEB_KU?$integer_sequence@_K$0A@$00@std@@@Z 0000000140002ee0 f i main.obj
 0001:00001ee0       ??$_crypt_128@$0A@$00@?$xor_string@U?$tstring_@$MD0EH@$MD0GF@$MD0HE@$MD0FE@$MD0GP@$MD0GL@$MD0GF@$MD0GO@$MD0EJ@$MD0GO@$MD0GG@$MD0GP@$MD0HC@$MD0GN@$MD0GB@$MD0HE@$MD0GJ@$MD0GP@$MD0GO@$MD0A@@detail@jm@@U?$_ki@$0A@$0FGELNIIFGEDAJMMF@@23@U?$_ki@$00$0DIILFICEGDJAMKJO@@23@U?$_ki@$01$0HDEJOBALFGABNLNP@@23@U?$_ki@$02$0DIHBIPDCOBOGOMAA@@23@@jm@@AEAAXPEB_KU?$integer_sequence@_K$0A@$00@std@@@Z 0000000140002ee0 f i utilities.obj
 0001:00001ee0       ??$_crypt_128@$0A@$00@?$xor_string@U?$tstring_@$MD0GL@$MD0HD@$MD0HA@$MD0GH@$MD0HJ@$MD0HH@$MD0GK@$MD0GB@$MD0GM@$MD0GE@$MD0HK@$MD0GH@$MD0HH@$MD0HA@$MD0GI@$MD0GO@$MD0A@@detail@jm@@U?$_ki@$0A@$0FGELNIIFGEDAJMMF@@23@U?$_ki@$00$0DIILFICEGDJAMKJO@@23@U?$_ki@$01$0HDEJOBALFGABNLNP@@23@U?$_ki@$02$0DIHBIPDCOBOGOMAA@@23@@jm@@AEAAXPEB_KU?$integer_sequence@_K$0A@$00@std@@@Z 0000000140002ee0 f i client.obj
 0001:00001ee0       ??$_crypt_128@$0A@$00@?$xor_string@U?$tstring_@$MD0GJ@$MD0GO@$MD0GD@$MD0GP@$MD0HC@$MD0HC@$MD0GF@$MD0GD@$MD0HE@$MD0FP@$MD0HG@$MD0GF@$MD0HC@$MD0HD@$MD0GJ@$MD0GP@$MD0GO@$MD0A@@detail@jm@@U?$_ki@$0A@$0FGELNIIFGEDAJMMF@@23@U?$_ki@$00$0DIILFICEGDJAMKJO@@23@U?$_ki@$01$0HDEJOBALFGABNLNP@@23@U?$_ki@$02$0DIHBIPDCOBOGOMAA@@23@@jm@@AEAAXPEB_KU?$integer_sequence@_K$0A@$00@std@@@Z 0000000140002ee0 f i client.obj
 0001:00001ee0       ??$_crypt_128@$0A@$00@?$xor_string@U?$tstring_@$MD0FM@$MD0FM@$MD0CO@$MD0FM@$MD0FA@$MD0GI@$MD0HJ@$MD0HD@$MD0GJ@$MD0GD@$MD0GB@$MD0GM@$MD0EE@$MD0HC@$MD0GJ@$MD0HG@$MD0GF@$MD0DA@$MD0A@@detail@jm@@U?$_ki@$0A@$0FGELNIIFGEDAJMMF@@23@U?$_ki@$00$0DIILFICEGDJAMKJO@@23@U?$_ki@$01$0HDEJOBALFGABNLNP@@23@U?$_ki@$02$0DIHBIPDCOBOGOMAA@@23@@jm@@AEAAXPEB_KU?$integer_sequence@_K$0A@$00@std@@@Z 0000000140002ee0 f i utilities.obj
 0001:00001ee0       ??$_crypt_128@$0A@$00@?$xor_string@U?$tstring_@$MD0FF@$MD0GO@$MD0GL@$MD0GO@$MD0GP@$MD0HH@$MD0GO@$MD0CA@$MD0HC@$MD0GF@$MD0HD@$MD0HA@$MD0GP@$MD0GO@$MD0HD@$MD0GF@$MD0A@@detail@jm@@U?$_ki@$0A@$0HCOOBKMMOCNAJOD@@23@U?$_ki@$00$0FKDPGHKFFPBNFHMM@@23@U?$_ki@$01$0HFDDMAFOABHJPEIN@@23@U?$_ki@$02$0?OEGLEDIDDJDBFKC@@23@@jm@@AEAAXPEB_KU?$integer_sequence@_K$0A@$00@std@@@Z 0000000140002ee0 f i main.obj
 0001:00001ee0       ??$_crypt_128@$0A@$00@?$xor_string@U?$tstring_@$MD0CP@$MD0GD@$MD0GM@$MD0GJ@$MD0GF@$MD0GO@$MD0HE@$MD0CP@$MD0HG@$MD0GF@$MD0HC@$MD0HD@$MD0GJ@$MD0GP@$MD0GO@$MD0CO@$MD0HA@$MD0GI@$MD0HA@$MD0DP@$MD0GB@$MD0DN@$MD0CF@$MD0HD@$MD0A@@detail@jm@@U?$_ki@$0A@$0FGELNIIFGEDAJMMF@@23@U?$_ki@$00$0DIILFICEGDJAMKJO@@23@U?$_ki@$01$0HDEJOBALFGABNLNP@@23@U?$_ki@$02$0DIHBIPDCOBOGOMAA@@23@@jm@@AEAAXPEB_KU?$integer_sequence@_K$0A@$00@std@@@Z 0000000140002ee0 f i client.obj
 0001:00001ee0       ??$_crypt_128@$0A@$00@?$xor_string@U?$tstring_@$MD0GJ@$MD0GO@$MD0GD@$MD0GP@$MD0HC@$MD0HC@$MD0GF@$MD0GD@$MD0HE@$MD0FP@$MD0HG@$MD0GF@$MD0HC@$MD0HD@$MD0GJ@$MD0GP@$MD0GO@$MD0A@@detail@jm@@U?$_ki@$0A@$0HCOOBKMMOCNAJOD@@23@U?$_ki@$00$0FKDPGHKFFPBNFHMM@@23@U?$_ki@$01$0HFDDMAFOABHJPEIN@@23@U?$_ki@$02$0?OEGLEDIDDJDBFKC@@23@@jm@@AEAAXPEB_KU?$integer_sequence@_K$0A@$00@std@@@Z 0000000140002ee0 f i main.obj
 0001:00001f00       ??$_crypt_128@$0A@@?$xor_string@U?$tstring_@$MD0DL@$MD0A@@detail@jm@@U?$_ki@$0A@$0HCOOBKMMOCNAJOD@@23@U?$_ki@$00$0FKDPGHKFFPBNFHMM@@23@@jm@@AEAAXPEB_KU?$integer_sequence@_K$0A@@std@@@Z 0000000140002f00 f i main.obj
 0001:00001f00       ??$_crypt_128@$0A@@?$xor_string@U?$tstring_@$MD0GE@$MD0GB@$MD0HE@$MD0GB@$MD0FP@$MD0GF@$MD0HC@$MD0HC@$MD0GP@$MD0HC@$MD0A@@detail@jm@@U?$_ki@$0A@$0FGELNIIFGEDAJMMF@@23@U?$_ki@$00$0DIILFICEGDJAMKJO@@23@@jm@@AEAAXPEB_KU?$integer_sequence@_K$0A@@std@@@Z 0000000140002f00 f i client.obj
 0001:00001f00       ??$_crypt_128@$0A@@?$xor_string@U?$tstring_@$M_W0HE@$M_W0GF@$M_W0HI@$M_W0HE@$M_W0CP@$M_W0CK@$M_W0A@@detail@jm@@U?$_ki@$0A@$0FGELNIIFGEDAJMMF@@23@U?$_ki@$00$0DIILFICEGDJAMKJO@@23@@jm@@AEAAXPEB_KU?$integer_sequence@_K$0A@@std@@@Z 0000000140002f00 f i utilities.obj
 0001:00001f00       ??$_crypt_128@$0A@@?$xor_string@U?$tstring_@$MD0EE@$MD0GB@$MD0HE@$MD0GB@$MD0CA@$MD0GL@$MD0GF@$MD0HJ@$MD0CA@$MD0GF@$MD0HC@$MD0HC@$MD0GP@$MD0HC@$MD0A@@detail@jm@@U?$_ki@$0A@$0HCOOBKMMOCNAJOD@@23@U?$_ki@$00$0FKDPGHKFFPBNFHMM@@23@@jm@@AEAAXPEB_KU?$integer_sequence@_K$0A@@std@@@Z 0000000140002f00 f i main.obj
 0001:00001f00       ??$_crypt_128@$0A@@?$xor_string@U?$tstring_@$MD0GE@$MD0GB@$MD0HE@$MD0GB@$MD0FP@$MD0GF@$MD0HC@$MD0HC@$MD0GP@$MD0HC@$MD0A@@detail@jm@@U?$_ki@$0A@$0HCOOBKMMOCNAJOD@@23@U?$_ki@$00$0FKDPGHKFFPBNFHMM@@23@@jm@@AEAAXPEB_KU?$integer_sequence@_K$0A@@std@@@Z 0000000140002f00 f i main.obj
 0001:00001f00       ??$_crypt_128@$0A@@?$xor_string@U?$tstring_@$MD0EE@$MD0GJ@$MD0HD@$MD0GB@$MD0GC@$MD0GM@$MD0GF@$MD0GE@$MD0A@@detail@jm@@U?$_ki@$0A@$0HCOOBKMMOCNAJOD@@23@U?$_ki@$00$0FKDPGHKFFPBNFHMM@@23@@jm@@AEAAXPEB_KU?$integer_sequence@_K$0A@@std@@@Z 0000000140002f00 f i main.obj
 0001:00001f00       ??$_crypt_128@$0A@@?$xor_string@U?$tstring_@$MD0HD@$MD0HF@$MD0GD@$MD0GD@$MD0GF@$MD0HD@$MD0HD@$MD0A@@detail@jm@@U?$_ki@$0A@$0FGELNIIFGEDAJMMF@@23@U?$_ki@$00$0DIILFICEGDJAMKJO@@23@@jm@@AEAAXPEB_KU?$integer_sequence@_K$0A@@std@@@Z 0000000140002f00 f i client.obj
 0001:00001f00       ??$_crypt_128@$0A@@?$xor_string@U?$tstring_@$MD0GB@$MD0GE@$MD0HG@$MD0GB@$MD0HA@$MD0GJ@$MD0DD@$MD0DC@$MD0CO@$MD0GE@$MD0GM@$MD0GM@$MD0A@@detail@jm@@U?$_ki@$0A@$0HCOOBKMMOCNAJOD@@23@U?$_ki@$00$0FKDPGHKFFPBNFHMM@@23@@jm@@AEAAXPEB_KU?$integer_sequence@_K$0A@@std@@@Z 0000000140002f00 f i main.obj
 0001:00001f00       ??$_crypt_128@$0A@@?$xor_string@U?$tstring_@$MD0FF@$MD0GO@$MD0GE@$MD0GF@$MD0HE@$MD0GF@$MD0GD@$MD0HE@$MD0GF@$MD0GE@$MD0A@@detail@jm@@U?$_ki@$0A@$0HCOOBKMMOCNAJOD@@23@U?$_ki@$00$0FKDPGHKFFPBNFHMM@@23@@jm@@AEAAXPEB_KU?$integer_sequence@_K$0A@@std@@@Z 0000000140002f00 f i main.obj
 0001:00001f00       ??$_crypt_128@$0A@@?$xor_string@U?$tstring_@$MD0HF@$MD0GO@$MD0GL@$MD0GO@$MD0GP@$MD0HH@$MD0GO@$MD0FP@$MD0GD@$MD0GI@$MD0GF@$MD0GB@$MD0HE@$MD0A@@detail@jm@@U?$_ki@$0A@$0HCOOBKMMOCNAJOD@@23@U?$_ki@$00$0FKDPGHKFFPBNFHMM@@23@@jm@@AEAAXPEB_KU?$integer_sequence@_K$0A@@std@@@Z 0000000140002f00 f i main.obj
 0001:00001f00       ??$_crypt_128@$0A@@?$xor_string@U?$tstring_@$MD0HF@$MD0HD@$MD0GF@$MD0HC@$MD0DD@$MD0DC@$MD0CO@$MD0GE@$MD0GM@$MD0GM@$MD0A@@detail@jm@@U?$_ki@$0A@$0HCOOBKMMOCNAJOD@@23@U?$_ki@$00$0FKDPGHKFFPBNFHMM@@23@@jm@@AEAAXPEB_KU?$integer_sequence@_K$0A@@std@@@Z 0000000140002f00 f i main.obj
 0001:00001f00       ??$_crypt_128@$0A@@?$xor_string@U?$tstring_@$MD0GJ@$MD0GO@$MD0HG@$MD0GB@$MD0GM@$MD0GJ@$MD0GE@$MD0FP@$MD0GL@$MD0GF@$MD0HJ@$MD0A@@detail@jm@@U?$_ki@$0A@$0HCOOBKMMOCNAJOD@@23@U?$_ki@$00$0FKDPGHKFFPBNFHMM@@23@@jm@@AEAAXPEB_KU?$integer_sequence@_K$0A@@std@@@Z 0000000140002f00 f i main.obj
 0001:00001f00       ??$_crypt_128@$0A@@?$xor_string@U?$tstring_@$MD0EB@$MD0GD@$MD0HE@$MD0GJ@$MD0HG@$MD0GB@$MD0HE@$MD0GF@$MD0A@@detail@jm@@U?$_ki@$0A@$0HCOOBKMMOCNAJOD@@23@U?$_ki@$00$0FKDPGHKFFPBNFHMM@@23@@jm@@AEAAXPEB_KU?$integer_sequence@_K$0A@@std@@@Z 0000000140002f00 f i main.obj
 0001:00001f00       ??$_crypt_128@$0A@@?$xor_string@U?$tstring_@$MD0EP@$MD0GO@$MD0CA@$MD0HF@$MD0HA@$MD0GE@$MD0GB@$MD0HE@$MD0GF@$MD0A@@detail@jm@@U?$_ki@$0A@$0HCOOBKMMOCNAJOD@@23@U?$_ki@$00$0FKDPGHKFFPBNFHMM@@23@@jm@@AEAAXPEB_KU?$integer_sequence@_K$0A@@std@@@Z 0000000140002f00 f i main.obj
 0001:00001f00       ??$_crypt_128@$0A@@?$xor_string@U?$tstring_@$MD0EC@$MD0GB@$MD0GO@$MD0GO@$MD0GF@$MD0GE@$MD0A@@detail@jm@@U?$_ki@$0A@$0HCOOBKMMOCNAJOD@@23@U?$_ki@$00$0FKDPGHKFFPBNFHMM@@23@@jm@@AEAAXPEB_KU?$integer_sequence@_K$0A@@std@@@Z 0000000140002f00 f i main.obj
 0001:00001f00       ??$_crypt_128@$0A@@?$xor_string@U?$tstring_@$MD0EM@$MD0GP@$MD0GB@$MD0GE@$MD0GF@$MD0HC@$MD0A@@detail@jm@@U?$_ki@$0A@$0FGELNIIFGEDAJMMF@@23@U?$_ki@$00$0DIILFICEGDJAMKJO@@23@@jm@@AEAAXPEB_KU?$integer_sequence@_K$0A@@std@@@Z 0000000140002f00 f i utilities.obj
 0001:00001f00       ??$_crypt_128@$0A@@?$xor_string@U?$tstring_@$MD0FF@$MD0GO@$MD0GL@$MD0GO@$MD0GP@$MD0HH@$MD0GO@$MD0CA@$MD0GD@$MD0GI@$MD0GF@$MD0GB@$MD0HE@$MD0A@@detail@jm@@U?$_ki@$0A@$0HCOOBKMMOCNAJOD@@23@U?$_ki@$00$0FKDPGHKFFPBNFHMM@@23@@jm@@AEAAXPEB_KU?$integer_sequence@_K$0A@@std@@@Z 0000000140002f00 f i main.obj
 0001:00001f00       ??$_crypt_128@$0A@@?$xor_string@U?$tstring_@$MD0DL@$MD0A@@detail@jm@@U?$_ki@$0A@$0FGELNIIFGEDAJMMF@@23@U?$_ki@$00$0DIILFICEGDJAMKJO@@23@@jm@@AEAAXPEB_KU?$integer_sequence@_K$0A@@std@@@Z 0000000140002f00 f i client.obj
 0001:00001f00       ??$_crypt_128@$0A@@?$xor_string@U?$tstring_@$MD0EF@$MD0GO@$MD0GB@$MD0GC@$MD0GM@$MD0GF@$MD0GE@$MD0A@@detail@jm@@U?$_ki@$0A@$0HCOOBKMMOCNAJOD@@23@U?$_ki@$00$0FKDPGHKFFPBNFHMM@@23@@jm@@AEAAXPEB_KU?$integer_sequence@_K$0A@@std@@@Z 0000000140002f00 f i main.obj
 0001:00001f00       ??$_crypt_128@$0A@@?$xor_string@U?$tstring_@$MD0EJ@$MD0GO@$MD0HG@$MD0GB@$MD0GM@$MD0GJ@$MD0GE@$MD0CA@$MD0GL@$MD0GF@$MD0HJ@$MD0A@@detail@jm@@U?$_ki@$0A@$0HCOOBKMMOCNAJOD@@23@U?$_ki@$00$0FKDPGHKFFPBNFHMM@@23@@jm@@AEAAXPEB_KU?$integer_sequence@_K$0A@@std@@@Z 0000000140002f00 f i main.obj
 0001:00001f00       ??$_crypt_128@$0A@@?$xor_string@U?$tstring_@$MD0CD@$MD0CD@$MD0GN@$MD0GB@$MD0GJ@$MD0GO@$MD0A@@detail@jm@@U?$_ki@$0A@$0HCOOBKMMOCNAJOD@@23@U?$_ki@$00$0FKDPGHKFFPBNFHMM@@23@@jm@@AEAAXPEB_KU?$integer_sequence@_K$0A@@std@@@Z 0000000140002f00 f i main.obj
 0001:00001f00       ??$_crypt_128@$0A@@?$xor_string@U?$tstring_@$MD0HH@$MD0HD@$MD0DC@$MD0FP@$MD0DD@$MD0DC@$MD0CO@$MD0GE@$MD0GM@$MD0GM@$MD0A@@detail@jm@@U?$_ki@$0A@$0HCOOBKMMOCNAJOD@@23@U?$_ki@$00$0FKDPGHKFFPBNFHMM@@23@@jm@@AEAAXPEB_KU?$integer_sequence@_K$0A@@std@@@Z 0000000140002f00 f i main.obj
 0001:00001f00       ??$_crypt_128@$0A@@?$xor_string@U?$tstring_@$MD0EB@$MD0HA@$MD0GF@$MD0HI@$MD0CA@$MD0EM@$MD0GF@$MD0GH@$MD0GF@$MD0GO@$MD0GE@$MD0HD@$MD0A@@detail@jm@@U?$_ki@$0A@$0HCOOBKMMOCNAJOD@@23@U?$_ki@$00$0FKDPGHKFFPBNFHMM@@23@@jm@@AEAAXPEB_KU?$integer_sequence@_K$0A@@std@@@Z 0000000140002f00 f i main.obj
 0001:00001f00       ??$_crypt_128@$0A@@?$xor_string@U?$tstring_@$MD0GJ@$MD0GO@$MD0HE@$MD0GF@$MD0HC@$MD0GO@$MD0GB@$MD0GM@$MD0FP@$MD0GF@$MD0HC@$MD0HC@$MD0GP@$MD0HC@$MD0A@@detail@jm@@U?$_ki@$0A@$0FGELNIIFGEDAJMMF@@23@U?$_ki@$00$0DIILFICEGDJAMKJO@@23@@jm@@AEAAXPEB_KU?$integer_sequence@_K$0A@@std@@@Z 0000000140002f00 f i client.obj
 0001:00001f00       ??$_crypt_128@$0A@@?$xor_string@U?$tstring_@$MD0GI@$MD0GB@$MD0HC@$MD0HF@$MD0GO@$MD0GB@$MD0DH@$MD0DH@$MD0DH@$MD0DH@$MD0CO@$MD0GD@$MD0GP@$MD0GN@$MD0A@@detail@jm@@U?$_ki@$0A@$0HCOOBKMMOCNAJOD@@23@U?$_ki@$00$0FKDPGHKFFPBNFHMM@@23@@jm@@AEAAXPEB_KU?$integer_sequence@_K$0A@@std@@@Z 0000000140002f00 f i main.obj
 0001:00001f00       ??$_crypt_128@$0A@@?$xor_string@U?$tstring_@$MD0GB@$MD0GE@$MD0HG@$MD0GB@$MD0HA@$MD0GJ@$MD0DD@$MD0DC@$MD0CO@$MD0GE@$MD0GM@$MD0GM@$MD0A@@detail@jm@@U?$_ki@$0A@$0FGELNIIFGEDAJMMF@@23@U?$_ki@$00$0DIILFICEGDJAMKJO@@23@@jm@@AEAAXPEB_KU?$integer_sequence@_K$0A@@std@@@Z 0000000140002f00 f i utilities.obj
 0001:00001f00       ??$_crypt_128@$0A@@?$xor_string@U?$tstring_@$MD0FE@$MD0GF@$MD0GD@$MD0GI@$MD0GO@$MD0GJ@$MD0GD@$MD0GB@$MD0GM@$MD0CA@$MD0HH@$MD0GP@$MD0HC@$MD0GL@$MD0A@@detail@jm@@U?$_ki@$0A@$0HCOOBKMMOCNAJOD@@23@U?$_ki@$00$0FKDPGHKFFPBNFHMM@@23@@jm@@AEAAXPEB_KU?$integer_sequence@_K$0A@@std@@@Z 0000000140002f00 f i main.obj
 0001:00001f00       ??$_crypt_128@$0A@@?$xor_string@U?$tstring_@$M_W0FA@$M_W0EP@$M_W0FD@$M_W0FE@$M_W0A@@detail@jm@@U?$_ki@$0A@$0FGELNIIFGEDAJMMF@@23@U?$_ki@$00$0DIILFICEGDJAMKJO@@23@@jm@@AEAAXPEB_KU?$integer_sequence@_K$0A@@std@@@Z 0000000140002f00 f i utilities.obj
 0001:00001f00       ??$_crypt_128@$0A@@?$xor_string@U?$tstring_@$MD0EL@$MD0GF@$MD0HJ@$MD0A@@detail@jm@@U?$_ki@$0A@$0HCOOBKMMOCNAJOD@@23@U?$_ki@$00$0FKDPGHKFFPBNFHMM@@23@@jm@@AEAAXPEB_KU?$integer_sequence@_K$0A@@std@@@Z 0000000140002f00 f i main.obj
 0001:00001f00       ??$_crypt_128@$0A@@?$xor_string@U?$tstring_@$MD0CD@$MD0CD@$MD0GD@$MD0GM@$MD0GP@$MD0HD@$MD0GF@$MD0A@@detail@jm@@U?$_ki@$0A@$0HCOOBKMMOCNAJOD@@23@U?$_ki@$00$0FKDPGHKFFPBNFHMM@@23@@jm@@AEAAXPEB_KU?$integer_sequence@_K$0A@@std@@@Z 0000000140002f00 f i main.obj
 0001:00001f00       ??$_crypt_128@$0A@@?$xor_string@U?$tstring_@$MD0A@@detail@jm@@U?$_ki@$0A@$0FGELNIIFGEDAJMMF@@23@U?$_ki@$00$0DIILFICEGDJAMKJO@@23@@jm@@AEAAXPEB_KU?$integer_sequence@_K$0A@@std@@@Z 0000000140002f00 f i utilities.obj
 0001:00001f00       ??$_crypt_128@$0A@@?$xor_string@U?$tstring_@$MD0EM@$MD0GP@$MD0GB@$MD0GE@$MD0GF@$MD0HC@$MD0A@@detail@jm@@U?$_ki@$0A@$0HCOOBKMMOCNAJOD@@23@U?$_ki@$00$0FKDPGHKFFPBNFHMM@@23@@jm@@AEAAXPEB_KU?$integer_sequence@_K$0A@@std@@@Z 0000000140002f00 f i main.obj
 0001:00001f00       ??$_crypt_128@$0A@@?$xor_string@U?$tstring_@$MD0CD@$MD0CD@$MD0GM@$MD0GP@$MD0GB@$MD0GE@$MD0GF@$MD0HC@$MD0A@@detail@jm@@U?$_ki@$0A@$0HCOOBKMMOCNAJOD@@23@U?$_ki@$00$0FKDPGHKFFPBNFHMM@@23@@jm@@AEAAXPEB_KU?$integer_sequence@_K$0A@@std@@@Z 0000000140002f00 f i main.obj
 0001:00001f00       ??$_crypt_128@$0A@@?$xor_string@U?$tstring_@$MD0EB@$MD0ED@$MD0FE@$MD0EJ@$MD0FG@$MD0EB@$MD0FE@$MD0EJ@$MD0EP@$MD0EO@$MD0A@@detail@jm@@U?$_ki@$0A@$0HCOOBKMMOCNAJOD@@23@U?$_ki@$00$0FKDPGHKFFPBNFHMM@@23@@jm@@AEAAXPEB_KU?$integer_sequence@_K$0A@@std@@@Z 0000000140002f00 f i main.obj
 0001:00001f00       ??$_crypt_128@$0A@@?$xor_string@U?$tstring_@$MD0CD@$MD0CD@$MD0GI@$MD0GJ@$MD0GE@$MD0GF@$MD0A@@detail@jm@@U?$_ki@$0A@$0HCOOBKMMOCNAJOD@@23@U?$_ki@$00$0FKDPGHKFFPBNFHMM@@23@@jm@@AEAAXPEB_KU?$integer_sequence@_K$0A@@std@@@Z 0000000140002f00 f i main.obj
 0001:00001f00       ??$_crypt_128@$0A@@?$xor_string@U?$tstring_@$MD0DA@$MD0CO@$MD0DA@$MD0DB@$MD0A@@detail@jm@@U?$_ki@$0A@$0HCOOBKMMOCNAJOD@@23@U?$_ki@$00$0FKDPGHKFFPBNFHMM@@23@@jm@@AEAAXPEB_KU?$integer_sequence@_K$0A@@std@@@Z 0000000140002f00 f i main.obj
 0001:00001f00       ??$_crypt_128@$0A@@?$xor_string@U?$tstring_@$MD0GC@$MD0GB@$MD0GO@$MD0GO@$MD0GF@$MD0GE@$MD0A@@detail@jm@@U?$_ki@$0A@$0HCOOBKMMOCNAJOD@@23@U?$_ki@$00$0FKDPGHKFFPBNFHMM@@23@@jm@@AEAAXPEB_KU?$integer_sequence@_K$0A@@std@@@Z 0000000140002f00 f i main.obj
 0001:00001f00       ??$_crypt_128@$0A@@?$xor_string@U?$tstring_@$MD0CD@$MD0CD@$MD0GN@$MD0GB@$MD0GJ@$MD0GO@$MD0GO@$MD0GP@$MD0HE@$MD0GJ@$MD0GG@$MD0HJ@$MD0A@@detail@jm@@U?$_ki@$0A@$0HCOOBKMMOCNAJOD@@23@U?$_ki@$00$0FKDPGHKFFPBNFHMM@@23@@jm@@AEAAXPEB_KU?$integer_sequence@_K$0A@@std@@@Z 0000000140002f00 f i main.obj
 0001:00001f00       ??$_crypt_128@$0A@@?$xor_string@U?$tstring_@$MD0HD@$MD0HF@$MD0GD@$MD0GD@$MD0GF@$MD0HD@$MD0HD@$MD0A@@detail@jm@@U?$_ki@$0A@$0HCOOBKMMOCNAJOD@@23@U?$_ki@$00$0FKDPGHKFFPBNFHMM@@23@@jm@@AEAAXPEB_KU?$integer_sequence@_K$0A@@std@@@Z 0000000140002f00 f i main.obj
 0001:00001f00       ??$_crypt_128@$0A@@?$xor_string@U?$tstring_@$MD0CD@$MD0CD@$MD0EL@$MD0GF@$MD0HJ@$MD0A@@detail@jm@@U?$_ki@$0A@$0HCOOBKMMOCNAJOD@@23@U?$_ki@$00$0FKDPGHKFFPBNFHMM@@23@@jm@@AEAAXPEB_KU?$integer_sequence@_K$0A@@std@@@Z 0000000140002f00 f i main.obj
 0001:00001f10       ??$_Reallocate_for@V<lambda_66f57f934f28d61049862f64df852ff0>@@PEBD@?$basic_string@DU?$char_traits@D@std@@V?$allocator@D@2@@std@@AEAAAEAV01@_KV<lambda_66f57f934f28d61049862f64df852ff0>@@PEBD@Z 0000000140002f10 f i client.obj
 0001:00001fe0       ??$_Construct_in_place@PEADAEBQEAD@std@@YAXAEAPEADAEBQEAD@Z 0000000140002fe0 f i client.obj
 0001:00001fe0       ??$_Construct_in_place@PEA_WAEBQEA_W@std@@YAXAEAPEA_WAEBQEA_W@Z 0000000140002fe0 f i utilities.obj
 0001:00002020       ??$_Allocate@$0BA@U_Default_allocate_traits@std@@$0A@@std@@YAPEAX_K@Z 0000000140003020 f i client.obj
 0001:00002040       ??$_Deallocate@$0BA@$0A@@std@@YAXPEAX_K@Z 0000000140003040 f i client.obj
 0001:00002080       ??$_Destroy_range@V?$allocator@V?$basic_string@DU?$char_traits@D@std@@V?$allocator@D@2@@std@@@std@@@std@@YAXPEAV?$basic_string@DU?$char_traits@D@std@@V?$allocator@D@2@@0@QEAV10@AEAV?$allocator@V?$basic_string@DU?$char_traits@D@std@@V?$allocator@D@2@@std@@@0@@Z 0000000140003080 f i client.obj
 0001:000020c0       ?_crypt_128_single@?$xor_string@U?$tstring_@$MD0CD@$MD0CD@$MD0GN@$MD0GB@$MD0GJ@$MD0GO@$MD0GO@$MD0GP@$MD0HE@$MD0GJ@$MD0GG@$MD0HJ@$MD0A@@detail@jm@@U?$_ki@$0A@$0HCOOBKMMOCNAJOD@@23@U?$_ki@$00$0FKDPGHKFFPBNFHMM@@23@@jm@@AEAAXPEB_KPEA_K@Z 00000001400030c0 f i main.obj
 0001:000020c0       ?_crypt_128_single@?$xor_string@U?$tstring_@$MD0EM@$MD0GP@$MD0GB@$MD0GE@$MD0GF@$MD0HC@$MD0A@@detail@jm@@U?$_ki@$0A@$0HCOOBKMMOCNAJOD@@23@U?$_ki@$00$0FKDPGHKFFPBNFHMM@@23@@jm@@AEAAXPEB_KPEA_K@Z 00000001400030c0 f i main.obj
 0001:000020c0       ?_crypt_128_single@?$xor_string@U?$tstring_@$MD0EM@$MD0GP@$MD0GB@$MD0GE@$MD0GF@$MD0HC@$MD0CA@$MD0GJ@$MD0HD@$MD0CA@$MD0GD@$MD0HF@$MD0HC@$MD0HC@$MD0GF@$MD0GO@$MD0HE@$MD0GM@$MD0HJ@$MD0CA@$MD0GJ@$MD0HD@$MD0CA@$MD0GE@$MD0GJ@$MD0HD@$MD0GB@$MD0GC@$MD0GM@$MD0GF@$MD0GE@$MD0CM@$MD0CA@$MD0HD@$MD0GP@$MD0HC@$MD0HC@$MD0HJ@$MD0CA@$MD0GG@$MD0GP@$MD0HC@$MD0CA@$MD0HE@$MD0GI@$MD0GF@$MD0CA@$MD0GJ@$MD0GO@$MD0GD@$MD0GP@$MD0GO@$MD0HG@$MD0GF@$MD0GO@$MD0GJ@$MD0GF@$MD0GO@$MD0GD@$MD0GF@$MD0A@@detail@jm@@U?$_ki@$0A@$0HCOOBKMMOCNAJOD@@23@U?$_ki@$00$0FKDPGHKFFPBNFHMM@@23@U?$_ki@$01$0HFDDMAFOABHJPEIN@@23@U?$_ki@$02$0?OEGLEDIDDJDBFKC@@23@U?$_ki@$03$0?FJOKKNGHCGFMEEMJ@@23@U?$_ki@$04$0BOMKEJOBNILEEDAA@@23@U?$_ki@$05$0DMFPPHGKMCGLCLEB@@23@U?$_ki@$06$0GDCAEGMDDHFPNBHC@@23@@jm@@AEAAXPEB_KPEA_K@Z 00000001400030c0 f i main.obj
 0001:000020c0       ?_crypt_128_single@?$xor_string@U?$tstring_@$MD0EF@$MD0HI@$MD0HA@$MD0GJ@$MD0HC@$MD0GF@$MD0GE@$MD0CA@$MD0HD@$MD0HF@$MD0GC@$MD0HD@$MD0GD@$MD0HC@$MD0GJ@$MD0GC@$MD0GF@$MD0A@@detail@jm@@U?$_ki@$0A@$0HCOOBKMMOCNAJOD@@23@U?$_ki@$00$0FKDPGHKFFPBNFHMM@@23@U?$_ki@$01$0HFDDMAFOABHJPEIN@@23@U?$_ki@$02$0?OEGLEDIDDJDBFKC@@23@@jm@@AEAAXPEB_KPEA_K@Z 00000001400030c0 f i main.obj
 0001:000020c0       ?_crypt_128_single@?$xor_string@U?$tstring_@$MD0HF@$MD0HD@$MD0GF@$MD0HC@$MD0DD@$MD0DC@$MD0CO@$MD0GE@$MD0GM@$MD0GM@$MD0A@@detail@jm@@U?$_ki@$0A@$0HCOOBKMMOCNAJOD@@23@U?$_ki@$00$0FKDPGHKFFPBNFHMM@@23@@jm@@AEAAXPEB_KPEA_K@Z 00000001400030c0 f i main.obj
 0001:000020c0       ?_crypt_128_single@?$xor_string@U?$tstring_@$MD0HD@$MD0HF@$MD0GD@$MD0GD@$MD0GF@$MD0HD@$MD0HD@$MD0A@@detail@jm@@U?$_ki@$0A@$0HCOOBKMMOCNAJOD@@23@U?$_ki@$00$0FKDPGHKFFPBNFHMM@@23@@jm@@AEAAXPEB_KPEA_K@Z 00000001400030c0 f i main.obj
 0001:000020c0       ?_crypt_128_single@?$xor_string@U?$tstring_@$MD0ED@$MD0GI@$MD0GF@$MD0GB@$MD0HE@$MD0CA@$MD0GJ@$MD0HD@$MD0CA@$MD0GD@$MD0HF@$MD0HC@$MD0HC@$MD0GF@$MD0GO@$MD0HE@$MD0GM@$MD0HJ@$MD0CA@$MD0GE@$MD0GJ@$MD0HD@$MD0GB@$MD0GC@$MD0GM@$MD0GF@$MD0GE@$MD0CM@$MD0CA@$MD0HD@$MD0GP@$MD0HC@$MD0HC@$MD0HJ@$MD0CA@$MD0GG@$MD0GP@$MD0HC@$MD0CA@$MD0HE@$MD0GI@$MD0GF@$MD0CA@$MD0GJ@$MD0GO@$MD0GD@$MD0GP@$MD0GO@$MD0HG@$MD0GF@$MD0GO@$MD0GJ@$MD0GF@$MD0GO@$MD0GD@$MD0GF@$MD0A@@detail@jm@@U?$_ki@$0A@$0HCOOBKMMOCNAJOD@@23@U?$_ki@$00$0FKDPGHKFFPBNFHMM@@23@U?$_ki@$01$0HFDDMAFOABHJPEIN@@23@U?$_ki@$02$0?OEGLEDIDDJDBFKC@@23@U?$_ki@$03$0?FJOKKNGHCGFMEEMJ@@23@U?$_ki@$04$0BOMKEJOBNILEEDAA@@23@U?$_ki@$05$0DMFPPHGKMCGLCLEB@@23@U?$_ki@$06$0GDCAEGMDDHFPNBHC@@23@@jm@@AEAAXPEB_KPEA_K@Z 00000001400030c0 f i main.obj
 0001:000020c0       ?_crypt_128_single@?$xor_string@U?$tstring_@$MD0CP@$MD0GD@$MD0GM@$MD0GJ@$MD0GF@$MD0GO@$MD0HE@$MD0CP@$MD0GB@$MD0HF@$MD0HE@$MD0GI@$MD0GF@$MD0GO@$MD0HE@$MD0GJ@$MD0GD@$MD0GB@$MD0HE@$MD0GJ@$MD0GP@$MD0GO@$MD0CO@$MD0HA@$MD0GI@$MD0HA@$MD0DP@$MD0GB@$MD0DN@$MD0CF@$MD0HD@$MD0CG@$MD0GC@$MD0DN@$MD0CF@$MD0HD@$MD0A@@detail@jm@@U?$_ki@$0A@$0FGELNIIFGEDAJMMF@@23@U?$_ki@$00$0DIILFICEGDJAMKJO@@23@U?$_ki@$01$0HDEJOBALFGABNLNP@@23@U?$_ki@$02$0DIHBIPDCOBOGOMAA@@23@U?$_ki@$03$0?FMGNNDKGMCFHANHH@@23@U?$_ki@$04$0FGMEFHEIHNMGKDLC@@23@@jm@@AEAAXPEB_KPEA_K@Z 00000001400030c0 f i client.obj
 0001:000020c0       ?_crypt_128_single@?$xor_string@U?$tstring_@$MD0CD@$MD0CD@$MD0GN@$MD0GB@$MD0GJ@$MD0GO@$MD0A@@detail@jm@@U?$_ki@$0A@$0HCOOBKMMOCNAJOD@@23@U?$_ki@$00$0FKDPGHKFFPBNFHMM@@23@@jm@@AEAAXPEB_KPEA_K@Z 00000001400030c0 f i main.obj
 0001:000020c0       ?_crypt_128_single@?$xor_string@U?$tstring_@$MD0EB@$MD0GD@$MD0HE@$MD0GJ@$MD0HG@$MD0GB@$MD0HE@$MD0GF@$MD0A@@detail@jm@@U?$_ki@$0A@$0HCOOBKMMOCNAJOD@@23@U?$_ki@$00$0FKDPGHKFFPBNFHMM@@23@@jm@@AEAAXPEB_KPEA_K@Z 00000001400030c0 f i main.obj
 0001:000020c0       ?_crypt_128_single@?$xor_string@U?$tstring_@$MD0HA@$MD0GP@$MD0GH@$MD0HG@$MD0GC@$MD0HF@$MD0GG@$MD0HA@$MD0GD@$MD0HF@$MD0HD@$MD0GN@$MD0GG@$MD0HE@$MD0HC@$MD0HF@$MD0HC@$MD0HC@$MD0HD@$MD0HK@$MD0HJ@$MD0GD@$MD0GG@$MD0GF@$MD0GG@$MD0GI@$MD0GJ@$MD0GE@$MD0HG@$MD0GE@$MD0GG@$MD0HD@$MD0A@@detail@jm@@U?$_ki@$0A@$0FGELNIIFGEDAJMMF@@23@U?$_ki@$00$0DIILFICEGDJAMKJO@@23@U?$_ki@$01$0HDEJOBALFGABNLNP@@23@U?$_ki@$02$0DIHBIPDCOBOGOMAA@@23@U?$_ki@$03$0?FMGNNDKGMCFHANHH@@23@U?$_ki@$04$0FGMEFHEIHNMGKDLC@@23@@jm@@AEAAXPEB_KPEA_K@Z 00000001400030c0 f i client.obj
 0001:000020c0       ?_crypt_128_single@?$xor_string@U?$tstring_@$M_W0FA@$M_W0EP@$M_W0FD@$M_W0FE@$M_W0A@@detail@jm@@U?$_ki@$0A@$0FGELNIIFGEDAJMMF@@23@U?$_ki@$00$0DIILFICEGDJAMKJO@@23@@jm@@AEAAXPEB_KPEA_K@Z 00000001400030c0 f i utilities.obj
 0001:000020c0       ?_crypt_128_single@?$xor_string@U?$tstring_@$MD0ED@$MD0GI@$MD0GF@$MD0GB@$MD0HE@$MD0CA@$MD0GJ@$MD0HD@$MD0CA@$MD0GD@$MD0HF@$MD0HC@$MD0HC@$MD0GF@$MD0GO@$MD0HE@$MD0GM@$MD0HJ@$MD0CA@$MD0GP@$MD0GO@$MD0CA@$MD0HF@$MD0HA@$MD0GE@$MD0GB@$MD0HE@$MD0GF@$MD0CM@$MD0CA@$MD0HD@$MD0GP@$MD0HC@$MD0HC@$MD0HJ@$MD0CA@$MD0GG@$MD0GP@$MD0HC@$MD0CA@$MD0HE@$MD0GI@$MD0GF@$MD0CA@$MD0GJ@$MD0GO@$MD0GD@$MD0GP@$MD0GO@$MD0HG@$MD0GF@$MD0GO@$MD0GJ@$MD0GF@$MD0GO@$MD0GD@$MD0GF@$MD0A@@detail@jm@@U?$_ki@$0A@$0HCOOBKMMOCNAJOD@@23@U?$_ki@$00$0FKDPGHKFFPBNFHMM@@23@U?$_ki@$01$0HFDDMAFOABHJPEIN@@23@U?$_ki@$02$0?OEGLEDIDDJDBFKC@@23@U?$_ki@$03$0?FJOKKNGHCGFMEEMJ@@23@U?$_ki@$04$0BOMKEJOBNILEEDAA@@23@U?$_ki@$05$0DMFPPHGKMCGLCLEB@@23@U?$_ki@$06$0GDCAEGMDDHFPNBHC@@23@@jm@@AEAAXPEB_KPEA_K@Z 00000001400030c0 f i main.obj
 0001:000020c0       ?_crypt_128_single@?$xor_string@U?$tstring_@$MD0GJ@$MD0GO@$MD0GD@$MD0GP@$MD0HC@$MD0HC@$MD0GF@$MD0GD@$MD0HE@$MD0FP@$MD0HG@$MD0GF@$MD0HC@$MD0HD@$MD0GJ@$MD0GP@$MD0GO@$MD0A@@detail@jm@@U?$_ki@$0A@$0FGELNIIFGEDAJMMF@@23@U?$_ki@$00$0DIILFICEGDJAMKJO@@23@U?$_ki@$01$0HDEJOBALFGABNLNP@@23@U?$_ki@$02$0DIHBIPDCOBOGOMAA@@23@@jm@@AEAAXPEB_KPEA_K@Z 00000001400030c0 f i client.obj
 0001:000020c0       ?_crypt_128_single@?$xor_string@U?$tstring_@$M_W0HE@$M_W0GF@$M_W0HI@$M_W0HE@$M_W0CP@$M_W0CK@$M_W0A@@detail@jm@@U?$_ki@$0A@$0FGELNIIFGEDAJMMF@@23@U?$_ki@$00$0DIILFICEGDJAMKJO@@23@@jm@@AEAAXPEB_KPEA_K@Z 00000001400030c0 f i utilities.obj
 0001:000020c0       ?_crypt_128_single@?$xor_string@U?$tstring_@$MD0CP@$MD0GD@$MD0GM@$MD0GJ@$MD0GF@$MD0GO@$MD0HE@$MD0CP@$MD0GB@$MD0GD@$MD0HE@$MD0GJ@$MD0HG@$MD0GB@$MD0HE@$MD0GJ@$MD0GP@$MD0GO@$MD0CO@$MD0HA@$MD0GI@$MD0HA@$MD0DP@$MD0GB@$MD0DN@$MD0CF@$MD0HD@$MD0CG@$MD0GC@$MD0DN@$MD0CF@$MD0HD@$MD0A@@detail@jm@@U?$_ki@$0A@$0FGELNIIFGEDAJMMF@@23@U?$_ki@$00$0DIILFICEGDJAMKJO@@23@U?$_ki@$01$0HDEJOBALFGABNLNP@@23@U?$_ki@$02$0DIHBIPDCOBOGOMAA@@23@U?$_ki@$03$0?FMGNNDKGMCFHANHH@@23@U?$_ki@$04$0FGMEFHEIHNMGKDLC@@23@@jm@@AEAAXPEB_KPEA_K@Z 00000001400030c0 f i client.obj
 0001:000020c0       ?_crypt_128_single@?$xor_string@U?$tstring_@$MD0HH@$MD0HD@$MD0DC@$MD0FP@$MD0DD@$MD0DC@$MD0CO@$MD0GE@$MD0GM@$MD0GM@$MD0A@@detail@jm@@U?$_ki@$0A@$0HCOOBKMMOCNAJOD@@23@U?$_ki@$00$0FKDPGHKFFPBNFHMM@@23@@jm@@AEAAXPEB_KPEA_K@Z 00000001400030c0 f i main.obj
 0001:000020c0       ?_crypt_128_single@?$xor_string@U?$tstring_@$MD0DL@$MD0A@@detail@jm@@U?$_ki@$0A@$0HCOOBKMMOCNAJOD@@23@U?$_ki@$00$0FKDPGHKFFPBNFHMM@@23@@jm@@AEAAXPEB_KPEA_K@Z 00000001400030c0 f i main.obj
 0001:000020c0       ?_crypt_128_single@?$xor_string@U?$tstring_@$MD0EC@$MD0GB@$MD0GO@$MD0GO@$MD0GF@$MD0GE@$MD0A@@detail@jm@@U?$_ki@$0A@$0HCOOBKMMOCNAJOD@@23@U?$_ki@$00$0FKDPGHKFFPBNFHMM@@23@@jm@@AEAAXPEB_KPEA_K@Z 00000001400030c0 f i main.obj
 0001:000020c0       ?_crypt_128_single@?$xor_string@U?$tstring_@$MD0GI@$MD0GB@$MD0HC@$MD0HF@$MD0GO@$MD0GB@$MD0DH@$MD0DH@$MD0DH@$MD0DH@$MD0CO@$MD0GD@$MD0GP@$MD0GN@$MD0A@@detail@jm@@U?$_ki@$0A@$0HCOOBKMMOCNAJOD@@23@U?$_ki@$00$0FKDPGHKFFPBNFHMM@@23@@jm@@AEAAXPEB_KPEA_K@Z 00000001400030c0 f i main.obj
 0001:000020c0       ?_crypt_128_single@?$xor_string@U?$tstring_@$MD0EB@$MD0ED@$MD0FE@$MD0EJ@$MD0FG@$MD0EB@$MD0FE@$MD0EJ@$MD0EP@$MD0EO@$MD0A@@detail@jm@@U?$_ki@$0A@$0HCOOBKMMOCNAJOD@@23@U?$_ki@$00$0FKDPGHKFFPBNFHMM@@23@@jm@@AEAAXPEB_KPEA_K@Z 00000001400030c0 f i main.obj
 0001:000020c0       ?_crypt_128_single@?$xor_string@U?$tstring_@$MD0DA@$MD0CO@$MD0DA@$MD0DB@$MD0A@@detail@jm@@U?$_ki@$0A@$0HCOOBKMMOCNAJOD@@23@U?$_ki@$00$0FKDPGHKFFPBNFHMM@@23@@jm@@AEAAXPEB_KPEA_K@Z 00000001400030c0 f i main.obj
 0001:000020c0       ?_crypt_128_single@?$xor_string@U?$tstring_@$MD0CD@$MD0CD@$MD0GM@$MD0GP@$MD0GB@$MD0GE@$MD0GF@$MD0HC@$MD0A@@detail@jm@@U?$_ki@$0A@$0HCOOBKMMOCNAJOD@@23@U?$_ki@$00$0FKDPGHKFFPBNFHMM@@23@@jm@@AEAAXPEB_KPEA_K@Z 00000001400030c0 f i main.obj
 0001:000020c0       ?_crypt_128_single@?$xor_string@U?$tstring_@$MD0DA@$MD0DB@$MD0DC@$MD0DD@$MD0DE@$MD0DF@$MD0DG@$MD0DH@$MD0DI@$MD0DJ@$MD0GB@$MD0GC@$MD0GD@$MD0GE@$MD0GF@$MD0GG@$MD0GH@$MD0GI@$MD0GJ@$MD0GK@$MD0GL@$MD0GM@$MD0GN@$MD0GO@$MD0GP@$MD0HA@$MD0HB@$MD0HC@$MD0HD@$MD0HE@$MD0HF@$MD0HG@$MD0HH@$MD0HI@$MD0HJ@$MD0HK@$MD0EB@$MD0EC@$MD0ED@$MD0EE@$MD0EF@$MD0EG@$MD0EH@$MD0EI@$MD0EJ@$MD0EK@$MD0EL@$MD0EM@$MD0EN@$MD0EO@$MD0EP@$MD0FA@$MD0FB@$MD0FC@$MD0FD@$MD0FE@$MD0FF@$MD0FG@$MD0FH@$MD0FI@$MD0FJ@$MD0FK@$MD0A@@detail@jm@@U?$_ki@$0A@$0FGELNIIFGEDAJMMF@@23@U?$_ki@$00$0DIILFICEGDJAMKJO@@23@U?$_ki@$01$0HDEJOBALFGABNLNP@@23@U?$_ki@$02$0DIHBIPDCOBOGOMAA@@23@U?$_ki@$03$0?FMGNNDKGMCFHANHH@@23@U?$_ki@$04$0FGMEFHEIHNMGKDLC@@23@U?$_ki@$05$0FIJLAGBPDFGNAJHD@@23@U?$_ki@$06$0BDEFKKNGEFMCLNFE@@23@@jm@@AEAAXPEB_KPEA_K@Z 00000001400030c0 f i utilities.obj
 0001:000020c0       ?_crypt_128_single@?$xor_string@U?$tstring_@$MD0GJ@$MD0GO@$MD0HG@$MD0GB@$MD0GM@$MD0GJ@$MD0GE@$MD0FP@$MD0GL@$MD0GF@$MD0HJ@$MD0A@@detail@jm@@U?$_ki@$0A@$0HCOOBKMMOCNAJOD@@23@U?$_ki@$00$0FKDPGHKFFPBNFHMM@@23@@jm@@AEAAXPEB_KPEA_K@Z 00000001400030c0 f i main.obj
 0001:000020c0       ?_crypt_128_single@?$xor_string@U?$tstring_@$MD0EL@$MD0GF@$MD0HJ@$MD0A@@detail@jm@@U?$_ki@$0A@$0HCOOBKMMOCNAJOD@@23@U?$_ki@$00$0FKDPGHKFFPBNFHMM@@23@@jm@@AEAAXPEB_KPEA_K@Z 00000001400030c0 f i main.obj
 0001:000020c0       ?_crypt_128_single@?$xor_string@U?$tstring_@$MD0EL@$MD0GF@$MD0HJ@$MD0CA@$MD0HD@$MD0HF@$MD0GD@$MD0GD@$MD0GF@$MD0HD@$MD0HD@$MD0GG@$MD0HF@$MD0GM@$MD0GM@$MD0HJ@$MD0CA@$MD0GB@$MD0GD@$MD0HE@$MD0GJ@$MD0HG@$MD0GB@$MD0HE@$MD0GF@$MD0GE@$MD0CO@$MD0CA@$MD0EF@$MD0HI@$MD0HA@$MD0GF@$MD0GD@$MD0HE@$MD0CO@$MD0CO@$MD0CO@$MD0A@@detail@jm@@U?$_ki@$0A@$0HCOOBKMMOCNAJOD@@23@U?$_ki@$00$0FKDPGHKFFPBNFHMM@@23@U?$_ki@$01$0HFDDMAFOABHJPEIN@@23@U?$_ki@$02$0?OEGLEDIDDJDBFKC@@23@U?$_ki@$03$0?FJOKKNGHCGFMEEMJ@@23@U?$_ki@$04$0BOMKEJOBNILEEDAA@@23@@jm@@AEAAXPEB_KPEA_K@Z 00000001400030c0 f i main.obj
 0001:000020c0       ?_crypt_128_single@?$xor_string@U?$tstring_@$MD0EM@$MD0GP@$MD0GB@$MD0GE@$MD0GF@$MD0HC@$MD0A@@detail@jm@@U?$_ki@$0A@$0FGELNIIFGEDAJMMF@@23@U?$_ki@$00$0DIILFICEGDJAMKJO@@23@@jm@@AEAAXPEB_KPEA_K@Z 00000001400030c0 f i utilities.obj
 0001:000020c0       ?_crypt_128_single@?$xor_string@U?$tstring_@$MD0GB@$MD0GE@$MD0HG@$MD0GB@$MD0HA@$MD0GJ@$MD0DD@$MD0DC@$MD0CO@$MD0GE@$MD0GM@$MD0GM@$MD0A@@detail@jm@@U?$_ki@$0A@$0HCOOBKMMOCNAJOD@@23@U?$_ki@$00$0FKDPGHKFFPBNFHMM@@23@@jm@@AEAAXPEB_KPEA_K@Z 00000001400030c0 f i main.obj
 0001:000020c0       ?_crypt_128_single@?$xor_string@U?$tstring_@$MD0EJ@$MD0GO@$MD0HG@$MD0GB@$MD0GM@$MD0GJ@$MD0GE@$MD0CA@$MD0GL@$MD0GF@$MD0HJ@$MD0A@@detail@jm@@U?$_ki@$0A@$0HCOOBKMMOCNAJOD@@23@U?$_ki@$00$0FKDPGHKFFPBNFHMM@@23@@jm@@AEAAXPEB_KPEA_K@Z 00000001400030c0 f i main.obj
 0001:000020c0       ?_crypt_128_single@?$xor_string@U?$tstring_@$MD0GL@$MD0HD@$MD0HA@$MD0GH@$MD0HJ@$MD0HH@$MD0GK@$MD0GB@$MD0GM@$MD0GE@$MD0HK@$MD0GH@$MD0HH@$MD0HA@$MD0GI@$MD0GO@$MD0A@@detail@jm@@U?$_ki@$0A@$0FGELNIIFGEDAJMMF@@23@U?$_ki@$00$0DIILFICEGDJAMKJO@@23@U?$_ki@$01$0HDEJOBALFGABNLNP@@23@U?$_ki@$02$0DIHBIPDCOBOGOMAA@@23@@jm@@AEAAXPEB_KPEA_K@Z 00000001400030c0 f i client.obj
 0001:000020c0       ?_crypt_128_single@?$xor_string@U?$tstring_@$MD0GE@$MD0GB@$MD0HE@$MD0GB@$MD0FP@$MD0GF@$MD0HC@$MD0HC@$MD0GP@$MD0HC@$MD0A@@detail@jm@@U?$_ki@$0A@$0HCOOBKMMOCNAJOD@@23@U?$_ki@$00$0FKDPGHKFFPBNFHMM@@23@@jm@@AEAAXPEB_KPEA_K@Z 00000001400030c0 f i main.obj
 0001:000020c0       ?_crypt_128_single@?$xor_string@U?$tstring_@$M_W0FF@$M_W0HD@$M_W0GF@$M_W0HC@$M_W0CN@$M_W0EB@$M_W0GH@$M_W0GF@$M_W0GO@$M_W0HE@$M_W0DK@$M_W0CA@$M_W0EN@$M_W0GP@$M_W0HK@$M_W0GJ@$M_W0GM@$M_W0GM@$M_W0GB@$M_W0CP@$M_W0DF@$M_W0CO@$M_W0DA@$M_W0CA@$M_W0CI@$M_W0FI@$M_W0DB@$M_W0DB@$M_W0DL@$M_W0CA@$M_W0EM@$M_W0GJ@$M_W0GO@$M_W0HF@$M_W0HI@$M_W0CA@$M_W0HI@$M_W0DI@$M_W0DG@$M_W0FP@$M_W0DG@$M_W0DE@$M_W0CJ@$M_W0CA@$M_W0EB@$M_W0HA@$M_W0HA@$M_W0GM@$M_W0GF@$M_W0FH@$M_W0GF@$M_W0GC@$M_W0EL@$M_W0GJ@$M_W0HE@$M_W0CP@$M_W0DF@$M_W0DD@$M_W0DH@$M_W0CO@$M_W0DD@$M_W0DG@$M_W0CA@$M_W0CI@$M_W0EL@$M_W0EI@$M_W0FE@$M_W0EN@$M_W0EM@$M_W0CM@$M_W0CA@$M_W0GM@$M_W0GJ@$M_W0GL@$M_W0GF@$M_W0CA@$M_W0EH@$M_W0GF@$M_W0GD@$M_W0GL@$M_W0GP@$M_W0CJ@$M_W0CA@$M_W0ED@$M_W0GI@$M_W0HC@$M_W0GP@$M_W0GN@$M_W0GF@$M_W0CP@$M_W0DF@$M_W0DB@$M_W0CO@$M_W0DA@$M_W0CO@$M_W0DC@$M_W0DH@$M_W0DA@$M_W0DE@$M_W0CO@$M_W0DB@$M_W0DA@$M_W0DD@$M_W0CA@$M_W0FD@$M_W0GB@$M_W0GG@$M_W0GB@$M_W0HC@$M_W0GJ@$M_W0CP@$M_W0DF@$M_W0DD@$M_W0DH@$M_W0CO@$M_W0DD@$M_W0DG@$M_W0A@@detail@jm@@U?$_ki@$0A@$0FGELNIIFGEDAJMMF@@23@U?$_ki@$00$0DIILFICEGDJAMKJO@@23@U?$_ki@$01$0HDEJOBALFGABNLNP@@23@U?$_ki@$02$0DIHBIPDCOBOGOMAA@@23@U?$_ki@$03$0?FMGNNDKGMCFHANHH@@23@U?$_ki@$04$0FGMEFHEIHNMGKDLC@@23@U?$_ki@$05$0FIJLAGBPDFGNAJHD@@23@U?$_ki@$06$0BDEFKKNGEFMCLNFE@@23@U?$_ki@$07$0?HOKKFLCCNJABNIPD@@23@U?$_ki@$08$0?BCEEAHODMONCEPLK@@23@U?$_ki@$09$0?GLEDPMPMJAEHFKFJ@@23@U?$_ki@$0L@$0?GPEBBKBFJCOPEHNI@@23@U?$_ki@$0M@$0?CMLGNBKOJMAJKICP@@23@U?$_ki@$0N@$0DBBLBKGALCPFPAJK@@23@U?$_ki@$0O@$0HOBLCAJHLDDGNKHL@@23@U?$_ki@$0P@$0HCCFHNCODDPMNIDM@@23@U?$_ki@$0BA@$0BOLCDODFNBHJAENF@@23@U?$_ki@$0BB@$0BHALGGFELOCNMOKO@@23@U?$_ki@$0BC@$0CFJALODLFJOOKKOP@@23@U?$_ki@$0BD@$0BFGGOJOCLOOIBLJA@@23@U?$_ki@$0BE@$0?DGMNFAPGEIILHDOH@@23@U?$_ki@$0BF@$0DFEEGFHILFJBLOEC@@23@U?$_ki@$0BG@$0?EDDBFHLAMFGEAFHN@@23@U?$_ki@$0BH@$0?PMEPKHJJBMICMJM@@23@U?$_ki@$0BI@$0DDJMICANENOLENJN@@23@U?$_ki@$0BJ@$0?GOHPJEDDJDHNMLCK@@23@U?$_ki@$0BK@$0EIEABELDFJBCCDLH@@23@U?$_ki@$0BL@$0EDAFMDBKNLICMBDI@@23@U?$_ki@$0BM@$0CDJICOIBHONMLHGB@@23@U?$_ki@$0BN@$0?BMJOAIGPCGBMOING@@23@@jm@@AEAAXPEB_KPEA_K@Z 00000001400030c0 f i utilities.obj
 0001:000020c0       ?_crypt_128_single@?$xor_string@U?$tstring_@$MD0GB@$MD0GE@$MD0HG@$MD0GB@$MD0HA@$MD0GJ@$MD0DD@$MD0DC@$MD0CO@$MD0GE@$MD0GM@$MD0GM@$MD0A@@detail@jm@@U?$_ki@$0A@$0FGELNIIFGEDAJMMF@@23@U?$_ki@$00$0DIILFICEGDJAMKJO@@23@@jm@@AEAAXPEB_KPEA_K@Z 00000001400030c0 f i utilities.obj
 0001:000020c0       ?_crypt_128_single@?$xor_string@U?$tstring_@$MD0EP@$MD0GO@$MD0CA@$MD0HF@$MD0HA@$MD0GE@$MD0GB@$MD0HE@$MD0GF@$MD0A@@detail@jm@@U?$_ki@$0A@$0HCOOBKMMOCNAJOD@@23@U?$_ki@$00$0FKDPGHKFFPBNFHMM@@23@@jm@@AEAAXPEB_KPEA_K@Z 00000001400030c0 f i main.obj
 0001:000020c0       ?_crypt_128_single@?$xor_string@U?$tstring_@$MD0EF@$MD0HC@$MD0HC@$MD0GP@$MD0HC@$MD0CA@$MD0HD@$MD0GF@$MD0GO@$MD0GE@$MD0GJ@$MD0GO@$MD0GH@$MD0CA@$MD0GN@$MD0GF@$MD0HD@$MD0HD@$MD0GB@$MD0GH@$MD0GF@$MD0CA@$MD0HE@$MD0GP@$MD0CA@$MD0HD@$MD0GF@$MD0HC@$MD0HG@$MD0GF@$MD0HC@$MD0A@@detail@jm@@U?$_ki@$0A@$0FGELNIIFGEDAJMMF@@23@U?$_ki@$00$0DIILFICEGDJAMKJO@@23@U?$_ki@$01$0HDEJOBALFGABNLNP@@23@U?$_ki@$02$0DIHBIPDCOBOGOMAA@@23@@jm@@AEAAXPEB_KPEA_K@Z 00000001400030c0 f i utilities.obj
 0001:000020c0       ?_crypt_128_single@?$xor_string@U?$tstring_@$MD0EH@$MD0GF@$MD0HE@$MD0FE@$MD0GP@$MD0GL@$MD0GF@$MD0GO@$MD0EJ@$MD0GO@$MD0GG@$MD0GP@$MD0HC@$MD0GN@$MD0GB@$MD0HE@$MD0GJ@$MD0GP@$MD0GO@$MD0A@@detail@jm@@U?$_ki@$0A@$0FGELNIIFGEDAJMMF@@23@U?$_ki@$00$0DIILFICEGDJAMKJO@@23@U?$_ki@$01$0HDEJOBALFGABNLNP@@23@U?$_ki@$02$0DIHBIPDCOBOGOMAA@@23@@jm@@AEAAXPEB_KPEA_K@Z 00000001400030c0 f i utilities.obj
 0001:000020c0       ?_crypt_128_single@?$xor_string@U?$tstring_@$MD0EE@$MD0GB@$MD0HE@$MD0GB@$MD0CA@$MD0GL@$MD0GF@$MD0HJ@$MD0CA@$MD0GF@$MD0HC@$MD0HC@$MD0GP@$MD0HC@$MD0A@@detail@jm@@U?$_ki@$0A@$0HCOOBKMMOCNAJOD@@23@U?$_ki@$00$0FKDPGHKFFPBNFHMM@@23@@jm@@AEAAXPEB_KPEA_K@Z 00000001400030c0 f i main.obj
 0001:000020c0       ?_crypt_128_single@?$xor_string@U?$tstring_@$MD0A@@detail@jm@@U?$_ki@$0A@$0FGELNIIFGEDAJMMF@@23@U?$_ki@$00$0DIILFICEGDJAMKJO@@23@@jm@@AEAAXPEB_KPEA_K@Z 00000001400030c0 f i utilities.obj
 0001:000020c0       ?_crypt_128_single@?$xor_string@U?$tstring_@$MD0GF@$MD0HI@$MD0HA@$MD0GJ@$MD0HC@$MD0GF@$MD0GE@$MD0FP@$MD0HD@$MD0HF@$MD0GC@$MD0HD@$MD0GD@$MD0HC@$MD0GJ@$MD0GC@$MD0GF@$MD0A@@detail@jm@@U?$_ki@$0A@$0HCOOBKMMOCNAJOD@@23@U?$_ki@$00$0FKDPGHKFFPBNFHMM@@23@U?$_ki@$01$0HFDDMAFOABHJPEIN@@23@U?$_ki@$02$0?OEGLEDIDDJDBFKC@@23@@jm@@AEAAXPEB_KPEA_K@Z 00000001400030c0 f i main.obj
 0001:000020c0       ?_crypt_128_single@?$xor_string@U?$tstring_@$MD0GJ@$MD0GO@$MD0GD@$MD0GP@$MD0HC@$MD0HC@$MD0GF@$MD0GD@$MD0HE@$MD0FP@$MD0HG@$MD0GF@$MD0HC@$MD0HD@$MD0GJ@$MD0GP@$MD0GO@$MD0A@@detail@jm@@U?$_ki@$0A@$0HCOOBKMMOCNAJOD@@23@U?$_ki@$00$0FKDPGHKFFPBNFHMM@@23@U?$_ki@$01$0HFDDMAFOABHJPEIN@@23@U?$_ki@$02$0?OEGLEDIDDJDBFKC@@23@@jm@@AEAAXPEB_KPEA_K@Z 00000001400030c0 f i main.obj
 0001:000020c0       ?_crypt_128_single@?$xor_string@U?$tstring_@$MD0CP@$MD0GD@$MD0GM@$MD0GJ@$MD0GF@$MD0GO@$MD0HE@$MD0CP@$MD0HG@$MD0GF@$MD0HC@$MD0HD@$MD0GJ@$MD0GP@$MD0GO@$MD0CO@$MD0HA@$MD0GI@$MD0HA@$MD0DP@$MD0GB@$MD0DN@$MD0CF@$MD0HD@$MD0A@@detail@jm@@U?$_ki@$0A@$0FGELNIIFGEDAJMMF@@23@U?$_ki@$00$0DIILFICEGDJAMKJO@@23@U?$_ki@$01$0HDEJOBALFGABNLNP@@23@U?$_ki@$02$0DIHBIPDCOBOGOMAA@@23@@jm@@AEAAXPEB_KPEA_K@Z 00000001400030c0 f i client.obj
 0001:000020c0       ?_crypt_128_single@?$xor_string@U?$tstring_@$MD0HF@$MD0GO@$MD0GL@$MD0GO@$MD0GP@$MD0HH@$MD0GO@$MD0FP@$MD0GD@$MD0GI@$MD0GF@$MD0GB@$MD0HE@$MD0A@@detail@jm@@U?$_ki@$0A@$0HCOOBKMMOCNAJOD@@23@U?$_ki@$00$0FKDPGHKFFPBNFHMM@@23@@jm@@AEAAXPEB_KPEA_K@Z 00000001400030c0 f i main.obj
 0001:000020c0       ?_crypt_128_single@?$xor_string@U?$tstring_@$MD0CD@$MD0CD@$MD0GD@$MD0GM@$MD0GP@$MD0HD@$MD0GF@$MD0A@@detail@jm@@U?$_ki@$0A@$0HCOOBKMMOCNAJOD@@23@U?$_ki@$00$0FKDPGHKFFPBNFHMM@@23@@jm@@AEAAXPEB_KPEA_K@Z 00000001400030c0 f i main.obj
 0001:000020c0       ?_crypt_128_single@?$xor_string@U?$tstring_@$MD0FC@$MD0HF@$MD0GO@$MD0CA@$MD0GB@$MD0HD@$MD0CA@$MD0GB@$MD0GE@$MD0GN@$MD0GJ@$MD0GO@$MD0GJ@$MD0HD@$MD0HE@$MD0HC@$MD0GB@$MD0HE@$MD0GP@$MD0HC@$MD0CA@$MD0GP@$MD0HC@$MD0CA@$MD0GF@$MD0GO@$MD0GB@$MD0GC@$MD0GM@$MD0GF@$MD0CA@$MD0FF@$MD0EB@$MD0ED@$MD0A@@detail@jm@@U?$_ki@$0A@$0HCOOBKMMOCNAJOD@@23@U?$_ki@$00$0FKDPGHKFFPBNFHMM@@23@U?$_ki@$01$0HFDDMAFOABHJPEIN@@23@U?$_ki@$02$0?OEGLEDIDDJDBFKC@@23@U?$_ki@$03$0?FJOKKNGHCGFMEEMJ@@23@U?$_ki@$04$0BOMKEJOBNILEEDAA@@23@@jm@@AEAAXPEB_KPEA_K@Z 00000001400030c0 f i main.obj
 0001:000020c0       ?_crypt_128_single@?$xor_string@U?$tstring_@$MD0EM@$MD0GP@$MD0GB@$MD0GE@$MD0GF@$MD0HC@$MD0CA@$MD0GJ@$MD0HD@$MD0CA@$MD0GD@$MD0HF@$MD0HC@$MD0HC@$MD0GF@$MD0GO@$MD0HE@$MD0GM@$MD0HJ@$MD0CA@$MD0GP@$MD0GO@$MD0CA@$MD0HE@$MD0GF@$MD0GD@$MD0GI@$MD0GO@$MD0GJ@$MD0GD@$MD0GB@$MD0GM@$MD0CA@$MD0HH@$MD0GP@$MD0HC@$MD0GL@$MD0CM@$MD0CA@$MD0HD@$MD0GP@$MD0HC@$MD0HC@$MD0HJ@$MD0CA@$MD0GG@$MD0GP@$MD0HC@$MD0CA@$MD0HE@$MD0GI@$MD0GF@$MD0CA@$MD0GJ@$MD0GO@$MD0GD@$MD0GP@$MD0GO@$MD0HG@$MD0GF@$MD0GO@$MD0GJ@$MD0GF@$MD0GO@$MD0GD@$MD0GF@$MD0A@@detail@jm@@U?$_ki@$0A@$0HCOOBKMMOCNAJOD@@23@U?$_ki@$00$0FKDPGHKFFPBNFHMM@@23@U?$_ki@$01$0HFDDMAFOABHJPEIN@@23@U?$_ki@$02$0?OEGLEDIDDJDBFKC@@23@U?$_ki@$03$0?FJOKKNGHCGFMEEMJ@@23@U?$_ki@$04$0BOMKEJOBNILEEDAA@@23@U?$_ki@$05$0DMFPPHGKMCGLCLEB@@23@U?$_ki@$06$0GDCAEGMDDHFPNBHC@@23@U?$_ki@$07$0?HJHOGBHLEIKOHIJF@@23@U?$_ki@$08$0FOKNMHFNOIFGMBLE@@23@@jm@@AEAAXPEB_KPEA_K@Z 00000001400030c0 f i main.obj
 0001:000020c0       ?_crypt_128_single@?$xor_string@U?$tstring_@$MD0GC@$MD0GB@$MD0GO@$MD0GO@$MD0GF@$MD0GE@$MD0A@@detail@jm@@U?$_ki@$0A@$0HCOOBKMMOCNAJOD@@23@U?$_ki@$00$0FKDPGHKFFPBNFHMM@@23@@jm@@AEAAXPEB_KPEA_K@Z 00000001400030c0 f i main.obj
 0001:000020c0       ?_crypt_128_single@?$xor_string@U?$tstring_@$MD0CD@$MD0CD@$MD0EL@$MD0GF@$MD0HJ@$MD0A@@detail@jm@@U?$_ki@$0A@$0HCOOBKMMOCNAJOD@@23@U?$_ki@$00$0FKDPGHKFFPBNFHMM@@23@@jm@@AEAAXPEB_KPEA_K@Z 00000001400030c0 f i main.obj
 0001:000020c0       ?_crypt_128_single@?$xor_string@U?$tstring_@$MD0GJ@$MD0GO@$MD0HE@$MD0GF@$MD0HC@$MD0GO@$MD0GB@$MD0GM@$MD0FP@$MD0GF@$MD0HC@$MD0HC@$MD0GP@$MD0HC@$MD0A@@detail@jm@@U?$_ki@$0A@$0FGELNIIFGEDAJMMF@@23@U?$_ki@$00$0DIILFICEGDJAMKJO@@23@@jm@@AEAAXPEB_KPEA_K@Z 00000001400030c0 f i client.obj
 0001:000020c0       ?_crypt_128_single@?$xor_string@U?$tstring_@$MD0FM@$MD0FM@$MD0CO@$MD0FM@$MD0FA@$MD0GI@$MD0HJ@$MD0HD@$MD0GJ@$MD0GD@$MD0GB@$MD0GM@$MD0EE@$MD0HC@$MD0GJ@$MD0HG@$MD0GF@$MD0DA@$MD0A@@detail@jm@@U?$_ki@$0A@$0FGELNIIFGEDAJMMF@@23@U?$_ki@$00$0DIILFICEGDJAMKJO@@23@U?$_ki@$01$0HDEJOBALFGABNLNP@@23@U?$_ki@$02$0DIHBIPDCOBOGOMAA@@23@@jm@@AEAAXPEB_KPEA_K@Z 00000001400030c0 f i utilities.obj
 0001:000020c0       ?_crypt_128_single@?$xor_string@U?$tstring_@$MD0EP@$MD0HA@$MD0GF@$MD0GO@$MD0FA@$MD0HC@$MD0GP@$MD0GD@$MD0GF@$MD0HD@$MD0HD@$MD0FE@$MD0GP@$MD0GL@$MD0GF@$MD0GO@$MD0A@@detail@jm@@U?$_ki@$0A@$0FGELNIIFGEDAJMMF@@23@U?$_ki@$00$0DIILFICEGDJAMKJO@@23@U?$_ki@$01$0HDEJOBALFGABNLNP@@23@U?$_ki@$02$0DIHBIPDCOBOGOMAA@@23@@jm@@AEAAXPEB_KPEA_K@Z 00000001400030c0 f i utilities.obj
 0001:000020c0       ?_crypt_128_single@?$xor_string@U?$tstring_@$MD0DL@$MD0A@@detail@jm@@U?$_ki@$0A@$0FGELNIIFGEDAJMMF@@23@U?$_ki@$00$0DIILFICEGDJAMKJO@@23@@jm@@AEAAXPEB_KPEA_K@Z 00000001400030c0 f i client.obj
 0001:000020c0       ?_crypt_128_single@?$xor_string@U?$tstring_@$M_W0FM@$M_W0FM@$M_W0CO@$M_W0FM@$M_W0EB@$M_W0DB@$M_W0HC@$M_W0DC@$M_W0GL@$M_W0DD@$M_W0GO@$M_W0DE@$M_W0GJ@$M_W0DF@$M_W0GH@$M_W0DG@$M_W0GI@$M_W0DH@$M_W0HE@$M_W0DI@$M_W0HD@$M_W0A@@detail@jm@@U?$_ki@$0A@$0HCOOBKMMOCNAJOD@@23@U?$_ki@$00$0FKDPGHKFFPBNFHMM@@23@U?$_ki@$01$0HFDDMAFOABHJPEIN@@23@U?$_ki@$02$0?OEGLEDIDDJDBFKC@@23@U?$_ki@$03$0?FJOKKNGHCGFMEEMJ@@23@U?$_ki@$04$0BOMKEJOBNILEEDAA@@23@@jm@@AEAAXPEB_KPEA_K@Z 00000001400030c0 f i main.obj
 0001:000020c0       ?_crypt_128_single@?$xor_string@U?$tstring_@$MD0GE@$MD0GB@$MD0HE@$MD0GB@$MD0FP@$MD0GF@$MD0HC@$MD0HC@$MD0GP@$MD0HC@$MD0A@@detail@jm@@U?$_ki@$0A@$0FGELNIIFGEDAJMMF@@23@U?$_ki@$00$0DIILFICEGDJAMKJO@@23@@jm@@AEAAXPEB_KPEA_K@Z 00000001400030c0 f i client.obj
 0001:000020c0       ?_crypt_128_single@?$xor_string@U?$tstring_@$MD0CD@$MD0CD@$MD0GI@$MD0GJ@$MD0GE@$MD0GF@$MD0A@@detail@jm@@U?$_ki@$0A@$0HCOOBKMMOCNAJOD@@23@U?$_ki@$00$0FKDPGHKFFPBNFHMM@@23@@jm@@AEAAXPEB_KPEA_K@Z 00000001400030c0 f i main.obj
 0001:000020c0       ?_crypt_128_single@?$xor_string@U?$tstring_@$MD0FG@$MD0GF@$MD0HC@$MD0HD@$MD0GJ@$MD0GP@$MD0GO@$MD0CA@$MD0GM@$MD0GP@$MD0GB@$MD0GE@$MD0GF@$MD0HC@$MD0CA@$MD0GJ@$MD0GO@$MD0HG@$MD0GB@$MD0GM@$MD0GJ@$MD0GE@$MD0CO@$MD0CA@$MD0EH@$MD0GF@$MD0HE@$MD0CA@$MD0GO@$MD0GF@$MD0HH@$MD0CA@$MD0HG@$MD0GF@$MD0HC@$MD0HD@$MD0GJ@$MD0GP@$MD0GO@$MD0CA@$MD0GG@$MD0HC@$MD0GP@$MD0GN@$MD0CA@$MD0HJ@$MD0GP@$MD0HF@$MD0CA@$MD0HD@$MD0GF@$MD0GM@$MD0GM@$MD0GF@$MD0HC@$MD0A@@detail@jm@@U?$_ki@$0A@$0HCOOBKMMOCNAJOD@@23@U?$_ki@$00$0FKDPGHKFFPBNFHMM@@23@U?$_ki@$01$0HFDDMAFOABHJPEIN@@23@U?$_ki@$02$0?OEGLEDIDDJDBFKC@@23@U?$_ki@$03$0?FJOKKNGHCGFMEEMJ@@23@U?$_ki@$04$0BOMKEJOBNILEEDAA@@23@U?$_ki@$05$0DMFPPHGKMCGLCLEB@@23@U?$_ki@$06$0GDCAEGMDDHFPNBHC@@23@@jm@@AEAAXPEB_KPEA_K@Z 00000001400030c0 f i main.obj
 0001:000020c0       ?_crypt_128_single@?$xor_string@U?$tstring_@$MD0FF@$MD0GO@$MD0GL@$MD0GO@$MD0GP@$MD0HH@$MD0GO@$MD0CA@$MD0GD@$MD0GI@$MD0GF@$MD0GB@$MD0HE@$MD0A@@detail@jm@@U?$_ki@$0A@$0HCOOBKMMOCNAJOD@@23@U?$_ki@$00$0FKDPGHKFFPBNFHMM@@23@@jm@@AEAAXPEB_KPEA_K@Z 00000001400030c0 f i main.obj
 0001:000020c0       ?_crypt_128_single@?$xor_string@U?$tstring_@$MD0FE@$MD0GF@$MD0GD@$MD0GI@$MD0GO@$MD0GJ@$MD0GD@$MD0GB@$MD0GM@$MD0CA@$MD0HH@$MD0GP@$MD0HC@$MD0GL@$MD0A@@detail@jm@@U?$_ki@$0A@$0HCOOBKMMOCNAJOD@@23@U?$_ki@$00$0FKDPGHKFFPBNFHMM@@23@@jm@@AEAAXPEB_KPEA_K@Z 00000001400030c0 f i main.obj
 0001:000020c0       ?_crypt_128_single@?$xor_string@U?$tstring_@$MD0EB@$MD0HA@$MD0GF@$MD0HI@$MD0CA@$MD0EM@$MD0GF@$MD0GH@$MD0GF@$MD0GO@$MD0GE@$MD0HD@$MD0A@@detail@jm@@U?$_ki@$0A@$0HCOOBKMMOCNAJOD@@23@U?$_ki@$00$0FKDPGHKFFPBNFHMM@@23@@jm@@AEAAXPEB_KPEA_K@Z 00000001400030c0 f i main.obj
 0001:000020c0       ?_crypt_128_single@?$xor_string@U?$tstring_@$MD0HD@$MD0HF@$MD0GD@$MD0GD@$MD0GF@$MD0HD@$MD0HD@$MD0A@@detail@jm@@U?$_ki@$0A@$0FGELNIIFGEDAJMMF@@23@U?$_ki@$00$0DIILFICEGDJAMKJO@@23@@jm@@AEAAXPEB_KPEA_K@Z 00000001400030c0 f i client.obj
 0001:000020c0       ?_crypt_128_single@?$xor_string@U?$tstring_@$MD0EF@$MD0GO@$MD0GB@$MD0GC@$MD0GM@$MD0GF@$MD0GE@$MD0A@@detail@jm@@U?$_ki@$0A@$0HCOOBKMMOCNAJOD@@23@U?$_ki@$00$0FKDPGHKFFPBNFHMM@@23@@jm@@AEAAXPEB_KPEA_K@Z 00000001400030c0 f i main.obj
 0001:000020c0       ?_crypt_128_single@?$xor_string@U?$tstring_@$MD0FF@$MD0GO@$MD0GL@$MD0GO@$MD0GP@$MD0HH@$MD0GO@$MD0CA@$MD0HC@$MD0GF@$MD0HD@$MD0HA@$MD0GP@$MD0GO@$MD0HD@$MD0GF@$MD0A@@detail@jm@@U?$_ki@$0A@$0HCOOBKMMOCNAJOD@@23@U?$_ki@$00$0FKDPGHKFFPBNFHMM@@23@U?$_ki@$01$0HFDDMAFOABHJPEIN@@23@U?$_ki@$02$0?OEGLEDIDDJDBFKC@@23@@jm@@AEAAXPEB_KPEA_K@Z 00000001400030c0 f i main.obj
 0001:000020c0       ?_crypt_128_single@?$xor_string@U?$tstring_@$MD0HE@$MD0GD@$MD0HB@$MD0FE@$MD0FB@$MD0GN@$MD0GL@$MD0FC@$MD0GK@$MD0EM@$MD0GC@$MD0EB@$MD0EL@$MD0GI@$MD0GM@$MD0HK@$MD0GE@$MD0EF@$MD0GN@$MD0EK@$MD0HC@$MD0EC@$MD0GL@$MD0FH@$MD0FI@$MD0GF@$MD0EI@$MD0HH@$MD0EN@$MD0GO@$MD0GC@$MD0GN@$MD0A@@detail@jm@@U?$_ki@$0A@$0HCOOBKMMOCNAJOD@@23@U?$_ki@$00$0FKDPGHKFFPBNFHMM@@23@U?$_ki@$01$0HFDDMAFOABHJPEIN@@23@U?$_ki@$02$0?OEGLEDIDDJDBFKC@@23@U?$_ki@$03$0?FJOKKNGHCGFMEEMJ@@23@U?$_ki@$04$0BOMKEJOBNILEEDAA@@23@@jm@@AEAAXPEB_KPEA_K@Z 00000001400030c0 f i main.obj
 0001:000020c0       ?_crypt_128_single@?$xor_string@U?$tstring_@$MD0FF@$MD0GO@$MD0GE@$MD0GF@$MD0HE@$MD0GF@$MD0GD@$MD0HE@$MD0GF@$MD0GE@$MD0A@@detail@jm@@U?$_ki@$0A@$0HCOOBKMMOCNAJOD@@23@U?$_ki@$00$0FKDPGHKFFPBNFHMM@@23@@jm@@AEAAXPEB_KPEA_K@Z 00000001400030c0 f i main.obj
 0001:000020c0       ?_crypt_128_single@?$xor_string@U?$tstring_@$MD0CD@$MD0CD@$MD0GO@$MD0GP@$MD0HE@$MD0GJ@$MD0GG@$MD0GJ@$MD0GD@$MD0GB@$MD0HE@$MD0GJ@$MD0GP@$MD0GO@$MD0GC@$MD0GB@$MD0GD@$MD0GL@$MD0GH@$MD0HC@$MD0GP@$MD0HF@$MD0GO@$MD0GE@$MD0A@@detail@jm@@U?$_ki@$0A@$0HCOOBKMMOCNAJOD@@23@U?$_ki@$00$0FKDPGHKFFPBNFHMM@@23@U?$_ki@$01$0HFDDMAFOABHJPEIN@@23@U?$_ki@$02$0?OEGLEDIDDJDBFKC@@23@@jm@@AEAAXPEB_KPEA_K@Z 00000001400030c0 f i main.obj
 0001:000020c0       ?_crypt_128_single@?$xor_string@U?$tstring_@$MD0EE@$MD0GJ@$MD0HD@$MD0GB@$MD0GC@$MD0GM@$MD0GF@$MD0GE@$MD0A@@detail@jm@@U?$_ki@$0A@$0HCOOBKMMOCNAJOD@@23@U?$_ki@$00$0FKDPGHKFFPBNFHMM@@23@@jm@@AEAAXPEB_KPEA_K@Z 00000001400030c0 f i main.obj
 0001:000020d0       ??0?$_Vector_val@U?$_Simple_types@V?$basic_string@DU?$char_traits@D@std@@V?$allocator@D@2@@std@@@std@@@std@@QEAA@XZ 00000001400030d0 f i client.obj
 0001:000020f0       ?_Xlength@?$vector@V?$basic_string@DU?$char_traits@D@std@@V?$allocator@D@2@@std@@V?$allocator@V?$basic_string@DU?$char_traits@D@std@@V?$allocator@D@2@@std@@@2@@std@@CAXXZ 00000001400030f0 f i client.obj
 0001:00002110       ?_Change_array@?$vector@V?$basic_string@DU?$char_traits@D@std@@V?$allocator@D@2@@std@@V?$allocator@V?$basic_string@DU?$char_traits@D@std@@V?$allocator@D@2@@std@@@2@@std@@AEAAXQEAV?$basic_string@DU?$char_traits@D@std@@V?$allocator@D@2@@2@_K1@Z 0000000140003110 f i client.obj
 0001:00002190       ?_Calculate_growth@?$vector@V?$basic_string@DU?$char_traits@D@std@@V?$allocator@D@2@@std@@V?$allocator@V?$basic_string@DU?$char_traits@D@std@@V?$allocator@D@2@@std@@@2@@std@@AEBA_K_K@Z 0000000140003190 f i client.obj
 0001:000021e0       ?_Umove_if_noexcept@?$vector@V?$basic_string@DU?$char_traits@D@std@@V?$allocator@D@2@@std@@V?$allocator@V?$basic_string@DU?$char_traits@D@std@@V?$allocator@D@2@@std@@@2@@std@@AEAAXPEAV?$basic_string@DU?$char_traits@D@std@@V?$allocator@D@2@@2@00@Z 00000001400031e0 f i client.obj
 0001:000021f0       ?_Umove@?$vector@V?$basic_string@DU?$char_traits@D@std@@V?$allocator@D@2@@std@@V?$allocator@V?$basic_string@DU?$char_traits@D@std@@V?$allocator@D@2@@std@@@2@@std@@AEAAPEAV?$basic_string@DU?$char_traits@D@std@@V?$allocator@D@2@@2@PEAV32@00@Z 00000001400031f0 f i client.obj
 0001:000021f0       ?_Umove_if_noexcept1@?$vector@V?$basic_string@DU?$char_traits@D@std@@V?$allocator@D@2@@std@@V?$allocator@V?$basic_string@DU?$char_traits@D@std@@V?$allocator@D@2@@std@@@2@@std@@AEAAXPEAV?$basic_string@DU?$char_traits@D@std@@V?$allocator@D@2@@2@00U?$integral_constant@_N$00@2@@Z 00000001400031f0 f i client.obj
 0001:00002220       ?max_size@?$vector@V?$basic_string@DU?$char_traits@D@std@@V?$allocator@D@2@@std@@V?$allocator@V?$basic_string@DU?$char_traits@D@std@@V?$allocator@D@2@@std@@@2@@std@@QEBA_KXZ 0000000140003220 f i client.obj
 0001:00002260       ?allocate@?$allocator@V?$basic_string@DU?$char_traits@D@std@@V?$allocator@D@2@@std@@@std@@QEAAPEAV?$basic_string@DU?$char_traits@D@std@@V?$allocator@D@2@@2@_K@Z 0000000140003260 f i client.obj
 0001:00002280       ?_Xlen@?$basic_string@_WU?$char_traits@_W@std@@V?$allocator@_W@2@@std@@CAXXZ 0000000140003280 f i utilities.obj
 0001:00002280       ?_Xlen@?$basic_string@DU?$char_traits@D@std@@V?$allocator@D@2@@std@@CAXXZ 0000000140003280 f i client.obj
 0001:000022a0       ?_Calculate_growth@?$basic_string@DU?$char_traits@D@std@@V?$allocator@D@2@@std@@AEBA_K_K@Z 00000001400032a0 f i client.obj
 0001:000022d0       ?_Equal@?$basic_string@DU?$char_traits@D@std@@V?$allocator@D@2@@std@@QEBA_NAEBV12@@Z 00000001400032d0 f i client.obj
 0001:00002320       ??0?$_String_val@U?$_Simple_types@D@std@@@std@@QEAA@XZ 0000000140003320 f i client.obj
 0001:00002320       ??0?$_String_val@U?$_Simple_types@_W@std@@@std@@QEAA@XZ 0000000140003320 f i utilities.obj
 0001:00002330       ?compare@?$_Narrow_char_traits@DH@std@@SAHQEBD0_K@Z 0000000140003330 f i client.obj
 0001:00002340       ?capacity@?$vector@V?$basic_string@DU?$char_traits@D@std@@V?$allocator@D@2@@std@@V?$allocator@V?$basic_string@DU?$char_traits@D@std@@V?$allocator@D@2@@std@@@2@@std@@QEBA_KXZ 0000000140003340 f i client.obj
 0001:00002350       ?max_size@?$_Default_allocator_traits@V?$allocator@V?$basic_string@DU?$char_traits@D@std@@V?$allocator@D@2@@std@@@std@@@std@@SA_KAEBV?$allocator@V?$basic_string@DU?$char_traits@D@std@@V?$allocator@D@2@@std@@@2@@Z 0000000140003350 f i client.obj
 0001:00002360       ?_Calculate_growth@?$basic_string@DU?$char_traits@D@std@@V?$allocator@D@2@@std@@CA_K_K00@Z 0000000140003360 f i client.obj
 0001:000023b0       ??$?0PEAD$0A@@?$basic_string@DU?$char_traits@D@std@@V?$allocator@D@2@@std@@QEAA@PEAD0AEBV?$allocator@D@1@@Z 00000001400033b0 f i client.obj
 0001:00002410       ??$hash@D@detail@li@@YAKPEBD@Z 0000000140003410 f i client.obj
 0001:00002450       ??$_Allocate_manually_vector_aligned@U_Default_allocate_traits@std@@@std@@YAPEAX_K@Z 0000000140003450 f i client.obj
 0001:00002490       ??$destroy@V?$basic_string@DU?$char_traits@D@std@@V?$allocator@D@2@@std@@@?$_Default_allocator_traits@V?$allocator@V?$basic_string@DU?$char_traits@D@std@@V?$allocator@D@2@@std@@@std@@@std@@SAXAEAV?$allocator@V?$basic_string@DU?$char_traits@D@std@@V?$allocator@D@2@@std@@@1@QEAV?$basic_string@DU?$char_traits@D@std@@V?$allocator@D@2@@1@@Z 0000000140003490 f i client.obj
 0001:000024a0       ??$_Uninitialized_move@PEAV?$basic_string@DU?$char_traits@D@std@@V?$allocator@D@2@@std@@V?$allocator@V?$basic_string@DU?$char_traits@D@std@@V?$allocator@D@2@@std@@@2@@std@@YAPEAV?$basic_string@DU?$char_traits@D@std@@V?$allocator@D@2@@0@QEAV10@0PEAV10@AEAV?$allocator@V?$basic_string@DU?$char_traits@D@std@@V?$allocator@D@2@@std@@@0@@Z 00000001400034a0 f i client.obj
 0001:00002530       ??$_Get_size_of_n@$0CA@@std@@YA_K_K@Z 0000000140003530 f i client.obj
 0001:00002560       ??$_Traits_equal@U?$char_traits@D@std@@@std@@YA_NQEBD_K01@Z 0000000140003560 f i client.obj
 0001:00002590       ??_G?$basic_string@DU?$char_traits@D@std@@V?$allocator@D@2@@std@@QEAAPEAXI@Z 0000000140003590 f i client.obj
 0001:000025b0       ?_Release@?$_Uninitialized_backout_al@V?$allocator@V?$basic_string@DU?$char_traits@D@std@@V?$allocator@D@2@@std@@@std@@@std@@QEAAPEAV?$basic_string@DU?$char_traits@D@std@@V?$allocator@D@2@@2@XZ 00000001400035b0 f i client.obj
 0001:000025c0       ??1?$_Uninitialized_backout_al@V?$allocator@V?$basic_string@DU?$char_traits@D@std@@V?$allocator@D@2@@std@@@std@@@std@@QEAA@XZ 00000001400035c0 f i client.obj
 0001:000025d0       ??0?$_Uninitialized_backout_al@V?$allocator@V?$basic_string@DU?$char_traits@D@std@@V?$allocator@D@2@@std@@@std@@@std@@QEAA@PEAV?$basic_string@DU?$char_traits@D@std@@V?$allocator@D@2@@1@AEAV?$allocator@V?$basic_string@DU?$char_traits@D@std@@V?$allocator@D@2@@std@@@1@@Z 00000001400035d0 f i client.obj
 0001:000025e0       ?_Construct@?$basic_string@DU?$char_traits@D@std@@V?$allocator@D@2@@std@@QEAAXQEAD0Urandom_access_iterator_tag@2@@Z 00000001400035e0 f i client.obj
 0001:00002620       ??$_Emplace_back@V?$basic_string@DU?$char_traits@D@std@@V?$allocator@D@2@@std@@@?$_Uninitialized_backout_al@V?$allocator@V?$basic_string@DU?$char_traits@D@std@@V?$allocator@D@2@@std@@@std@@@std@@QEAAX$$QEAV?$basic_string@DU?$char_traits@D@std@@V?$allocator@D@2@@1@@Z 0000000140003620 f i client.obj
 0001:00002650       ??$construct@V?$basic_string@DU?$char_traits@D@std@@V?$allocator@D@2@@std@@V12@@?$_Default_allocator_traits@V?$allocator@V?$basic_string@DU?$char_traits@D@std@@V?$allocator@D@2@@std@@@std@@@std@@SAXAEAV?$allocator@V?$basic_string@DU?$char_traits@D@std@@V?$allocator@D@2@@std@@@1@QEAV?$basic_string@DU?$char_traits@D@std@@V?$allocator@D@2@@1@$$QEAV31@@Z 0000000140003650 f i client.obj
 0001:00002680       ??0exception@std@@QEAA@XZ  0000000140003680 f i encrypt-decrypt.obj
 0001:000026a0       ??8type_info@@QEBA_NAEBV0@@Z 00000001400036a0 f i encrypt-decrypt.obj
 0001:000026c0       ??9type_info@@QEBA_NAEBV0@@Z 00000001400036c0 f i encrypt-decrypt.obj
 0001:000026e0       ?name@type_info@@QEBAPEBDXZ 00000001400036e0 f i encrypt-decrypt.obj
 0001:000026f0       ??1Exception@CryptoPP@@UEAA@XZ 00000001400036f0 f i encrypt-decrypt.obj
 0001:00002720       ??0Exception@CryptoPP@@QEAA@W4ErrorType@01@AEBV?$basic_string@DU?$char_traits@D@std@@V?$allocator@D@2@@std@@@Z 0000000140003720 f i encrypt-decrypt.obj
 0001:00002770       ?what@Exception@CryptoPP@@UEBAPEBDXZ 0000000140003770 f i encrypt-decrypt.obj
 0001:00002780       ??_EInvalidKeyLength@CryptoPP@@UEAAPEAXI@Z 0000000140003780 f i cryptlib:cryptlib.obj
 0001:00002780       ??_ENoChannelSupport@BufferedTransformation@CryptoPP@@UEAAPEAXI@Z 0000000140003780 f i cryptlib:cryptlib.obj
 0001:00002780       ??_EBERDecodeErr@CryptoPP@@UEAAPEAXI@Z 0000000140003780 f i cryptlib:dll.obj
 0001:00002780       ??_GSelfTestFailure@CryptoPP@@UEAAPEAXI@Z 0000000140003780 f i cryptlib:dll.obj
 0001:00002780       ??_ESelfTestFailure@CryptoPP@@UEAAPEAXI@Z 0000000140003780 f i cryptlib:dll.obj
 0001:00002780       ??_GBERDecodeErr@CryptoPP@@UEAAPEAXI@Z 0000000140003780 f i cryptlib:dll.obj
 0001:00002780       ??_GInvalidKeyLength@CryptoPP@@UEAAPEAXI@Z 0000000140003780 f i cryptlib:cryptlib.obj
 0001:00002780       ??_GInvalidDataFormat@CryptoPP@@UEAAPEAXI@Z 0000000140003780 f i cryptlib:dll.obj
 0001:00002780       ??_EException@CryptoPP@@UEAAPEAXI@Z 0000000140003780 f i * CIL library *:* CIL module *
 0001:00002780       ??_EInvalidCiphertext@CryptoPP@@UEAAPEAXI@Z 0000000140003780 f i cryptlib:cryptlib.obj
 0001:00002780       ??_EBlockingInputOnly@BufferedTransformation@CryptoPP@@UEAAPEAXI@Z 0000000140003780 f i cryptlib:filters.obj
 0001:00002780       ??_GBlockingInputOnly@BufferedTransformation@CryptoPP@@UEAAPEAXI@Z 0000000140003780 f i cryptlib:filters.obj
 0001:00002780       ??_GInvalidCiphertext@CryptoPP@@UEAAPEAXI@Z 0000000140003780 f i cryptlib:cryptlib.obj
 0001:00002780       ??_EInvalidDataFormat@CryptoPP@@UEAAPEAXI@Z 0000000140003780 f i cryptlib:dll.obj
 0001:00002780       ??_GNoChannelSupport@BufferedTransformation@CryptoPP@@UEAAPEAXI@Z 0000000140003780 f i cryptlib:cryptlib.obj
 0001:00002780       ??_GException@CryptoPP@@UEAAPEAXI@Z 0000000140003780 f i encrypt-decrypt.obj
 0001:000027c0       ??0InvalidArgument@CryptoPP@@QEAA@AEBV?$basic_string@DU?$char_traits@D@std@@V?$allocator@D@2@@std@@@Z 00000001400037c0 f i encrypt-decrypt.obj
 0001:000027f0       ??_GNotImplemented@CryptoPP@@UEAAPEAXI@Z 00000001400037f0 f i encrypt-decrypt.obj
 0001:000027f0       ??_GInvalidArgument@CryptoPP@@UEAAPEAXI@Z 00000001400037f0 f i encrypt-decrypt.obj
 0001:000027f0       ??_GCannotFlush@CryptoPP@@UEAAPEAXI@Z 00000001400037f0 f i encrypt-decrypt.obj
 0001:000027f0       ??_EParameterNotUsed@AlgorithmParametersBase@CryptoPP@@UEAAPEAXI@Z 00000001400037f0 f i * CIL library *:* CIL module *
 0001:000027f0       ??_ENotImplemented@CryptoPP@@UEAAPEAXI@Z 00000001400037f0 f i * CIL library *:* CIL module *
 0001:000027f0       ??_GParameterNotUsed@AlgorithmParametersBase@CryptoPP@@UEAAPEAXI@Z 00000001400037f0 f i encrypt-decrypt.obj
 0001:000027f0       ??_ECannotFlush@CryptoPP@@UEAAPEAXI@Z 00000001400037f0 f i * CIL library *:* CIL module *
 0001:000027f0       ??_EInvalidArgument@CryptoPP@@UEAAPEAXI@Z 00000001400037f0 f i * CIL library *:* CIL module *
 0001:00002830       ??1InvalidArgument@CryptoPP@@UEAA@XZ 0000000140003830 f i encrypt-decrypt.obj
 0001:00002830       ??1NotImplemented@CryptoPP@@UEAA@XZ 0000000140003830 f i encrypt-decrypt.obj
 0001:00002830       ??1InvalidKeyLength@CryptoPP@@UEAA@XZ 0000000140003830 f i cryptlib:cryptlib.obj
 0001:00002830       ??1BlockingInputOnly@BufferedTransformation@CryptoPP@@UEAA@XZ 0000000140003830 f i cryptlib:filters.obj
 0001:00002830       ??1BERDecodeErr@CryptoPP@@UEAA@XZ 0000000140003830 f i cryptlib:dll.obj
 0001:00002830       ??1ParameterNotUsed@AlgorithmParametersBase@CryptoPP@@UEAA@XZ 0000000140003830 f i encrypt-decrypt.obj
 0001:00002830       ??1InvalidDataFormat@CryptoPP@@UEAA@XZ 0000000140003830 f i cryptlib:filters.obj
 0001:00002830       ??1CannotFlush@CryptoPP@@UEAA@XZ 0000000140003830 f i encrypt-decrypt.obj
 0001:00002830       ??1InvalidCiphertext@CryptoPP@@UEAA@XZ 0000000140003830 f i cryptlib:cryptlib.obj
 0001:00002830       ??1SelfTestFailure@CryptoPP@@UEAA@XZ 0000000140003830 f i cryptlib:dll.obj
 0001:00002830       ??1NoChannelSupport@BufferedTransformation@CryptoPP@@UEAA@XZ 0000000140003830 f i cryptlib:cryptlib.obj
 0001:00002840       ??0NotImplemented@CryptoPP@@QEAA@AEBV?$basic_string@DU?$char_traits@D@std@@V?$allocator@D@2@@std@@@Z 0000000140003840 f i encrypt-decrypt.obj
 0001:00002870       ??0CannotFlush@CryptoPP@@QEAA@AEBV?$basic_string@DU?$char_traits@D@std@@V?$allocator@D@2@@std@@@Z 0000000140003870 f i encrypt-decrypt.obj
 0001:000028a0       ??1CombinedNameValuePairs@CryptoPP@@UEAA@XZ 00000001400038a0 f i cryptlib:base64.obj
 0001:000028a0       ??1NameValuePairs@CryptoPP@@UEAA@XZ 00000001400038a0 f i encrypt-decrypt.obj
 0001:000028b0       ??0ValueTypeMismatch@NameValuePairs@CryptoPP@@QEAA@AEBV?$basic_string@DU?$char_traits@D@std@@V?$allocator@D@2@@std@@AEBVtype_info@@1@Z 00000001400038b0 f i encrypt-decrypt.obj
 0001:00002a00       ?GetIntValueWithDefault@NameValuePairs@CryptoPP@@QEBAHPEBDH@Z 0000000140003a00 f i encrypt-decrypt.obj
 0001:00002a10       ?ThrowIfTypeMismatch@NameValuePairs@CryptoPP@@SAXPEBDAEBVtype_info@@1@Z 0000000140003a10 f i encrypt-decrypt.obj
 0001:00002a90       ??_ENameValuePairs@CryptoPP@@UEAAPEAXI@Z 0000000140003a90 f i * CIL library *:* CIL module *
 0001:00002a90       ??_GNameValuePairs@CryptoPP@@UEAAPEAXI@Z 0000000140003a90 f i encrypt-decrypt.obj
 0001:00002ad0       ??_EValueTypeMismatch@NameValuePairs@CryptoPP@@UEAAPEAXI@Z 0000000140003ad0 f i * CIL library *:* CIL module *
 0001:00002ad0       ??_GValueTypeMismatch@NameValuePairs@CryptoPP@@UEAAPEAXI@Z 0000000140003ad0 f i encrypt-decrypt.obj
 0001:00002b10       ??1InputRejected@?$InputRejecting@VFilter@CryptoPP@@@CryptoPP@@UEAA@XZ 0000000140003b10 f i encrypt-decrypt.obj
 0001:00002b10       ??1ValueTypeMismatch@NameValuePairs@CryptoPP@@UEAA@XZ 0000000140003b10 f i encrypt-decrypt.obj
 0001:00002b10       ??1InputRejected@?$InputRejecting@VBufferedTransformation@CryptoPP@@@CryptoPP@@UEAA@XZ 0000000140003b10 f i encrypt-decrypt.obj
 0001:00002b20       ??0ValueTypeMismatch@NameValuePairs@CryptoPP@@QEAA@AEBV012@@Z 0000000140003b20 f i encrypt-decrypt.obj
 0001:00002b60       ??0InvalidArgument@CryptoPP@@QEAA@AEBV01@@Z 0000000140003b60 f i encrypt-decrypt.obj
 0001:00002b90       ??0Exception@CryptoPP@@QEAA@AEBV01@@Z 0000000140003b90 f i encrypt-decrypt.obj
 0001:00002be0       ?Clone@Clonable@CryptoPP@@UEBAPEAV12@XZ 0000000140003be0 f i encrypt-decrypt.obj
 0001:00002c20       ??0NotImplemented@CryptoPP@@QEAA@AEBV01@@Z 0000000140003c20 f i encrypt-decrypt.obj
 0001:00002c50       ?AlgorithmName@Algorithm@CryptoPP@@UEBA?AV?$basic_string@DU?$char_traits@D@std@@V?$allocator@D@2@@std@@XZ 0000000140003c50 f i encrypt-decrypt.obj
 0001:00002c80       ?AlgorithmProvider@Algorithm@CryptoPP@@UEBA?AV?$basic_string@DU?$char_traits@D@std@@V?$allocator@D@2@@std@@XZ 0000000140003c80 f i encrypt-decrypt.obj
 0001:00002cb0       ?IsValidKeyLength@SimpleKeyingInterface@CryptoPP@@UEBA_N_K@Z 0000000140003cb0 f i encrypt-decrypt.obj
 0001:00002cd0       ?Initialize@BufferedTransformation@CryptoPP@@UEAAXAEBVNameValuePairs@2@H@Z 0000000140003cd0 f i cryptlib:cryptlib.obj
 0001:00002cd0       ?MaxIVLength@SimpleKeyingInterface@CryptoPP@@UEBAIXZ 0000000140003cd0 f i encrypt-decrypt.obj
 0001:00002cd0       ?MinIVLength@SimpleKeyingInterface@CryptoPP@@UEBAIXZ 0000000140003cd0 f i encrypt-decrypt.obj
 0001:00002ce0       ?Resynchronize@SimpleKeyingInterface@CryptoPP@@UEAAXPEBEH@Z 0000000140003ce0 f i encrypt-decrypt.obj
 0001:00002d40       ?HasSSE2@CryptoPP@@YA_NXZ  0000000140003d40 f i cryptlib:rijndael.obj
 0001:00002d40       _should_initialize_environment 0000000140003d40 f i LIBCMT:env_mode.obj
 0001:00002d40       __acrt_uninitialize_command_line 0000000140003d40 f i libucrt:argv_data.obj
 0001:00002d40       ?Attachable@Filter@CryptoPP@@UEAA_NXZ 0000000140003d40 f i encrypt-decrypt.obj
 0001:00002d40       ?ShouldPropagateMessageEnd@Filter@CryptoPP@@MEBA_NXZ 0000000140003d40 f i encrypt-decrypt.obj
 0001:00002d40       ?ShouldPropagateMessageSeriesEnd@Filter@CryptoPP@@MEBA_NXZ 0000000140003d40 f i encrypt-decrypt.obj
 0001:00002d40       ?CPU_ProbeSSE2@CryptoPP@@YA_NXZ 0000000140003d40 f i cryptlib:sse_simd.obj
 0001:00002d40       ?IsForwardTransformation@?$BlockCipherFinal@$0A@VEnc@Rijndael@CryptoPP@@@CryptoPP@@UEBA_NXZ 0000000140003d40 f i encrypt-decrypt.obj
 0001:00002d40       ?IsPermutation@BlockTransformation@CryptoPP@@UEBA_NXZ 0000000140003d40 f i encrypt-decrypt.obj
 0001:00002d40       ?IsForwardTransformation@?$CFB_EncryptionTemplate@V?$AbstractPolicyHolder@VCFB_CipherAbstractPolicy@CryptoPP@@VCFB_ModePolicy@2@@CryptoPP@@@CryptoPP@@EEBA_NXZ 0000000140003d40 f i encrypt-decrypt.obj
 0001:00002d50       ?MandatoryBlockSize@StreamTransformation@CryptoPP@@UEBAIXZ 0000000140003d50 f i encrypt-decrypt.obj
 0001:00002d50       _get_startup_argv_mode     0000000140003d50 f i LIBCMT:argv_mode.obj
 0001:00002d50       ?OptimalNumberOfParallelBlocks@BlockTransformation@CryptoPP@@UEBAIXZ 0000000140003d50 f i encrypt-decrypt.obj
 0001:00002d50       ?raw_length@charNode@@UEBAHXZ 0000000140003d50 f i libvcruntime:undname.obj
 0001:00002d50       ?length@charNode@@UEBAHXZ  0000000140003d50 f i libvcruntime:undname.obj
 0001:00002d50       ?IVRequirement@CFB_ModePolicy@CryptoPP@@UEBA?AW4IV_Requirement@SimpleKeyingInterface@2@XZ 0000000140003d50 f i encrypt-decrypt.obj
 0001:00002d60       ?GetAutoSignalPropagation@BufferedTransformation@CryptoPP@@UEBAHXZ 0000000140003d60 f i encrypt-decrypt.obj
 0001:00002d60       _get_startup_thread_locale_mode 0000000140003d60 f i LIBCMT:thread_locale.obj
 0001:00002d60       ?AttachedTransformation@BufferedTransformation@CryptoPP@@UEAAPEAV12@XZ 0000000140003d60 f i encrypt-decrypt.obj
 0001:00002d60       ?CopyRangeTo2@Sink@CryptoPP@@UEBA_KAEAVBufferedTransformation@2@AEA_K_KAEBV?$basic_string@DU?$char_traits@D@std@@V?$allocator@D@2@@std@@_N@Z 0000000140003d60 f i encrypt-decrypt.obj
 0001:00002d60       _get_startup_new_mode      0000000140003d60 f i LIBCMT:new_mode.obj
 0001:00002d60       ?Put2@BitBucket@CryptoPP@@UEAA_KPEBE_KH_N@Z 0000000140003d60 f i cryptlib:cryptlib.obj
 0001:00002d60       ?NextPut@FilterWithBufferedInput@CryptoPP@@MEAAHPEBE_K@Z 0000000140003d60 f i encrypt-decrypt.obj
 0001:00002d60       ?MinLastBlockSize@StreamTransformation@CryptoPP@@UEBAIXZ 0000000140003d60 f i encrypt-decrypt.obj
 0001:00002d60       __scrt_initialize_winrt    0000000140003d60 f i LIBCMT:utility_desktop.obj
 0001:00002d60       __scrt_stub_for_initialize_mta 0000000140003d60 f i LIBCMT:utility_desktop.obj
 0001:00002d60       __scrt_exe_initialize_mta  0000000140003d60 f i LIBCMT:utility_desktop.obj
 0001:00002d60       ?IVSize@?$SimpleKeyingInterfaceImpl@V?$TwoBases@VBlockCipher@CryptoPP@@URijndael_Info@2@@CryptoPP@@V12@@CryptoPP@@UEBAIXZ 0000000140003d60 f i encrypt-decrypt.obj
 0001:00002d60       ?min@?$mersenne_twister_engine@I$0CA@$0CHA@$0BIN@$0BP@$0JJAILANP@$0L@$0PPPPPPPP@$06$0JNCMFGIA@$0P@$0OPMGAAAA@$0BC@$0GMAHIJGF@@std@@SAIXZ 0000000140003d60 f i utilities.obj
 0001:00002d60       ?GetOptimalBlockSizeUsed@StreamTransformation@CryptoPP@@UEBAIXZ 0000000140003d60 f i encrypt-decrypt.obj
 0001:00002d60       _matherr                   0000000140003d60 f i LIBCMT:matherr.obj
 0001:00002d60       ?ToEnum@?$EnumToType@W4ByteOrder@CryptoPP@@$0A@@CryptoPP@@SA?AW4ByteOrder@2@XZ 0000000140003d60 f i cryptlib:rijndael.obj
 0001:00002d60       _get_startup_commit_mode   0000000140003d60 f i LIBCMT:commit_mode.obj
 0001:00002d60       ?NumberOfMessageSeries@BufferedTransformation@CryptoPP@@UEBAIXZ 0000000140003d60 f i encrypt-decrypt.obj
 0001:00002d70       ?FIPS_140_2_ComplianceEnabled@CryptoPP@@YA_NXZ 0000000140003d70 f i cryptlib:fips140.obj
 0001:00002d70       ?PowerUpSelfTestInProgressOnThisThread@CryptoPP@@YA_NXZ 0000000140003d70 f i cryptlib:fips140.obj
 0001:00002d70       ?IsolatedFlush@?$CustomFlushPropagation@VSink@CryptoPP@@@CryptoPP@@EEAA_N_N0@Z 0000000140003d70 f i cryptlib:filters.obj
 0001:00002d70       ?CanModifyInput@BufferedTransformation@CryptoPP@@UEBA_NXZ 0000000140003d70 f i encrypt-decrypt.obj
 0001:00002d70       ?IsRandomAccess@?$CFB_CipherTemplate@V?$AbstractPolicyHolder@VCFB_CipherAbstractPolicy@CryptoPP@@VCFB_ModePolicy@2@@CryptoPP@@@CryptoPP@@UEBA_NXZ 0000000140003d70 f i encrypt-decrypt.obj
 0001:00002d70       ?IsLastBlockSpecial@StreamTransformation@CryptoPP@@UEBA_NXZ 0000000140003d70 f i encrypt-decrypt.obj
 0001:00002d70       ?GetNextMessageSeries@BufferedTransformation@CryptoPP@@UEAA_NXZ 0000000140003d70 f i encrypt-decrypt.obj
 0001:00002d70       ?IsSelfInverting@?$CFB_CipherTemplate@V?$AbstractPolicyHolder@VCFB_CipherAbstractPolicy@CryptoPP@@VCFB_ModePolicy@2@@CryptoPP@@@CryptoPP@@UEBA_NXZ 0000000140003d70 f i encrypt-decrypt.obj
 0001:00002d70       ?IsolatedMessageSeriesEnd@BufferedTransformation@CryptoPP@@UEAA_N_N@Z 0000000140003d70 f i encrypt-decrypt.obj
 0001:00002d70       ?IsolatedFlush@?$Bufferless@VBufferedTransformation@CryptoPP@@@CryptoPP@@UEAA_N_N0@Z 0000000140003d70 f i cryptlib:dll.obj
 0001:00002d70       ?IsolatedFlush@?$InputRejecting@VFilter@CryptoPP@@@CryptoPP@@UEAA_N_N0@Z 0000000140003d70 f i encrypt-decrypt.obj
 0001:00002d70       ?IsForwardTransformation@?$CFB_DecryptionTemplate@V?$AbstractPolicyHolder@VCFB_CipherAbstractPolicy@CryptoPP@@VCFB_ModePolicy@2@@CryptoPP@@@CryptoPP@@EEBA_NXZ 0000000140003d70 f i encrypt-decrypt.obj
 0001:00002d70       ?GetVoidValue@NullNameValuePairs@CryptoPP@@UEBA_NPEBDAEBVtype_info@@PEAX@Z 0000000140003d70 f i cryptlib:cryptlib.obj
 0001:00002d70       ?IsolatedFlush@?$Bufferless@VFilter@CryptoPP@@@CryptoPP@@UEAA_N_N0@Z 0000000140003d70 f i encrypt-decrypt.obj
 0001:00002d70       ?Attachable@BufferedTransformation@CryptoPP@@UEAA_NXZ 0000000140003d70 f i encrypt-decrypt.obj
 0001:00002d70       ?IsolatedFlush@?$Unflushable@VFilter@CryptoPP@@@CryptoPP@@UEAA_N_N0@Z 0000000140003d70 f i encrypt-decrypt.obj
 0001:00002d70       ?IsolatedFlush@?$Bufferless@VSink@CryptoPP@@@CryptoPP@@UEAA_N_N0@Z 0000000140003d70 f i encrypt-decrypt.obj
 0001:00002d70       ?InputBufferIsEmpty@?$Unflushable@VFilter@CryptoPP@@@CryptoPP@@MEBA_NXZ 0000000140003d70 f i encrypt-decrypt.obj
 0001:00002d70       ?IsolatedFlush@MessageQueue@CryptoPP@@UEAA_N_N0@Z 0000000140003d70 f i cryptlib:mqueue.obj
 0001:00002d70       ?IsolatedFlush@?$InputRejecting@VBufferedTransformation@CryptoPP@@@CryptoPP@@UEAA_N_N0@Z 0000000140003d70 f i encrypt-decrypt.obj
 0001:00002d80       ?Seek@StreamTransformation@CryptoPP@@UEAAX_K@Z 0000000140003d80 f i encrypt-decrypt.obj
 0001:00002dc0       ?GetAlgorithm@BlockCipher@CryptoPP@@MEBAAEBVAlgorithm@2@XZ 0000000140003dc0 f i encrypt-decrypt.obj
 0001:00002dc0       ?GetAlgorithm@SymmetricCipher@CryptoPP@@MEBAAEBVAlgorithm@2@XZ 0000000140003dc0 f i encrypt-decrypt.obj
 0001:00002dd0       ??0BufferedTransformation@CryptoPP@@QEAA@XZ 0000000140003dd0 f i encrypt-decrypt.obj
 0001:00002df0       ?CreatePutSpace@BufferedTransformation@CryptoPP@@UEAAPEAEAEA_K@Z 0000000140003df0 f i encrypt-decrypt.obj
 0001:00002e00       ?MessageEnd@BufferedTransformation@CryptoPP@@QEAA_NH_N@Z 0000000140003e00 f i encrypt-decrypt.obj
 0001:00002e30       ?PutModifiable2@BufferedTransformation@CryptoPP@@UEAA_KPEAE_KH_N@Z 0000000140003e30 f i encrypt-decrypt.obj
 0001:00002e50       _guard_check_icall_nop     0000000140003e50 f i LIBCMT:guard_support.obj
 0001:00002e50       ?FirstPut@SimpleProxyFilter@CryptoPP@@UEAAXPEBE@Z 0000000140003e50 f i encrypt-decrypt.obj
 0001:00002e50       ??3@YAXPEAXUImPlacementNewDummy@@0@Z 0000000140003e50 f i imgui.obj
 0001:00002e50       _initialize_denormal_control 0000000140003e50 f i LIBCMT:denormal_control.obj
 0001:00002e50       ?SetAutoSignalPropagation@BufferedTransformation@CryptoPP@@UEAAXH@Z 0000000140003e50 f i encrypt-decrypt.obj
 0001:00002e50       ?InitializeDerived@FilterWithBufferedInput@CryptoPP@@MEAAXAEBVNameValuePairs@2@@Z 0000000140003e50 f i encrypt-decrypt.obj
 0001:00002e50       ?FlushDerived@FilterWithBufferedInput@CryptoPP@@MEAAXXZ 0000000140003e50 f i encrypt-decrypt.obj
 0001:00002e50       ?IsolatedInitialize@BitBucket@CryptoPP@@UEAAXAEBVNameValuePairs@2@@Z 0000000140003e50 f i cryptlib:cryptlib.obj
 0001:00002e50       ?IsolatedInitialize@?$CustomSignalPropagation@VSink@CryptoPP@@@CryptoPP@@EEAAXAEBVNameValuePairs@2@@Z 0000000140003e50 f i cryptlib:filters.obj
 0001:00002e50       ?NextPutSingle@FilterWithBufferedInput@CryptoPP@@MEAAXPEBE@Z 0000000140003e50 f i encrypt-decrypt.obj
 0001:00002e50       ?AssertValidKeyLength@SimpleKeyingInterface@CryptoPP@@IEBAX_K@Z 0000000140003e50 f i cryptlib:rijndael.obj
 0001:00002e50       ?CheckSize@?$AllocatorBase@E@CryptoPP@@KAX_K@Z 0000000140003e50 f i encrypt-decrypt.obj
 0001:00002e50       _initialize_invalid_parameter_handler 0000000140003e50 f i LIBCMT:invalid_parameter_handler.obj
 0001:00002e50       ?StoreInitialize@BERGeneralDecoder@CryptoPP@@EEAAXAEBVNameValuePairs@2@@Z 0000000140003e50 f i cryptlib:dll.obj
 0001:00002e60       ?NumberOfMessagesInThisSeries@BufferedTransformation@CryptoPP@@UEBAIXZ 0000000140003e60 f i encrypt-decrypt.obj
 0001:00002e70       ?AttachedTransformation@BufferedTransformation@CryptoPP@@UEBAPEBV12@XZ 0000000140003e70 f i encrypt-decrypt.obj
 0001:00002e80       ?Detach@BufferedTransformation@CryptoPP@@UEAAXPEAV12@@Z 0000000140003e80 f i encrypt-decrypt.obj
 0001:00002ec0       ??$SecureWipeBuffer@E@CryptoPP@@YAXPEAE_K@Z 0000000140003ec0 f i encrypt-decrypt.obj
 0001:00002ee0       ??$SecureWipeBuffer@I@CryptoPP@@YAXPEAI_K@Z 0000000140003ee0 f i encrypt-decrypt.obj
 0001:00002f00       ??0Store@CryptoPP@@QEAA@XZ 0000000140003f00 f i encrypt-decrypt.obj
 0001:00002f20       ?IsolatedInitialize@Store@CryptoPP@@UEAAXAEBVNameValuePairs@2@@Z 0000000140003f20 f i encrypt-decrypt.obj
 0001:00002f30       ?NumberOfMessages@Store@CryptoPP@@UEBAIXZ 0000000140003f30 f i encrypt-decrypt.obj
 0001:00002f40       ?TransferTo2@Sink@CryptoPP@@UEAA_KAEAVBufferedTransformation@2@AEA_KAEBV?$basic_string@DU?$char_traits@D@std@@V?$allocator@D@2@@std@@_N@Z 0000000140003f40 f i encrypt-decrypt.obj
 0001:00002f50       ?StaticAlgorithmName@Rijndael_Info@CryptoPP@@SAPEBDXZ 0000000140003f50 f i encrypt-decrypt.obj
 0001:00002f60       ?IV@Name@CryptoPP@@YAPEBDXZ 0000000140003f60 f i encrypt-decrypt.obj
 0001:00002f70       ?FeedbackSize@Name@CryptoPP@@YAPEBDXZ 0000000140003f70 f i encrypt-decrypt.obj
 0001:00002f80       ?Log2Base@Name@CryptoPP@@YAPEBDXZ 0000000140003f80 f i encrypt-decrypt.obj
 0001:00002f90       ?DecodingLookupArray@Name@CryptoPP@@YAPEBDXZ 0000000140003f90 f i encrypt-decrypt.obj
 0001:00002fa0       ?InsertLineBreaks@Name@CryptoPP@@YAPEBDXZ 0000000140003fa0 f i encrypt-decrypt.obj
 0001:00002fb0       ?MaxLineLength@Name@CryptoPP@@YAPEBDXZ 0000000140003fb0 f i encrypt-decrypt.obj
 0001:00002fc0       ??0ConstByteArrayParameter@CryptoPP@@QEAA@PEBD_N@Z 0000000140003fc0 f i encrypt-decrypt.obj
 0001:00003000       ??0ConstByteArrayParameter@CryptoPP@@QEAA@PEBE_K_N@Z 0000000140004000 f i encrypt-decrypt.obj
 0001:00003060       ?Assign@ConstByteArrayParameter@CryptoPP@@QEAAXPEBE_K_N@Z 0000000140004060 f i encrypt-decrypt.obj
 0001:00003070       ??0ParameterNotUsed@AlgorithmParametersBase@CryptoPP@@QEAA@PEBD@Z 0000000140004070 f i encrypt-decrypt.obj
 0001:00003110       ??1AlgorithmParametersBase@CryptoPP@@UEAA@XZ 0000000140004110 f i encrypt-decrypt.obj
 0001:00003170       ??0AlgorithmParametersBase@CryptoPP@@QEAA@AEBV01@@Z 0000000140004170 f i encrypt-decrypt.obj
 0001:000031e0       ??0AlgorithmParametersBase@CryptoPP@@QEAA@PEBD_N@Z 00000001400041e0 f i encrypt-decrypt.obj
 0001:00003210       ??_EAlgorithmParametersBase@CryptoPP@@UEAAPEAXI@Z 0000000140004210 f i * CIL library *:* CIL module *
 0001:00003210       ??_GAlgorithmParametersBase@CryptoPP@@UEAAPEAXI@Z 0000000140004210 f i encrypt-decrypt.obj
 0001:00003250       ??0ParameterNotUsed@AlgorithmParametersBase@CryptoPP@@QEAA@AEBV012@@Z 0000000140004250 f i encrypt-decrypt.obj
 0001:00003280       ??1CipherModeBase@CryptoPP@@UEAA@XZ 0000000140004280 f i encrypt-decrypt.obj
 0001:00003280       ??1ConstByteArrayParameter@CryptoPP@@QEAA@XZ 0000000140004280 f i encrypt-decrypt.obj
 0001:00003290       ?MinKeyLength@CipherModeBase@CryptoPP@@UEBA_KXZ 0000000140004290 f i encrypt-decrypt.obj
 0001:000032a0       ?MaxKeyLength@CipherModeBase@CryptoPP@@UEBA_KXZ 00000001400042a0 f i encrypt-decrypt.obj
 0001:000032b0       ?DefaultKeyLength@CipherModeBase@CryptoPP@@UEBA_KXZ 00000001400042b0 f i encrypt-decrypt.obj
 0001:000032c0       ?GetValidKeyLength@CipherModeBase@CryptoPP@@UEBA_K_K@Z 00000001400042c0 f i encrypt-decrypt.obj
 0001:000032d0       ?IsValidKeyLength@CipherModeBase@CryptoPP@@UEBA_N_K@Z 00000001400042d0 f i encrypt-decrypt.obj
 0001:000032e0       ?IVSize@CipherModeBase@CryptoPP@@UEBAIXZ 00000001400042e0 f i encrypt-decrypt.obj
 0001:000032f0       ??0CipherModeBase@CryptoPP@@IEAA@XZ 00000001400042f0 f i encrypt-decrypt.obj
 0001:00003320       ?BlockSize@CipherModeBase@CryptoPP@@IEBAIXZ 0000000140004320 f i encrypt-decrypt.obj
 0001:00003330       ??0SymmetricCipher@CryptoPP@@QEAA@XZ 0000000140004330 f i encrypt-decrypt.obj
 0001:00003330       ??0BlockCipher@CryptoPP@@QEAA@XZ 0000000140004330 f i encrypt-decrypt.obj
 0001:00003350       ??0BlockTransformation@CryptoPP@@QEAA@XZ 0000000140004350 f i encrypt-decrypt.obj
 0001:00003350       ??0StreamTransformation@CryptoPP@@QEAA@XZ 0000000140004350 f i encrypt-decrypt.obj
 0001:00003370       ?StaticAlgorithmName@CFB_ModePolicy@CryptoPP@@SAPEBDXZ 0000000140004370 f i encrypt-decrypt.obj
 0001:00003380       ??1CFB_ModePolicy@CryptoPP@@UEAA@XZ 0000000140004380 f i encrypt-decrypt.obj
 0001:000033a0       ??0CFB_ModePolicy@CryptoPP@@QEAA@XZ 00000001400043a0 f i encrypt-decrypt.obj
 0001:000033d0       ?GetBytesPerIteration@CFB_ModePolicy@CryptoPP@@MEBAIXZ 00000001400043d0 f i encrypt-decrypt.obj
 0001:000033e0       ?CanIterate@CFB_ModePolicy@CryptoPP@@MEBA_NXZ 00000001400043e0 f i encrypt-decrypt.obj
 0001:00003400       ??1?$ModePolicyCommonTemplate@VCFB_CipherAbstractPolicy@CryptoPP@@@CryptoPP@@UEAA@XZ 0000000140004400 f i encrypt-decrypt.obj
 0001:00003410       ??0?$ModePolicyCommonTemplate@VCFB_CipherAbstractPolicy@CryptoPP@@@CryptoPP@@QEAA@XZ 0000000140004410 f i encrypt-decrypt.obj
 0001:00003430       ??0?$InputRejecting@VBufferedTransformation@CryptoPP@@@CryptoPP@@QEAA@XZ 0000000140004430 f i encrypt-decrypt.obj
 0001:00003430       ??0Sink@CryptoPP@@QEAA@XZ  0000000140004430 f i encrypt-decrypt.obj
 0001:00003450       ??1Filter@CryptoPP@@UEAA@XZ 0000000140004450 f i encrypt-decrypt.obj
 0001:00003460       ??1?$InputRejecting@VFilter@CryptoPP@@@CryptoPP@@UEAA@XZ 0000000140004460 f i encrypt-decrypt.obj
 0001:00003460       ??1?$Bufferless@VFilter@CryptoPP@@@CryptoPP@@UEAA@XZ 0000000140004460 f i encrypt-decrypt.obj
 0001:00003460       ??1?$Unflushable@VFilter@CryptoPP@@@CryptoPP@@UEAA@XZ 0000000140004460 f i encrypt-decrypt.obj
 0001:00003470       ??0?$Unflushable@VFilter@CryptoPP@@@CryptoPP@@QEAA@XZ 0000000140004470 f i encrypt-decrypt.obj
 0001:00003470       ??0?$InputRejecting@VFilter@CryptoPP@@@CryptoPP@@QEAA@XZ 0000000140004470 f i encrypt-decrypt.obj
 0001:00003470       ??0?$Bufferless@VFilter@CryptoPP@@@CryptoPP@@QEAA@XZ 0000000140004470 f i encrypt-decrypt.obj
 0001:00003490       ??1FilterWithBufferedInput@CryptoPP@@UEAA@XZ 0000000140004490 f i encrypt-decrypt.obj
 0001:000034d0       ?Put2@FilterWithBufferedInput@CryptoPP@@UEAA_KPEBE_KH_N@Z 00000001400044d0 f i encrypt-decrypt.obj
 0001:000034f0       ?PutModifiable2@FilterWithBufferedInput@CryptoPP@@UEAA_KPEAE_KH_N@Z 00000001400044f0 f i encrypt-decrypt.obj
 0001:00003510       ?DidFirstPut@FilterWithBufferedInput@CryptoPP@@MEBA_NXZ 0000000140004510 f i encrypt-decrypt.obj
 0001:00003520       ?GetFirstPutSize@FilterWithBufferedInput@CryptoPP@@MEBA_KXZ 0000000140004520 f i encrypt-decrypt.obj
 0001:00003530       ?GetBlockPutSize@FilterWithBufferedInput@CryptoPP@@MEBA_KXZ 0000000140004530 f i encrypt-decrypt.obj
 0001:00003540       ?GetLastPutSize@FilterWithBufferedInput@CryptoPP@@MEBA_KXZ 0000000140004540 f i encrypt-decrypt.obj
 0001:00003550       ?InitializeDerivedAndReturnNewSizes@FilterWithBufferedInput@CryptoPP@@MEAAXAEBVNameValuePairs@2@AEA_K11@Z 0000000140004550 f i encrypt-decrypt.obj
 0001:00003560       ?NextPutModifiable@FilterWithBufferedInput@CryptoPP@@MEAAXPEAE_K@Z 0000000140004560 f i encrypt-decrypt.obj
 0001:00003570       ??_EFilterWithBufferedInput@CryptoPP@@UEAAPEAXI@Z 0000000140004570 f i * CIL library *:* CIL module *
 0001:00003570       ??_GFilterWithBufferedInput@CryptoPP@@UEAAPEAXI@Z 0000000140004570 f i encrypt-decrypt.obj
 0001:000035b0       ??1BlockQueue@FilterWithBufferedInput@CryptoPP@@QEAA@XZ 00000001400045b0 f i encrypt-decrypt.obj
 0001:000035c0       ??1ProxyFilter@CryptoPP@@UEAA@XZ 00000001400045c0 f i encrypt-decrypt.obj
 0001:00003600       ??_GProxyFilter@CryptoPP@@UEAAPEAXI@Z 0000000140004600 f i encrypt-decrypt.obj
 0001:00003600       ??_EProxyFilter@CryptoPP@@UEAAPEAXI@Z 0000000140004600 f i * CIL library *:* CIL module *
 0001:00003640       ??0SimpleProxyFilter@CryptoPP@@QEAA@PEAVBufferedTransformation@1@0@Z 0000000140004640 f i encrypt-decrypt.obj
 0001:00003680       ?LastPut@SimpleProxyFilter@CryptoPP@@UEAAXPEBE_K@Z 0000000140004680 f i encrypt-decrypt.obj
 0001:000036a0       ??_GSimpleProxyFilter@CryptoPP@@UEAAPEAXI@Z 00000001400046a0 f i encrypt-decrypt.obj
 0001:000036a0       ??_ESimpleProxyFilter@CryptoPP@@UEAAPEAXI@Z 00000001400046a0 f i * CIL library *:* CIL module *
 0001:000036e0       ??1SimpleProxyFilter@CryptoPP@@UEAA@XZ 00000001400046e0 f i encrypt-decrypt.obj
 0001:000036f0       ??0?$Bufferless@VSink@CryptoPP@@@CryptoPP@@QEAA@XZ 00000001400046f0 f i encrypt-decrypt.obj
 0001:00003710       ??0StringStore@CryptoPP@@QEAA@PEBD@Z 0000000140004710 f i encrypt-decrypt.obj
 0001:00003780       ??_EStringStore@CryptoPP@@UEAAPEAXI@Z 0000000140004780 f i * CIL library *:* CIL module *
 0001:00003780       ??_GStringStore@CryptoPP@@UEAAPEAXI@Z 0000000140004780 f i encrypt-decrypt.obj
 0001:000037b0       ??1AlgorithmParameters@CryptoPP@@UEAA@XZ 00000001400047b0 f i encrypt-decrypt.obj
 0001:000037d0       ??1Source@CryptoPP@@UEAA@XZ 00000001400047d0 f i encrypt-decrypt.obj
 0001:000037e0       ??0Source@CryptoPP@@QEAA@PEAVBufferedTransformation@1@@Z 00000001400047e0 f i encrypt-decrypt.obj
 0001:00003820       ?PumpAll@Source@CryptoPP@@QEAAXXZ 0000000140004820 f i encrypt-decrypt.obj
 0001:00003830       ?SourceInitialize@Source@CryptoPP@@IEAAX_NAEBVNameValuePairs@2@@Z 0000000140004830 f i encrypt-decrypt.obj
 0001:00003850       ??0StringSource@CryptoPP@@QEAA@AEBV?$basic_string@DU?$char_traits@D@std@@V?$allocator@D@2@@std@@_NPEAVBufferedTransformation@1@@Z 0000000140004850 f i encrypt-decrypt.obj
 0001:000038e0       ??_GStringSource@CryptoPP@@UEAAPEAXI@Z 00000001400048e0 f i encrypt-decrypt.obj
 0001:000038e0       ??_EStringSource@CryptoPP@@UEAAPEAXI@Z 00000001400048e0 f i * CIL library *:* CIL module *
 0001:00003920       ??1StringSource@CryptoPP@@UEAA@XZ 0000000140004920 f i encrypt-decrypt.obj
 0001:00003930       ??0BaseN_Encoder@CryptoPP@@QEAA@PEAVBufferedTransformation@1@@Z 0000000140004930 f i encrypt-decrypt.obj
 0001:000039a0       ??_EBaseN_Encoder@CryptoPP@@UEAAPEAXI@Z 00000001400049a0 f i * CIL library *:* CIL module *
 0001:000039a0       ??_GBaseN_Encoder@CryptoPP@@UEAAPEAXI@Z 00000001400049a0 f i encrypt-decrypt.obj
 0001:000039e0       ??1BaseN_Encoder@CryptoPP@@UEAA@XZ 00000001400049e0 f i encrypt-decrypt.obj
 0001:00003a00       ??0BaseN_Decoder@CryptoPP@@QEAA@PEBHHPEAVBufferedTransformation@1@@Z 0000000140004a00 f i encrypt-decrypt.obj
 0001:00003ac0       ??_EBaseN_Decoder@CryptoPP@@UEAAPEAXI@Z 0000000140004ac0 f i * CIL library *:* CIL module *
 0001:00003ac0       ??_GBaseN_Decoder@CryptoPP@@UEAAPEAXI@Z 0000000140004ac0 f i encrypt-decrypt.obj
 0001:00003b00       ??1BaseN_Decoder@CryptoPP@@UEAA@XZ 0000000140004b00 f i encrypt-decrypt.obj
 0001:00003b20       ??0Grouper@CryptoPP@@QEAA@PEAVBufferedTransformation@1@@Z 0000000140004b20 f i encrypt-decrypt.obj
 0001:00003b80       ??_EGrouper@CryptoPP@@UEAAPEAXI@Z 0000000140004b80 f i * CIL library *:* CIL module *
 0001:00003b80       ??_GGrouper@CryptoPP@@UEAAPEAXI@Z 0000000140004b80 f i encrypt-decrypt.obj
 0001:00003bc0       ??1Grouper@CryptoPP@@UEAA@XZ 0000000140004bc0 f i encrypt-decrypt.obj
 0001:00003bf0       ??0Base64Encoder@CryptoPP@@QEAA@PEAVBufferedTransformation@1@_NH@Z 0000000140004bf0 f i encrypt-decrypt.obj
 0001:00003cd0       ??_EBase64Encoder@CryptoPP@@UEAAPEAXI@Z 0000000140004cd0 f i * CIL library *:* CIL module *
 0001:00003cd0       ??_GBase64Encoder@CryptoPP@@UEAAPEAXI@Z 0000000140004cd0 f i encrypt-decrypt.obj
 0001:00003d10       ??1Base64Encoder@CryptoPP@@UEAA@XZ 0000000140004d10 f i encrypt-decrypt.obj
 0001:00003d20       ??0Base64Decoder@CryptoPP@@QEAA@PEAVBufferedTransformation@1@@Z 0000000140004d20 f i encrypt-decrypt.obj
 0001:00003d70       ??_GBase64Decoder@CryptoPP@@UEAAPEAXI@Z 0000000140004d70 f i encrypt-decrypt.obj
 0001:00003d70       ??_EBase64Decoder@CryptoPP@@UEAAPEAXI@Z 0000000140004d70 f i * CIL library *:* CIL module *
 0001:00003db0       ??1Base64Decoder@CryptoPP@@UEAA@XZ 0000000140004db0 f i encrypt-decrypt.obj
 0001:00003dc0       ??1?$CipherModeFinalTemplate_CipherHolder@V?$BlockCipherFinal@$0A@VEnc@Rijndael@CryptoPP@@@CryptoPP@@V?$ConcretePolicyHolder@VEmpty@CryptoPP@@V?$CFB_EncryptionTemplate@V?$AbstractPolicyHolder@VCFB_CipherAbstractPolicy@CryptoPP@@VCFB_ModePolicy@2@@CryptoPP@@@2@VCFB_CipherAbstractPolicy@2@@2@@CryptoPP@@UEAA@XZ 0000000140004dc0 f i encrypt-decrypt.obj
 0001:00003de0       ??1?$ObjectHolder@V?$BlockCipherFinal@$0A@VEnc@Rijndael@CryptoPP@@@CryptoPP@@@CryptoPP@@QEAA@XZ 0000000140004de0 f i encrypt-decrypt.obj
 0001:00003df0       ??1?$AlgorithmImpl@V?$ConcretePolicyHolder@VEmpty@CryptoPP@@V?$CFB_EncryptionTemplate@V?$AbstractPolicyHolder@VCFB_CipherAbstractPolicy@CryptoPP@@VCFB_ModePolicy@2@@CryptoPP@@@2@VCFB_CipherAbstractPolicy@2@@CryptoPP@@V?$CipherModeFinalTemplate_CipherHolder@V?$BlockCipherFinal@$0A@VEnc@Rijndael@CryptoPP@@@CryptoPP@@V?$ConcretePolicyHolder@VEmpty@CryptoPP@@V?$CFB_EncryptionTemplate@V?$AbstractPolicyHolder@VCFB_CipherAbstractPolicy@CryptoPP@@VCFB_ModePolicy@2@@CryptoPP@@@2@VCFB_CipherAbstractPolicy@2@@2@@2@@CryptoPP@@UEAA@XZ 0000000140004df0 f i encrypt-decrypt.obj
 0001:00003e00       ??1?$BlockCipherFinal@$0A@VEnc@Rijndael@CryptoPP@@@CryptoPP@@UEAA@XZ 0000000140004e00 f i encrypt-decrypt.obj
 0001:00003e10       ??1?$ClonableImpl@V?$BlockCipherFinal@$0A@VEnc@Rijndael@CryptoPP@@@CryptoPP@@VEnc@Rijndael@2@@CryptoPP@@UEAA@XZ 0000000140004e10 f i encrypt-decrypt.obj
 0001:00003e20       ??1Enc@Rijndael@CryptoPP@@UEAA@XZ 0000000140004e20 f i encrypt-decrypt.obj
 0001:00003e30       ??1Base@Rijndael@CryptoPP@@UEAA@XZ 0000000140004e30 f i encrypt-decrypt.obj
 0001:00003e50       ??1?$CipherModeFinalTemplate_CipherHolder@V?$BlockCipherFinal@$0A@VEnc@Rijndael@CryptoPP@@@CryptoPP@@V?$ConcretePolicyHolder@VEmpty@CryptoPP@@V?$CFB_DecryptionTemplate@V?$AbstractPolicyHolder@VCFB_CipherAbstractPolicy@CryptoPP@@VCFB_ModePolicy@2@@CryptoPP@@@2@VCFB_CipherAbstractPolicy@2@@2@@CryptoPP@@UEAA@XZ 0000000140004e50 f i encrypt-decrypt.obj
 0001:00003e70       ??1?$AlgorithmImpl@V?$ConcretePolicyHolder@VEmpty@CryptoPP@@V?$CFB_DecryptionTemplate@V?$AbstractPolicyHolder@VCFB_CipherAbstractPolicy@CryptoPP@@VCFB_ModePolicy@2@@CryptoPP@@@2@VCFB_CipherAbstractPolicy@2@@CryptoPP@@V?$CipherModeFinalTemplate_CipherHolder@V?$BlockCipherFinal@$0A@VEnc@Rijndael@CryptoPP@@@CryptoPP@@V?$ConcretePolicyHolder@VEmpty@CryptoPP@@V?$CFB_DecryptionTemplate@V?$AbstractPolicyHolder@VCFB_CipherAbstractPolicy@CryptoPP@@VCFB_ModePolicy@2@@CryptoPP@@@2@VCFB_CipherAbstractPolicy@2@@2@@2@@CryptoPP@@UEAA@XZ 0000000140004e70 f i encrypt-decrypt.obj
 0001:00003e80       ?AlgorithmProvider@?$CipherModeFinalTemplate_CipherHolder@V?$BlockCipherFinal@$0A@VEnc@Rijndael@CryptoPP@@@CryptoPP@@V?$ConcretePolicyHolder@VEmpty@CryptoPP@@V?$CFB_DecryptionTemplate@V?$AbstractPolicyHolder@VCFB_CipherAbstractPolicy@CryptoPP@@VCFB_ModePolicy@2@@CryptoPP@@@2@VCFB_CipherAbstractPolicy@2@@2@@CryptoPP@@UEBA?AV?$basic_string@DU?$char_traits@D@std@@V?$allocator@D@2@@std@@XZ 0000000140004e80 f i encrypt-decrypt.obj
 0001:00003e80       ?AlgorithmProvider@?$CipherModeFinalTemplate_CipherHolder@V?$BlockCipherFinal@$0A@VEnc@Rijndael@CryptoPP@@@CryptoPP@@V?$ConcretePolicyHolder@VEmpty@CryptoPP@@V?$CFB_EncryptionTemplate@V?$AbstractPolicyHolder@VCFB_CipherAbstractPolicy@CryptoPP@@VCFB_ModePolicy@2@@CryptoPP@@@2@VCFB_CipherAbstractPolicy@2@@2@@CryptoPP@@UEBA?AV?$basic_string@DU?$char_traits@D@std@@V?$allocator@D@2@@std@@XZ 0000000140004e80 f i encrypt-decrypt.obj
 0001:00003ea0       ??0?$CipherModeFinalTemplate_CipherHolder@V?$BlockCipherFinal@$0A@VEnc@Rijndael@CryptoPP@@@CryptoPP@@V?$ConcretePolicyHolder@VEmpty@CryptoPP@@V?$CFB_DecryptionTemplate@V?$AbstractPolicyHolder@VCFB_CipherAbstractPolicy@CryptoPP@@VCFB_ModePolicy@2@@CryptoPP@@@2@VCFB_CipherAbstractPolicy@2@@2@@CryptoPP@@QEAA@PEBE_K0@Z 0000000140004ea0 f i encrypt-decrypt.obj
 0001:00003f70       ?AlgorithmName@?$AlgorithmImpl@V?$ConcretePolicyHolder@VEmpty@CryptoPP@@V?$CFB_EncryptionTemplate@V?$AbstractPolicyHolder@VCFB_CipherAbstractPolicy@CryptoPP@@VCFB_ModePolicy@2@@CryptoPP@@@2@VCFB_CipherAbstractPolicy@2@@CryptoPP@@V?$CipherModeFinalTemplate_CipherHolder@V?$BlockCipherFinal@$0A@VEnc@Rijndael@CryptoPP@@@CryptoPP@@V?$ConcretePolicyHolder@VEmpty@CryptoPP@@V?$CFB_EncryptionTemplate@V?$AbstractPolicyHolder@VCFB_CipherAbstractPolicy@CryptoPP@@VCFB_ModePolicy@2@@CryptoPP@@@2@VCFB_CipherAbstractPolicy@2@@2@@2@@CryptoPP@@UEBA?AV?$basic_string@DU?$char_traits@D@std@@V?$allocator@D@2@@std@@XZ 0000000140004f70 f i encrypt-decrypt.obj
 0001:00003f70       ?AlgorithmName@?$AlgorithmImpl@V?$ConcretePolicyHolder@VEmpty@CryptoPP@@V?$CFB_DecryptionTemplate@V?$AbstractPolicyHolder@VCFB_CipherAbstractPolicy@CryptoPP@@VCFB_ModePolicy@2@@CryptoPP@@@2@VCFB_CipherAbstractPolicy@2@@CryptoPP@@V?$CipherModeFinalTemplate_CipherHolder@V?$BlockCipherFinal@$0A@VEnc@Rijndael@CryptoPP@@@CryptoPP@@V?$ConcretePolicyHolder@VEmpty@CryptoPP@@V?$CFB_DecryptionTemplate@V?$AbstractPolicyHolder@VCFB_CipherAbstractPolicy@CryptoPP@@VCFB_ModePolicy@2@@CryptoPP@@@2@VCFB_CipherAbstractPolicy@2@@2@@2@@CryptoPP@@UEBA?AV?$basic_string@DU?$char_traits@D@std@@V?$allocator@D@2@@std@@XZ 0000000140004f70 f i encrypt-decrypt.obj
 0001:00003f90       ?AccessPolicy@?$ConcretePolicyHolder@VEmpty@CryptoPP@@V?$CFB_EncryptionTemplate@V?$AbstractPolicyHolder@VCFB_CipherAbstractPolicy@CryptoPP@@VCFB_ModePolicy@2@@CryptoPP@@@2@VCFB_CipherAbstractPolicy@2@@CryptoPP@@MEAAAEAVCFB_CipherAbstractPolicy@2@XZ 0000000140004f90 f i encrypt-decrypt.obj
 0001:00003f90       ?GetPolicy@?$ConcretePolicyHolder@VEmpty@CryptoPP@@V?$CFB_EncryptionTemplate@V?$AbstractPolicyHolder@VCFB_CipherAbstractPolicy@CryptoPP@@VCFB_ModePolicy@2@@CryptoPP@@@2@VCFB_CipherAbstractPolicy@2@@CryptoPP@@MEBAAEBVCFB_CipherAbstractPolicy@2@XZ 0000000140004f90 f i encrypt-decrypt.obj
 0001:00003f90       ?AccessPolicy@?$ConcretePolicyHolder@VEmpty@CryptoPP@@V?$CFB_DecryptionTemplate@V?$AbstractPolicyHolder@VCFB_CipherAbstractPolicy@CryptoPP@@VCFB_ModePolicy@2@@CryptoPP@@@2@VCFB_CipherAbstractPolicy@2@@CryptoPP@@MEAAAEAVCFB_CipherAbstractPolicy@2@XZ 0000000140004f90 f i encrypt-decrypt.obj
 0001:00003f90       ?GetPolicy@?$ConcretePolicyHolder@VEmpty@CryptoPP@@V?$CFB_DecryptionTemplate@V?$AbstractPolicyHolder@VCFB_CipherAbstractPolicy@CryptoPP@@VCFB_ModePolicy@2@@CryptoPP@@@2@VCFB_CipherAbstractPolicy@2@@CryptoPP@@MEBAAEBVCFB_CipherAbstractPolicy@2@XZ 0000000140004f90 f i encrypt-decrypt.obj
 0001:00003fa0       ??1?$ConcretePolicyHolder@VEmpty@CryptoPP@@V?$CFB_DecryptionTemplate@V?$AbstractPolicyHolder@VCFB_CipherAbstractPolicy@CryptoPP@@VCFB_ModePolicy@2@@CryptoPP@@@2@VCFB_CipherAbstractPolicy@2@@CryptoPP@@UEAA@XZ 0000000140004fa0 f i encrypt-decrypt.obj
 0001:00003fd0       ??0?$CipherModeFinalTemplate_CipherHolder@V?$BlockCipherFinal@$0A@VEnc@Rijndael@CryptoPP@@@CryptoPP@@V?$ConcretePolicyHolder@VEmpty@CryptoPP@@V?$CFB_EncryptionTemplate@V?$AbstractPolicyHolder@VCFB_CipherAbstractPolicy@CryptoPP@@VCFB_ModePolicy@2@@CryptoPP@@@2@VCFB_CipherAbstractPolicy@2@@2@@CryptoPP@@QEAA@PEBE_K0@Z 0000000140004fd0 f i encrypt-decrypt.obj
 0001:000040a0       ??1?$ConcretePolicyHolder@VEmpty@CryptoPP@@V?$CFB_EncryptionTemplate@V?$AbstractPolicyHolder@VCFB_CipherAbstractPolicy@CryptoPP@@VCFB_ModePolicy@2@@CryptoPP@@@2@VCFB_CipherAbstractPolicy@2@@CryptoPP@@UEAA@XZ 00000001400050a0 f i encrypt-decrypt.obj
 0001:000040d0       ?Clone@?$ClonableImpl@V?$BlockCipherFinal@$0A@VEnc@Rijndael@CryptoPP@@@CryptoPP@@VEnc@Rijndael@2@@CryptoPP@@UEBAPEAVClonable@2@XZ 00000001400050d0 f i encrypt-decrypt.obj
 0001:00004110       ?GetAutoSignalPropagation@?$SourceTemplate@VStringStore@CryptoPP@@@CryptoPP@@UEBAHXZ 0000000140005110 f i encrypt-decrypt.obj
 0001:00004120       ?SetAutoSignalPropagation@?$SourceTemplate@VStringStore@CryptoPP@@@CryptoPP@@UEAAXH@Z 0000000140005120 f i encrypt-decrypt.obj
 0001:00004130       ?SourceExhausted@?$SourceTemplate@VStringStore@CryptoPP@@@CryptoPP@@UEBA_NXZ 0000000140005130 f i encrypt-decrypt.obj
 0001:00004170       ?PumpAll2@?$SourceTemplate@VStringStore@CryptoPP@@@CryptoPP@@UEAA_K_N@Z 0000000140005170 f i encrypt-decrypt.obj
 0001:000041b0       ?PumpMessages2@?$SourceTemplate@VStringStore@CryptoPP@@@CryptoPP@@UEAA_KAEAI_N@Z 00000001400051b0 f i encrypt-decrypt.obj
 0001:00004200       ?Pump2@?$SourceTemplate@VStringStore@CryptoPP@@@CryptoPP@@UEAA_KAEA_K_N@Z 0000000140005200 f i encrypt-decrypt.obj
 0001:00004260       ?IsolatedInitialize@?$SourceTemplate@VStringStore@CryptoPP@@@CryptoPP@@UEAAXAEBVNameValuePairs@2@@Z 0000000140005260 f i encrypt-decrypt.obj
 0001:00004270       ??0?$SourceTemplate@VStringStore@CryptoPP@@@CryptoPP@@QEAA@PEAVBufferedTransformation@1@@Z 0000000140005270 f i encrypt-decrypt.obj
 0001:000042b0       ??1?$SourceTemplate@VStringStore@CryptoPP@@@CryptoPP@@UEAA@XZ 00000001400052b0 f i encrypt-decrypt.obj
 0001:000042d0       ?IsolatedMessageSeriesEnd@?$InputRejecting@VFilter@CryptoPP@@@CryptoPP@@UEAA_N_N@Z 00000001400052d0 f i encrypt-decrypt.obj
 0001:000042d0       ?ChannelPut2@?$InputRejecting@VFilter@CryptoPP@@@CryptoPP@@UEAA_KAEBV?$basic_string@DU?$char_traits@D@std@@V?$allocator@D@2@@std@@PEBE_KH_N@Z 00000001400052d0 f i encrypt-decrypt.obj
 0001:000042d0       ?Put2@?$InputRejecting@VFilter@CryptoPP@@@CryptoPP@@UEAA_KPEBE_KH_N@Z 00000001400052d0 f i encrypt-decrypt.obj
 0001:000042d0       ?ChannelMessageSeriesEnd@?$InputRejecting@VFilter@CryptoPP@@@CryptoPP@@UEAA_NAEBV?$basic_string@DU?$char_traits@D@std@@V?$allocator@D@2@@std@@H_N@Z 00000001400052d0 f i encrypt-decrypt.obj
 0001:000042f0       ?Put2@?$StringSinkTemplate@V?$basic_string@DU?$char_traits@D@std@@V?$allocator@D@2@@std@@@CryptoPP@@UEAA_KPEBE_KH_N@Z 00000001400052f0 f i encrypt-decrypt.obj
 0001:00004390       ?IsolatedInitialize@?$StringSinkTemplate@V?$basic_string@DU?$char_traits@D@std@@V?$allocator@D@2@@std@@@CryptoPP@@UEAAXAEBVNameValuePairs@2@@Z 0000000140005390 f i encrypt-decrypt.obj
 0001:000043f0       ??0?$StringSinkTemplate@V?$basic_string@DU?$char_traits@D@std@@V?$allocator@D@2@@std@@@CryptoPP@@QEAA@AEAV?$basic_string@DU?$char_traits@D@std@@V?$allocator@D@2@@std@@@Z 00000001400053f0 f i encrypt-decrypt.obj
 0001:00004430       ??1?$StringSinkTemplate@V?$basic_string@DU?$char_traits@D@std@@V?$allocator@D@2@@std@@@CryptoPP@@UEAA@XZ 0000000140005430 f i encrypt-decrypt.obj
 0001:00004450       ?ChannelFlush@?$Unflushable@VFilter@CryptoPP@@@CryptoPP@@UEAA_NAEBV?$basic_string@DU?$char_traits@D@std@@V?$allocator@D@2@@std@@_NH1@Z 0000000140005450 f i encrypt-decrypt.obj
 0001:00004520       ?Flush@?$Unflushable@VFilter@CryptoPP@@@CryptoPP@@UEAA_N_NH0@Z 0000000140005520 f i encrypt-decrypt.obj
 0001:00004550       ?AlgorithmProvider@?$CFB_CipherTemplate@V?$AbstractPolicyHolder@VCFB_CipherAbstractPolicy@CryptoPP@@VCFB_ModePolicy@2@@CryptoPP@@@CryptoPP@@UEBA?AV?$basic_string@DU?$char_traits@D@std@@V?$allocator@D@2@@std@@XZ 0000000140005550 f i encrypt-decrypt.obj
 0001:00004580       ?OptimalDataAlignment@?$CFB_CipherTemplate@V?$AbstractPolicyHolder@VCFB_CipherAbstractPolicy@CryptoPP@@VCFB_ModePolicy@2@@CryptoPP@@@CryptoPP@@UEBAIXZ 0000000140005580 f i encrypt-decrypt.obj
 0001:000045b0       ?OptimalBlockSize@?$CFB_CipherTemplate@V?$AbstractPolicyHolder@VCFB_CipherAbstractPolicy@CryptoPP@@VCFB_ModePolicy@2@@CryptoPP@@@CryptoPP@@UEBAIXZ 00000001400055b0 f i encrypt-decrypt.obj
 0001:000045e0       ??1?$CFB_CipherTemplate@V?$AbstractPolicyHolder@VCFB_CipherAbstractPolicy@CryptoPP@@VCFB_ModePolicy@2@@CryptoPP@@@CryptoPP@@UEAA@XZ 00000001400055e0 f i encrypt-decrypt.obj
 0001:000045f0       ??1?$AbstractPolicyHolder@VCFB_CipherAbstractPolicy@CryptoPP@@VCFB_ModePolicy@2@@CryptoPP@@UEAA@XZ 00000001400055f0 f i encrypt-decrypt.obj
 0001:00004600       ?GetAlignment@?$ModePolicyCommonTemplate@VCFB_CipherAbstractPolicy@CryptoPP@@@CryptoPP@@EEBAIXZ 0000000140005600 f i encrypt-decrypt.obj
 0001:00004610       ?MoveInto@?$AlgorithmParametersTemplate@VConstByteArrayParameter@CryptoPP@@@CryptoPP@@UEBAXPEAX@Z 0000000140005610 f i encrypt-decrypt.obj
 0001:00004640       ?AssignValue@?$AlgorithmParametersTemplate@VConstByteArrayParameter@CryptoPP@@@CryptoPP@@UEBAXPEBDAEBVtype_info@@PEAX@Z 0000000140005640 f i encrypt-decrypt.obj
 0001:000046c0       ?MoveInto@?$AlgorithmParametersTemplate@H@CryptoPP@@UEBAXPEAX@Z 00000001400056c0 f i encrypt-decrypt.obj
 0001:000046f0       ?AssignValue@?$AlgorithmParametersTemplate@H@CryptoPP@@UEBAXPEBDAEBVtype_info@@PEAX@Z 00000001400056f0 f i encrypt-decrypt.obj
 0001:00004770       ?MoveInto@?$AlgorithmParametersTemplate@_N@CryptoPP@@UEBAXPEAX@Z 0000000140005770 f i encrypt-decrypt.obj
 0001:000047a0       ?AssignValue@?$AlgorithmParametersTemplate@_N@CryptoPP@@UEBAXPEBDAEBVtype_info@@PEAX@Z 00000001400057a0 f i encrypt-decrypt.obj
 0001:00004820       ?release@?$member_ptr@VAlgorithmParametersBase@CryptoPP@@@CryptoPP@@QEAAPEAVAlgorithmParametersBase@2@XZ 0000000140005820 f i encrypt-decrypt.obj
 0001:00004830       ??0id@locale@std@@QEAA@_K@Z 0000000140005830 f i utilities.obj
 0001:00004830       ??0?$member_ptr@VAlgorithmParametersBase@CryptoPP@@@CryptoPP@@QEAA@PEAVAlgorithmParametersBase@1@@Z 0000000140005830 f i encrypt-decrypt.obj
 0001:00004830       ??0?$_String_const_iterator@V?$_String_val@U?$_Simple_types@D@std@@@std@@@std@@QEAA@PEBDPEBU_Container_base0@1@@Z 0000000140005830 f i encrypt-decrypt.obj
 0001:00004840       ?New@?$SecBlock@EV?$AllocatorWithCleanup@E$0A@@CryptoPP@@@CryptoPP@@QEAAX_K@Z 0000000140005840 f i encrypt-decrypt.obj
 0001:00004880       ??1?$SecBlock@EV?$AllocatorWithCleanup@E$0A@@CryptoPP@@@CryptoPP@@QEAA@XZ 0000000140005880 f i encrypt-decrypt.obj
 0001:000048b0       ??0?$SecBlock@EV?$AllocatorWithCleanup@E$0A@@CryptoPP@@@CryptoPP@@QEAA@_K@Z 00000001400058b0 f i encrypt-decrypt.obj
 0001:000048e0       ??1?$SecBlock@IV?$AllocatorWithCleanup@I$00@CryptoPP@@@CryptoPP@@QEAA@XZ 00000001400058e0 f i encrypt-decrypt.obj
 0001:00004910       ?BlockSize@?$BlockCipherImpl@URijndael_Info@CryptoPP@@VBlockCipher@2@@CryptoPP@@UEBAIXZ 0000000140005910 f i encrypt-decrypt.obj
 0001:00004910       ?DefaultKeyLength@?$SimpleKeyingInterfaceImpl@V?$TwoBases@VBlockCipher@CryptoPP@@URijndael_Info@2@@CryptoPP@@V12@@CryptoPP@@UEBA_KXZ 0000000140005910 f i encrypt-decrypt.obj
 0001:00004910       ?MinKeyLength@?$SimpleKeyingInterfaceImpl@V?$TwoBases@VBlockCipher@CryptoPP@@URijndael_Info@2@@CryptoPP@@V12@@CryptoPP@@UEBA_KXZ 0000000140005910 f i encrypt-decrypt.obj
 0001:00004920       ?AlgorithmName@?$AlgorithmImpl@V?$SimpleKeyingInterfaceImpl@V?$TwoBases@VBlockCipher@CryptoPP@@URijndael_Info@2@@CryptoPP@@V12@@CryptoPP@@V12@@CryptoPP@@UEBA?AV?$basic_string@DU?$char_traits@D@std@@V?$allocator@D@2@@std@@XZ 0000000140005920 f i encrypt-decrypt.obj
 0001:00004950       ?OptimalDataAlignment@BlockTransformation@CryptoPP@@UEBAIXZ 0000000140005950 f i cryptlib:cryptlib.obj
 0001:00004950       ?IVRequirement@?$SimpleKeyingInterfaceImpl@V?$TwoBases@VBlockCipher@CryptoPP@@URijndael_Info@2@@CryptoPP@@V12@@CryptoPP@@UEBA?AW4IV_Requirement@SimpleKeyingInterface@2@XZ 0000000140005950 f i encrypt-decrypt.obj
 0001:00004960       ?GetValidKeyLength@?$SimpleKeyingInterfaceImpl@V?$TwoBases@VBlockCipher@CryptoPP@@URijndael_Info@2@@CryptoPP@@V12@@CryptoPP@@UEBA_K_K@Z 0000000140005960 f i encrypt-decrypt.obj
 0001:00004970       ?MaxKeyLength@?$SimpleKeyingInterfaceImpl@V?$TwoBases@VBlockCipher@CryptoPP@@URijndael_Info@2@@CryptoPP@@V12@@CryptoPP@@UEBA_KXZ 0000000140005970 f i encrypt-decrypt.obj
 0001:00004980       ?GetAutoSignalPropagation@?$AutoSignaling@V?$InputRejecting@VBufferedTransformation@CryptoPP@@@CryptoPP@@@CryptoPP@@UEBAHXZ 0000000140005980 f i encrypt-decrypt.obj
 0001:00004980       ?raw_length@pairNode@@UEBAHXZ 0000000140005980 f i libvcruntime:undname.obj
 0001:00004980       ?GetAutoSignalPropagation@?$AutoSignaling@VBufferedTransformation@CryptoPP@@@CryptoPP@@UEBAHXZ 0000000140005980 f i cryptlib:mqueue.obj
 0001:00004990       ?SetAutoSignalPropagation@?$AutoSignaling@VBufferedTransformation@CryptoPP@@@CryptoPP@@UEAAXH@Z 0000000140005990 f i cryptlib:mqueue.obj
 0001:00004990       ?SetAutoSignalPropagation@?$AutoSignaling@V?$InputRejecting@VBufferedTransformation@CryptoPP@@@CryptoPP@@@CryptoPP@@UEAAXH@Z 0000000140005990 f i encrypt-decrypt.obj
 0001:000049a0       ??0?$AutoSignaling@V?$InputRejecting@VBufferedTransformation@CryptoPP@@@CryptoPP@@@CryptoPP@@QEAA@H@Z 00000001400059a0 f i encrypt-decrypt.obj
 0001:000049c0       ?ChannelPut2@?$InputRejecting@VBufferedTransformation@CryptoPP@@@CryptoPP@@UEAA_KAEBV?$basic_string@DU?$char_traits@D@std@@V?$allocator@D@2@@std@@PEBE_KH_N@Z 00000001400059c0 f i encrypt-decrypt.obj
 0001:000049c0       ?Put2@?$InputRejecting@VBufferedTransformation@CryptoPP@@@CryptoPP@@UEAA_KPEBE_KH_N@Z 00000001400059c0 f i encrypt-decrypt.obj
 0001:000049c0       ?IsolatedMessageSeriesEnd@?$InputRejecting@VBufferedTransformation@CryptoPP@@@CryptoPP@@UEAA_N_N@Z 00000001400059c0 f i encrypt-decrypt.obj
 0001:000049c0       ?ChannelMessageSeriesEnd@?$InputRejecting@VBufferedTransformation@CryptoPP@@@CryptoPP@@UEAA_NAEBV?$basic_string@DU?$char_traits@D@std@@V?$allocator@D@2@@std@@H_N@Z 00000001400059c0 f i encrypt-decrypt.obj
 0001:000049e0       ??A?$basic_string@DU?$char_traits@D@std@@V?$allocator@D@2@@std@@QEBAAEBD_K@Z 00000001400059e0 f i encrypt-decrypt.obj
 0001:000049e0       ??A?$basic_string@DU?$char_traits@D@std@@V?$allocator@D@2@@std@@QEAAAEAD_K@Z 00000001400059e0 f i utilities.obj
 0001:00004a00       ?append@?$basic_string@DU?$char_traits@D@std@@V?$allocator@D@2@@std@@QEAAAEAV12@QEBD@Z 0000000140005a00 f i encrypt-decrypt.obj
 0001:00004a40       ?append@?$basic_string@DU?$char_traits@D@std@@V?$allocator@D@2@@std@@QEAAAEAV12@AEBV12@@Z 0000000140005a40 f i encrypt-decrypt.obj
 0001:00004a80       ??Y?$basic_string@DU?$char_traits@D@std@@V?$allocator@D@2@@std@@QEAAAEAV01@D@Z 0000000140005a80 f i encrypt-decrypt.obj
 0001:00004aa0       ??_E?$CipherModeFinalTemplate_CipherHolder@V?$BlockCipherFinal@$0A@VEnc@Rijndael@CryptoPP@@@CryptoPP@@V?$ConcretePolicyHolder@VEmpty@CryptoPP@@V?$CFB_DecryptionTemplate@V?$AbstractPolicyHolder@VCFB_CipherAbstractPolicy@CryptoPP@@VCFB_ModePolicy@2@@CryptoPP@@@2@VCFB_CipherAbstractPolicy@2@@2@@CryptoPP@@UEAAPEAXI@Z 0000000140005aa0 f i * CIL library *:* CIL module *
 0001:00004aa0       ??_G?$CipherModeFinalTemplate_CipherHolder@V?$BlockCipherFinal@$0A@VEnc@Rijndael@CryptoPP@@@CryptoPP@@V?$ConcretePolicyHolder@VEmpty@CryptoPP@@V?$CFB_DecryptionTemplate@V?$AbstractPolicyHolder@VCFB_CipherAbstractPolicy@CryptoPP@@VCFB_ModePolicy@2@@CryptoPP@@@2@VCFB_CipherAbstractPolicy@2@@2@@CryptoPP@@UEAAPEAXI@Z 0000000140005aa0 f i encrypt-decrypt.obj
 0001:00004ae0       ??0?$ObjectHolder@V?$BlockCipherFinal@$0A@VEnc@Rijndael@CryptoPP@@@CryptoPP@@@CryptoPP@@QEAA@XZ 0000000140005ae0 f i encrypt-decrypt.obj
 0001:00004b00       ??0?$AlgorithmImpl@V?$ConcretePolicyHolder@VEmpty@CryptoPP@@V?$CFB_DecryptionTemplate@V?$AbstractPolicyHolder@VCFB_CipherAbstractPolicy@CryptoPP@@VCFB_ModePolicy@2@@CryptoPP@@@2@VCFB_CipherAbstractPolicy@2@@CryptoPP@@V?$CipherModeFinalTemplate_CipherHolder@V?$BlockCipherFinal@$0A@VEnc@Rijndael@CryptoPP@@@CryptoPP@@V?$ConcretePolicyHolder@VEmpty@CryptoPP@@V?$CFB_DecryptionTemplate@V?$AbstractPolicyHolder@VCFB_CipherAbstractPolicy@CryptoPP@@VCFB_ModePolicy@2@@CryptoPP@@@2@VCFB_CipherAbstractPolicy@2@@2@@2@@CryptoPP@@QEAA@XZ 0000000140005b00 f i encrypt-decrypt.obj
 0001:00004b20       ??0?$ConcretePolicyHolder@VEmpty@CryptoPP@@V?$CFB_DecryptionTemplate@V?$AbstractPolicyHolder@VCFB_CipherAbstractPolicy@CryptoPP@@VCFB_ModePolicy@2@@CryptoPP@@@2@VCFB_CipherAbstractPolicy@2@@CryptoPP@@QEAA@XZ 0000000140005b20 f i encrypt-decrypt.obj
 0001:00004b60       ??0?$CFB_EncryptionTemplate@V?$AbstractPolicyHolder@VCFB_CipherAbstractPolicy@CryptoPP@@VCFB_ModePolicy@2@@CryptoPP@@@CryptoPP@@QEAA@XZ 0000000140005b60 f i encrypt-decrypt.obj
 0001:00004b60       ??0?$CFB_DecryptionTemplate@V?$AbstractPolicyHolder@VCFB_CipherAbstractPolicy@CryptoPP@@VCFB_ModePolicy@2@@CryptoPP@@@CryptoPP@@QEAA@XZ 0000000140005b60 f i encrypt-decrypt.obj
 0001:00004b80       ??_G?$ConcretePolicyHolder@VEmpty@CryptoPP@@V?$CFB_DecryptionTemplate@V?$AbstractPolicyHolder@VCFB_CipherAbstractPolicy@CryptoPP@@VCFB_ModePolicy@2@@CryptoPP@@@2@VCFB_CipherAbstractPolicy@2@@CryptoPP@@UEAAPEAXI@Z 0000000140005b80 f i encrypt-decrypt.obj
 0001:00004b80       ??_E?$ConcretePolicyHolder@VEmpty@CryptoPP@@V?$CFB_DecryptionTemplate@V?$AbstractPolicyHolder@VCFB_CipherAbstractPolicy@CryptoPP@@VCFB_ModePolicy@2@@CryptoPP@@@2@VCFB_CipherAbstractPolicy@2@@CryptoPP@@UEAAPEAXI@Z 0000000140005b80 f i * CIL library *:* CIL module *
 0001:00004bc0       ??1?$CFB_EncryptionTemplate@V?$AbstractPolicyHolder@VCFB_CipherAbstractPolicy@CryptoPP@@VCFB_ModePolicy@2@@CryptoPP@@@CryptoPP@@UEAA@XZ 0000000140005bc0 f i encrypt-decrypt.obj
 0001:00004bc0       ??1?$CFB_DecryptionTemplate@V?$AbstractPolicyHolder@VCFB_CipherAbstractPolicy@CryptoPP@@VCFB_ModePolicy@2@@CryptoPP@@@CryptoPP@@UEAA@XZ 0000000140005bc0 f i encrypt-decrypt.obj
 0001:00004bd0       ??_E?$CipherModeFinalTemplate_CipherHolder@V?$BlockCipherFinal@$0A@VEnc@Rijndael@CryptoPP@@@CryptoPP@@V?$ConcretePolicyHolder@VEmpty@CryptoPP@@V?$CFB_EncryptionTemplate@V?$AbstractPolicyHolder@VCFB_CipherAbstractPolicy@CryptoPP@@VCFB_ModePolicy@2@@CryptoPP@@@2@VCFB_CipherAbstractPolicy@2@@2@@CryptoPP@@UEAAPEAXI@Z 0000000140005bd0 f i * CIL library *:* CIL module *
 0001:00004bd0       ??_G?$CipherModeFinalTemplate_CipherHolder@V?$BlockCipherFinal@$0A@VEnc@Rijndael@CryptoPP@@@CryptoPP@@V?$ConcretePolicyHolder@VEmpty@CryptoPP@@V?$CFB_EncryptionTemplate@V?$AbstractPolicyHolder@VCFB_CipherAbstractPolicy@CryptoPP@@VCFB_ModePolicy@2@@CryptoPP@@@2@VCFB_CipherAbstractPolicy@2@@2@@CryptoPP@@UEAAPEAXI@Z 0000000140005bd0 f i encrypt-decrypt.obj
 0001:00004c10       ??0?$AlgorithmImpl@V?$ConcretePolicyHolder@VEmpty@CryptoPP@@V?$CFB_EncryptionTemplate@V?$AbstractPolicyHolder@VCFB_CipherAbstractPolicy@CryptoPP@@VCFB_ModePolicy@2@@CryptoPP@@@2@VCFB_CipherAbstractPolicy@2@@CryptoPP@@V?$CipherModeFinalTemplate_CipherHolder@V?$BlockCipherFinal@$0A@VEnc@Rijndael@CryptoPP@@@CryptoPP@@V?$ConcretePolicyHolder@VEmpty@CryptoPP@@V?$CFB_EncryptionTemplate@V?$AbstractPolicyHolder@VCFB_CipherAbstractPolicy@CryptoPP@@VCFB_ModePolicy@2@@CryptoPP@@@2@VCFB_CipherAbstractPolicy@2@@2@@2@@CryptoPP@@QEAA@XZ 0000000140005c10 f i encrypt-decrypt.obj
 0001:00004c30       ??0?$ConcretePolicyHolder@VEmpty@CryptoPP@@V?$CFB_EncryptionTemplate@V?$AbstractPolicyHolder@VCFB_CipherAbstractPolicy@CryptoPP@@VCFB_ModePolicy@2@@CryptoPP@@@2@VCFB_CipherAbstractPolicy@2@@CryptoPP@@QEAA@XZ 0000000140005c30 f i encrypt-decrypt.obj
 0001:00004c70       ??_G?$ConcretePolicyHolder@VEmpty@CryptoPP@@V?$CFB_EncryptionTemplate@V?$AbstractPolicyHolder@VCFB_CipherAbstractPolicy@CryptoPP@@VCFB_ModePolicy@2@@CryptoPP@@@2@VCFB_CipherAbstractPolicy@2@@CryptoPP@@UEAAPEAXI@Z 0000000140005c70 f i encrypt-decrypt.obj
 0001:00004c70       ??_E?$ConcretePolicyHolder@VEmpty@CryptoPP@@V?$CFB_EncryptionTemplate@V?$AbstractPolicyHolder@VCFB_CipherAbstractPolicy@CryptoPP@@VCFB_ModePolicy@2@@CryptoPP@@@2@VCFB_CipherAbstractPolicy@2@@CryptoPP@@UEAAPEAXI@Z 0000000140005c70 f i * CIL library *:* CIL module *
 0001:00004cb0       ??0?$BlockCipherFinal@$0A@VEnc@Rijndael@CryptoPP@@@CryptoPP@@QEAA@AEBV01@@Z 0000000140005cb0 f i encrypt-decrypt.obj
 0001:00004ce0       ??0?$ClonableImpl@V?$BlockCipherFinal@$0A@VEnc@Rijndael@CryptoPP@@@CryptoPP@@VEnc@Rijndael@2@@CryptoPP@@QEAA@AEBV01@@Z 0000000140005ce0 f i encrypt-decrypt.obj
 0001:00004d00       ??0Enc@Rijndael@CryptoPP@@QEAA@AEBV012@@Z 0000000140005d00 f i encrypt-decrypt.obj
 0001:00004d20       ??0Base@Rijndael@CryptoPP@@QEAA@AEBV012@@Z 0000000140005d20 f i encrypt-decrypt.obj
 0001:00004d70       ??0?$BlockCipherImpl@URijndael_Info@CryptoPP@@VBlockCipher@2@@CryptoPP@@QEAA@AEBV01@@Z 0000000140005d70 f i encrypt-decrypt.obj
 0001:00004d90       ??0?$AlgorithmImpl@V?$SimpleKeyingInterfaceImpl@V?$TwoBases@VBlockCipher@CryptoPP@@URijndael_Info@2@@CryptoPP@@V12@@CryptoPP@@V12@@CryptoPP@@QEAA@AEBV01@@Z 0000000140005d90 f i encrypt-decrypt.obj
 0001:00004db0       ??0?$SimpleKeyingInterfaceImpl@V?$TwoBases@VBlockCipher@CryptoPP@@URijndael_Info@2@@CryptoPP@@V12@@CryptoPP@@QEAA@AEBV01@@Z 0000000140005db0 f i encrypt-decrypt.obj
 0001:00004dd0       ??0?$TwoBases@VBlockCipher@CryptoPP@@URijndael_Info@2@@CryptoPP@@QEAA@AEBV01@@Z 0000000140005dd0 f i encrypt-decrypt.obj
 0001:00004de0       ??_G?$SourceTemplate@VStringStore@CryptoPP@@@CryptoPP@@UEAAPEAXI@Z 0000000140005de0 f i encrypt-decrypt.obj
 0001:00004de0       ??_E?$SourceTemplate@VStringStore@CryptoPP@@@CryptoPP@@UEAAPEAXI@Z 0000000140005de0 f i * CIL library *:* CIL module *
 0001:00004e20       ??0InputRejected@?$InputRejecting@VFilter@CryptoPP@@@CryptoPP@@QEAA@AEBU012@@Z 0000000140005e20 f i encrypt-decrypt.obj
 0001:00004e50       ??_G?$StringSinkTemplate@V?$basic_string@DU?$char_traits@D@std@@V?$allocator@D@2@@std@@@CryptoPP@@UEAAPEAXI@Z 0000000140005e50 f i encrypt-decrypt.obj
 0001:00004e50       ??_E?$StringSinkTemplate@V?$basic_string@DU?$char_traits@D@std@@V?$allocator@D@2@@std@@@CryptoPP@@UEAAPEAXI@Z 0000000140005e50 f i * CIL library *:* CIL module *
 0001:00004e90       ??0CannotFlush@CryptoPP@@QEAA@AEBV01@@Z 0000000140005e90 f i encrypt-decrypt.obj
 0001:00004ec0       ??0?$AlgorithmParametersTemplate@VConstByteArrayParameter@CryptoPP@@@CryptoPP@@QEAA@AEBV01@@Z 0000000140005ec0 f i encrypt-decrypt.obj
 0001:00004f10       ??0ConstByteArrayParameter@CryptoPP@@QEAA@AEBV01@@Z 0000000140005f10 f i encrypt-decrypt.obj
 0001:00004f50       ??4ConstByteArrayParameter@CryptoPP@@QEAAAEAV01@AEBV01@@Z 0000000140005f50 f i encrypt-decrypt.obj
 0001:00004f90       ??0?$AlgorithmParametersTemplate@H@CryptoPP@@QEAA@AEBV01@@Z 0000000140005f90 f i encrypt-decrypt.obj
 0001:00004fd0       ??0?$AlgorithmParametersTemplate@_N@CryptoPP@@QEAA@AEBV01@@Z 0000000140005fd0 f i encrypt-decrypt.obj
 0001:00005010       ??0InputRejected@?$InputRejecting@VBufferedTransformation@CryptoPP@@@CryptoPP@@QEAA@AEBU012@@Z 0000000140006010 f i encrypt-decrypt.obj
 0001:00005040       ??_E?$BlockCipherFinal@$0A@VEnc@Rijndael@CryptoPP@@@CryptoPP@@UEAAPEAXI@Z 0000000140006040 f i * CIL library *:* CIL module *
 0001:00005040       ??_G?$BlockCipherFinal@$0A@VEnc@Rijndael@CryptoPP@@@CryptoPP@@UEAAPEAXI@Z 0000000140006040 f i encrypt-decrypt.obj
 0001:00005080       ??_EInputRejected@?$InputRejecting@VFilter@CryptoPP@@@CryptoPP@@UEAAPEAXI@Z 0000000140006080 f i * CIL library *:* CIL module *
 0001:00005080       ??_GInputRejected@?$InputRejecting@VFilter@CryptoPP@@@CryptoPP@@UEAAPEAXI@Z 0000000140006080 f i encrypt-decrypt.obj
 0001:00005080       ??_EInputRejected@?$InputRejecting@VBufferedTransformation@CryptoPP@@@CryptoPP@@UEAAPEAXI@Z 0000000140006080 f i * CIL library *:* CIL module *
 0001:00005080       ??_GInputRejected@?$InputRejecting@VBufferedTransformation@CryptoPP@@@CryptoPP@@UEAAPEAXI@Z 0000000140006080 f i encrypt-decrypt.obj
 0001:000050c0       ??_G?$AlgorithmParametersTemplate@VConstByteArrayParameter@CryptoPP@@@CryptoPP@@UEAAPEAXI@Z 00000001400060c0 f i encrypt-decrypt.obj
 0001:000050c0       ??_E?$AlgorithmParametersTemplate@VConstByteArrayParameter@CryptoPP@@@CryptoPP@@UEAAPEAXI@Z 00000001400060c0 f i * CIL library *:* CIL module *
 0001:00005100       ??1?$AlgorithmParametersTemplate@VConstByteArrayParameter@CryptoPP@@@CryptoPP@@UEAA@XZ 0000000140006100 f i encrypt-decrypt.obj
 0001:00005120       ??_E?$AlgorithmParametersTemplate@H@CryptoPP@@UEAAPEAXI@Z 0000000140006120 f i * CIL library *:* CIL module *
 0001:00005120       ??_G?$AlgorithmParametersTemplate@H@CryptoPP@@UEAAPEAXI@Z 0000000140006120 f i encrypt-decrypt.obj
 0001:00005120       ??_G?$AlgorithmParametersTemplate@PEBH@CryptoPP@@UEAAPEAXI@Z 0000000140006120 f i encrypt-decrypt.obj
 0001:00005120       ??_E?$AlgorithmParametersTemplate@PEBH@CryptoPP@@UEAAPEAXI@Z 0000000140006120 f i * CIL library *:* CIL module *
 0001:00005120       ??_G?$AlgorithmParametersTemplate@_N@CryptoPP@@UEAAPEAXI@Z 0000000140006120 f i encrypt-decrypt.obj
 0001:00005120       ??_E?$AlgorithmParametersTemplate@_N@CryptoPP@@UEAAPEAXI@Z 0000000140006120 f i * CIL library *:* CIL module *
 0001:00005160       ??1?$AlgorithmParametersTemplate@_N@CryptoPP@@UEAA@XZ 0000000140006160 f i encrypt-decrypt.obj
 0001:00005160       ??1?$AlgorithmParametersTemplate@PEBH@CryptoPP@@UEAA@XZ 0000000140006160 f i encrypt-decrypt.obj
 0001:00005160       ??1?$AlgorithmParametersTemplate@H@CryptoPP@@UEAA@XZ 0000000140006160 f i encrypt-decrypt.obj
 0001:00005170       ??0InputRejected@?$InputRejecting@VBufferedTransformation@CryptoPP@@@CryptoPP@@QEAA@XZ 0000000140006170 f i encrypt-decrypt.obj
 0001:000051c0       ??0InputRejected@?$InputRejecting@VFilter@CryptoPP@@@CryptoPP@@QEAA@XZ 00000001400061c0 f i encrypt-decrypt.obj
 0001:00005210       ?StaticAlgorithmName@?$CipherModeFinalTemplate_CipherHolder@V?$BlockCipherFinal@$0A@VEnc@Rijndael@CryptoPP@@@CryptoPP@@V?$ConcretePolicyHolder@VEmpty@CryptoPP@@V?$CFB_EncryptionTemplate@V?$AbstractPolicyHolder@VCFB_CipherAbstractPolicy@CryptoPP@@VCFB_ModePolicy@2@@CryptoPP@@@2@VCFB_CipherAbstractPolicy@2@@2@@CryptoPP@@SA?AV?$basic_string@DU?$char_traits@D@std@@V?$allocator@D@2@@std@@XZ 0000000140006210 f i encrypt-decrypt.obj
 0001:00005210       ?StaticAlgorithmName@?$CipherModeFinalTemplate_CipherHolder@V?$BlockCipherFinal@$0A@VEnc@Rijndael@CryptoPP@@@CryptoPP@@V?$ConcretePolicyHolder@VEmpty@CryptoPP@@V?$CFB_DecryptionTemplate@V?$AbstractPolicyHolder@VCFB_CipherAbstractPolicy@CryptoPP@@VCFB_ModePolicy@2@@CryptoPP@@@2@VCFB_CipherAbstractPolicy@2@@2@@CryptoPP@@SA?AV?$basic_string@DU?$char_traits@D@std@@V?$allocator@D@2@@std@@XZ 0000000140006210 f i encrypt-decrypt.obj
 0001:00005280       ??0?$BlockCipherFinal@$0A@VEnc@Rijndael@CryptoPP@@@CryptoPP@@QEAA@XZ 0000000140006280 f i encrypt-decrypt.obj
 0001:000052b0       ??0?$CFB_CipherTemplate@V?$AbstractPolicyHolder@VCFB_CipherAbstractPolicy@CryptoPP@@VCFB_ModePolicy@2@@CryptoPP@@@CryptoPP@@QEAA@XZ 00000001400062b0 f i encrypt-decrypt.obj
 0001:000052d0       ??4?$SecBlock@EV?$AllocatorWithCleanup@E$0A@@CryptoPP@@@CryptoPP@@QEAAAEAV01@AEBV01@@Z 00000001400062d0 f i encrypt-decrypt.obj
 0001:000052f0       ??0?$SecBlock@EV?$AllocatorWithCleanup@E$0A@@CryptoPP@@@CryptoPP@@QEAA@AEBV01@@Z 00000001400062f0 f i encrypt-decrypt.obj
 0001:00005350       ??0?$SecBlock@IV?$AllocatorWithCleanup@I$00@CryptoPP@@@CryptoPP@@QEAA@AEBV01@@Z 0000000140006350 f i encrypt-decrypt.obj
 0001:000053b0       ?deallocate@?$AllocatorWithCleanup@I$00@CryptoPP@@QEAAXPEAX_K@Z 00000001400063b0 f i encrypt-decrypt.obj
 0001:000053e0       ?StaticGetValidKeyLength@?$VariableKeyLength@$0BA@$0BA@$0CA@$07$03$0A@@CryptoPP@@SA_K_K@Z 00000001400063e0 f i encrypt-decrypt.obj
 0001:00005410       ?reallocate@?$AllocatorWithCleanup@E$0A@@CryptoPP@@QEAAPEAEPEAE_K1_N@Z 0000000140006410 f i encrypt-decrypt.obj
 0001:00005420       ?deallocate@?$AllocatorWithCleanup@E$0A@@CryptoPP@@QEAAXPEAX_K@Z 0000000140006420 f i encrypt-decrypt.obj
 0001:00005450       ?allocate@?$AllocatorWithCleanup@E$0A@@CryptoPP@@QEAAPEAE_KPEBX@Z 0000000140006450 f i encrypt-decrypt.obj
 0001:00005480       ?_Become_small@?$basic_string@DU?$char_traits@D@std@@V?$allocator@D@2@@std@@AEAAXXZ 0000000140006480 f i encrypt-decrypt.obj
 0001:000054f0       ?reserve@?$basic_string@DU?$char_traits@D@std@@V?$allocator@D@2@@std@@QEAAX_K@Z 00000001400064f0 f i encrypt-decrypt.obj
 0001:00005550       ??R<lambda_9013ee9e23efe4882b67eff5b0ecf103>@@QEBAXQEADQEBD_K@Z 0000000140006550 f i encrypt-decrypt.obj
 0001:00005570       ?capacity@?$basic_string@DU?$char_traits@D@std@@V?$allocator@D@2@@std@@QEBA_KXZ 0000000140006570 f i encrypt-decrypt.obj
 0001:00005570       ??B?$SecBlock@EV?$AllocatorWithCleanup@E$0A@@CryptoPP@@@CryptoPP@@QEBAPEBXXZ 0000000140006570 f i encrypt-decrypt.obj
 0001:00005580       ?push_back@?$basic_string@DU?$char_traits@D@std@@V?$allocator@D@2@@std@@QEAAXD@Z 0000000140006580 f i encrypt-decrypt.obj
 0001:000055e0       ??R<lambda_319d5e083f45f90dcdce5dce53cbb275>@@QEBAXQEADQEBD_KD@Z 00000001400065e0 f i encrypt-decrypt.obj
 0001:00005640       ?end@?$basic_string@DU?$char_traits@D@std@@V?$allocator@D@2@@std@@QEAA?AV?$_String_iterator@V?$_String_val@U?$_Simple_types@D@std@@@std@@@2@XZ 0000000140006640 f i encrypt-decrypt.obj
 0001:000056a0       ?append@?$basic_string@DU?$char_traits@D@std@@V?$allocator@D@2@@std@@QEAAAEAV12@QEBD_K@Z 00000001400066a0 f i encrypt-decrypt.obj
 0001:00005730       ??R<lambda_65e615be2a453ca0576c979606f46740>@@QEBAXQEADQEBD_K12@Z 0000000140006730 f i encrypt-decrypt.obj
 0001:00005790       ??0?$ClonableImpl@V?$BlockCipherFinal@$0A@VEnc@Rijndael@CryptoPP@@@CryptoPP@@VEnc@Rijndael@2@@CryptoPP@@QEAA@XZ 0000000140006790 f i encrypt-decrypt.obj
 0001:000057b0       ??0Enc@Rijndael@CryptoPP@@QEAA@XZ 00000001400067b0 f i encrypt-decrypt.obj
 0001:000057d0       ??0Base@Rijndael@CryptoPP@@QEAA@XZ 00000001400067d0 f i encrypt-decrypt.obj
 0001:00005800       ??0?$BlockCipherImpl@URijndael_Info@CryptoPP@@VBlockCipher@2@@CryptoPP@@QEAA@XZ 0000000140006800 f i encrypt-decrypt.obj
 0001:00005820       ??0?$AlgorithmImpl@V?$SimpleKeyingInterfaceImpl@V?$TwoBases@VBlockCipher@CryptoPP@@URijndael_Info@2@@CryptoPP@@V12@@CryptoPP@@V12@@CryptoPP@@QEAA@XZ 0000000140006820 f i encrypt-decrypt.obj
 0001:00005840       ??0?$SimpleKeyingInterfaceImpl@V?$TwoBases@VBlockCipher@CryptoPP@@URijndael_Info@2@@CryptoPP@@V12@@CryptoPP@@QEAA@XZ 0000000140006840 f i encrypt-decrypt.obj
 0001:00005860       ??0?$TwoBases@VBlockCipher@CryptoPP@@URijndael_Info@2@@CryptoPP@@QEAA@XZ 0000000140006860 f i encrypt-decrypt.obj
 0001:00005880       ??0?$AbstractPolicyHolder@VCFB_CipherAbstractPolicy@CryptoPP@@VCFB_ModePolicy@2@@CryptoPP@@QEAA@XZ 0000000140006880 f i encrypt-decrypt.obj
 0001:000058a0       ??0?$_String_iterator@V?$_String_val@U?$_Simple_types@D@std@@@std@@@std@@QEAA@PEBDPEBU_Container_base0@1@@Z 00000001400068a0 f i encrypt-decrypt.obj
 0001:000058c0       ?Assign@?$SecBlock@EV?$AllocatorWithCleanup@E$0A@@CryptoPP@@@CryptoPP@@QEAAXAEBV12@@Z 00000001400068c0 f i encrypt-decrypt.obj
 0001:00005930       ??0?$SecBlock@IV?$AllocatorWithCleanup@I$00@CryptoPP@@@CryptoPP@@QEAA@_K@Z 0000000140006930 f i encrypt-decrypt.obj
 0001:00005970       ?allocate@?$AllocatorWithCleanup@I$00@CryptoPP@@QEAAPEAI_KPEBX@Z 0000000140006970 f i encrypt-decrypt.obj
 0001:000059a0       ?StaticAlgorithmName@?$AlgorithmImpl@V?$SimpleKeyingInterfaceImpl@V?$TwoBases@VBlockCipher@CryptoPP@@URijndael_Info@2@@CryptoPP@@V12@@CryptoPP@@V12@@CryptoPP@@SA?AV?$basic_string@DU?$char_traits@D@std@@V?$allocator@D@2@@std@@XZ 00000001400069a0 f i encrypt-decrypt.obj
 0001:000059c0       ?CheckSize@?$AllocatorBase@I@CryptoPP@@KAX_K@Z 00000001400069c0 f i encrypt-decrypt.obj
 0001:00005a20       ??$?HDU?$char_traits@D@std@@V?$allocator@D@1@@std@@YA?AV?$basic_string@DU?$char_traits@D@std@@V?$allocator@D@2@@0@QEBDAEBV10@@Z 0000000140006a20 f i encrypt-decrypt.obj
 0001:00005ab0       ??$?HDU?$char_traits@D@std@@V?$allocator@D@1@@std@@YA?AV?$basic_string@DU?$char_traits@D@std@@V?$allocator@D@2@@0@$$QEAV10@QEBD@Z 0000000140006ab0 f i encrypt-decrypt.obj
 0001:00005af0       ??$GetValue@H@NameValuePairs@CryptoPP@@QEBA_NPEBDAEAH@Z 0000000140006af0 f i encrypt-decrypt.obj
 0001:00005b10       ??$GetValueWithDefault@H@NameValuePairs@CryptoPP@@QEBAHPEBDH@Z 0000000140006b10 f i encrypt-decrypt.obj
 0001:00005b40       ??1?$member_ptr@VAlgorithmParametersBase@CryptoPP@@@CryptoPP@@QEAA@XZ 0000000140006b40 f i encrypt-decrypt.obj
 0001:00005b60       ?reset@?$member_ptr@VAlgorithmParametersBase@CryptoPP@@@CryptoPP@@QEAAXPEAVAlgorithmParametersBase@2@@Z 0000000140006b60 f i encrypt-decrypt.obj
 0001:00005b90       ?CipherSetKey@?$ModePolicyCommonTemplate@VCFB_CipherAbstractPolicy@CryptoPP@@@CryptoPP@@EEAAXAEBVNameValuePairs@2@PEBE_K@Z 0000000140006b90 f i encrypt-decrypt.obj
 0001:00005bf0       ??1?$member_ptr@VBufferedTransformation@CryptoPP@@@CryptoPP@@QEAA@XZ 0000000140006bf0 f i encrypt-decrypt.obj
 0001:00005c10       ??$MakeParameters@VConstByteArrayParameter@CryptoPP@@@CryptoPP@@YA?AVAlgorithmParameters@0@PEBDAEBVConstByteArrayParameter@0@_N@Z 0000000140006c10 f i encrypt-decrypt.obj
 0001:00005c80       ??$?0V?$basic_string@DU?$char_traits@D@std@@V?$allocator@D@2@@std@@@ConstByteArrayParameter@CryptoPP@@QEAA@AEBV?$basic_string@DU?$char_traits@D@std@@V?$allocator@D@2@@std@@_N@Z 0000000140006c80 f i encrypt-decrypt.obj
 0001:00005cf0       ??$?RH@AlgorithmParameters@CryptoPP@@QEAAAEAV01@PEBDAEBH@Z 0000000140006cf0 f i encrypt-decrypt.obj
 0001:00005d00       ??$MakeParameters@PEBH@CryptoPP@@YA?AVAlgorithmParameters@0@PEBDAEBQEBH_N@Z 0000000140006d00 f i encrypt-decrypt.obj
 0001:00005d70       ??$MakeParameters@_N@CryptoPP@@YA?AVAlgorithmParameters@0@PEBDAEB_N_N@Z 0000000140006d70 f i encrypt-decrypt.obj
 0001:00005dd0       ??$insert@PEBD$0A@@?$basic_string@DU?$char_traits@D@std@@V?$allocator@D@2@@std@@QEAA?AV?$_String_iterator@V?$_String_val@U?$_Simple_types@D@std@@@std@@@1@V?$_String_const_iterator@V?$_String_val@U?$_Simple_types@D@std@@@std@@@1@QEBD1@Z 0000000140006dd0 f i encrypt-decrypt.obj
 0001:00005e60       ??$GetValue@PEAV?$basic_string@DU?$char_traits@D@std@@V?$allocator@D@2@@std@@@NameValuePairs@CryptoPP@@QEBA_NPEBDAEAPEAV?$basic_string@DU?$char_traits@D@std@@V?$allocator@D@2@@std@@@Z 0000000140006e60 f i encrypt-decrypt.obj
 0001:00005e80       ??$SecureWipeArray@I@CryptoPP@@YAXPEAI_K@Z 0000000140006e80 f i encrypt-decrypt.obj
 0001:00005e90       ??$StandardReallocate@EV?$AllocatorWithCleanup@E$0A@@CryptoPP@@@CryptoPP@@YAPEAEAEAV?$AllocatorWithCleanup@E$0A@@0@PEAE_K2_N@Z 0000000140006e90 f i encrypt-decrypt.obj
 0001:00005f50       ??$SecureWipeArray@E@CryptoPP@@YAXPEAE_K@Z 0000000140006f50 f i encrypt-decrypt.obj
 0001:00005f60       ??$_Reallocate_grow_by@V<lambda_9013ee9e23efe4882b67eff5b0ecf103>@@$$V@?$basic_string@DU?$char_traits@D@std@@V?$allocator@D@2@@std@@AEAAAEAV01@_KV<lambda_9013ee9e23efe4882b67eff5b0ecf103>@@@Z 0000000140006f60 f i encrypt-decrypt.obj
 0001:00006050       ??$_Reallocate_grow_by@V<lambda_319d5e083f45f90dcdce5dce53cbb275>@@D@?$basic_string@DU?$char_traits@D@std@@V?$allocator@D@2@@std@@AEAAAEAV01@_KV<lambda_319d5e083f45f90dcdce5dce53cbb275>@@D@Z 0000000140007050 f i encrypt-decrypt.obj
 0001:00006150       ??$_Reallocate_grow_by@V<lambda_65e615be2a453ca0576c979606f46740>@@PEBD_K@?$basic_string@DU?$char_traits@D@std@@V?$allocator@D@2@@std@@AEAAAEAV01@_KV<lambda_65e615be2a453ca0576c979606f46740>@@PEBD_K@Z 0000000140007150 f i encrypt-decrypt.obj
 0001:00006270       ??H?$_String_iterator@V?$_String_val@U?$_Simple_types@D@std@@@std@@@std@@QEBA?AV01@_J@Z 0000000140007270 f i encrypt-decrypt.obj
 0001:000062a0       ?begin@?$basic_string@DU?$char_traits@D@std@@V?$allocator@D@2@@std@@QEAA?AV?$_String_iterator@V?$_String_val@U?$_Simple_types@D@std@@@std@@@2@XZ 00000001400072a0 f i encrypt-decrypt.obj
 0001:000062f0       ?insert@?$basic_string@DU?$char_traits@D@std@@V?$allocator@D@2@@std@@QEAAAEAV12@_KQEBD0@Z 00000001400072f0 f i encrypt-decrypt.obj
 0001:000063e0       ??R<lambda_f3a66ab6a0570788f31503db83886f49>@@QEBAXQEADQEBD_K212@Z 00000001400073e0 f i encrypt-decrypt.obj
 0001:00006460       ??Y?$basic_string@DU?$char_traits@D@std@@V?$allocator@D@2@@std@@QEAAAEAV01@QEBD@Z 0000000140007460 f i encrypt-decrypt.obj
 0001:00006470       ??Y?$basic_string@DU?$char_traits@D@std@@V?$allocator@D@2@@std@@QEAAAEAV01@AEBV01@@Z 0000000140007470 f i encrypt-decrypt.obj
 0001:00006480       ?find@?$_Narrow_char_traits@DH@std@@SAPEBDQEBD_KAEBD@Z 0000000140007480 f i encrypt-decrypt.obj
 0001:00006490       ??Y?$_String_iterator@V?$_String_val@U?$_Simple_types@D@std@@@std@@@std@@QEAAAEAV01@_J@Z 0000000140007490 f i encrypt-decrypt.obj
 0001:000064b0       ?_Check_offset@?$_String_val@U?$_Simple_types@D@std@@@std@@QEBAX_K@Z 00000001400074b0 f i encrypt-decrypt.obj
 0001:000064d0       ??Y?$_String_const_iterator@V?$_String_val@U?$_Simple_types@D@std@@@std@@@std@@QEAAAEAV01@_J@Z 00000001400074d0 f i encrypt-decrypt.obj
 0001:000064e0       ?_Xran@?$_String_val@U?$_Simple_types@D@std@@@std@@SAXXZ 00000001400074e0 f i encrypt-decrypt.obj
 0001:00006500       ??$?RVConstByteArrayParameter@CryptoPP@@@AlgorithmParameters@CryptoPP@@QEAAAEAV01@PEBDAEBVConstByteArrayParameter@1@_N@Z 0000000140007500 f i encrypt-decrypt.obj
 0001:000065b0       ??$?RH@AlgorithmParameters@CryptoPP@@QEAAAEAV01@PEBDAEBH_N@Z 00000001400075b0 f i encrypt-decrypt.obj
 0001:00006660       ??$?R_N@AlgorithmParameters@CryptoPP@@QEAAAEAV01@PEBDAEB_N_N@Z 0000000140007660 f i encrypt-decrypt.obj
 0001:00006700       ??$?RPEBH@AlgorithmParameters@CryptoPP@@QEAAAEAV01@PEBDAEBQEBH_N@Z 0000000140007700 f i encrypt-decrypt.obj
 0001:000067b0       ??$_Reallocate_grow_by@V<lambda_f3a66ab6a0570788f31503db83886f49>@@_KPEBD_K@?$basic_string@DU?$char_traits@D@std@@V?$allocator@D@2@@std@@AEAAAEAV01@_KV<lambda_f3a66ab6a0570788f31503db83886f49>@@_KPEBD2@Z 00000001400077b0 f i encrypt-decrypt.obj
 0001:000068f0       ?MoveInto@?$AlgorithmParametersTemplate@PEBH@CryptoPP@@UEBAXPEAX@Z 00000001400078f0 f i encrypt-decrypt.obj
 0001:00006920       ?AssignValue@?$AlgorithmParametersTemplate@PEBH@CryptoPP@@UEBAXPEBDAEBVtype_info@@PEAX@Z 0000000140007920 f i encrypt-decrypt.obj
 0001:000069a0       ??0?$AlgorithmParametersTemplate@PEBH@CryptoPP@@QEAA@PEBDAEBQEBH_N@Z 00000001400079a0 f i encrypt-decrypt.obj
 0001:000069d0       ??0?$AlgorithmParametersTemplate@VConstByteArrayParameter@CryptoPP@@@CryptoPP@@QEAA@PEBDAEBVConstByteArrayParameter@1@_N@Z 00000001400079d0 f i encrypt-decrypt.obj
 0001:00006a10       ??0?$AlgorithmParametersTemplate@H@CryptoPP@@QEAA@PEBDAEBH_N@Z 0000000140007a10 f i encrypt-decrypt.obj
 0001:00006a40       ??0?$AlgorithmParametersTemplate@_N@CryptoPP@@QEAA@PEBDAEB_N_N@Z 0000000140007a40 f i encrypt-decrypt.obj
 0001:00006a70       ??0?$AlgorithmParametersTemplate@PEBH@CryptoPP@@QEAA@AEBV01@@Z 0000000140007a70 f i encrypt-decrypt.obj
 0001:00006aa8       ??_EBase64Encoder@CryptoPP@@W7EAAPEAXI@Z 0000000140007aa8 f i encrypt-decrypt.obj
 0001:00006ab4       ??_EBase64Decoder@CryptoPP@@W7EAAPEAXI@Z 0000000140007ab4 f i encrypt-decrypt.obj
 0001:00006ac0       ??_E?$CipherModeFinalTemplate_CipherHolder@V?$BlockCipherFinal@$0A@VEnc@Rijndael@CryptoPP@@@CryptoPP@@V?$ConcretePolicyHolder@VEmpty@CryptoPP@@V?$CFB_DecryptionTemplate@V?$AbstractPolicyHolder@VCFB_CipherAbstractPolicy@CryptoPP@@VCFB_ModePolicy@2@@CryptoPP@@@2@VCFB_CipherAbstractPolicy@2@@2@@CryptoPP@@WDI@EAAPEAXI@Z 0000000140007ac0 f i encrypt-decrypt.obj
 0001:00006acc       ??_E?$ConcretePolicyHolder@VEmpty@CryptoPP@@V?$CFB_EncryptionTemplate@V?$AbstractPolicyHolder@VCFB_CipherAbstractPolicy@CryptoPP@@VCFB_ModePolicy@2@@CryptoPP@@@2@VCFB_CipherAbstractPolicy@2@@CryptoPP@@WDI@EAAPEAXI@Z 0000000140007acc f i encrypt-decrypt.obj
 0001:00006ad8       ??_EFilterWithBufferedInput@CryptoPP@@W7EAAPEAXI@Z 0000000140007ad8 f i encrypt-decrypt.obj
 0001:00006ae4       ??_EGrouper@CryptoPP@@W7EAAPEAXI@Z 0000000140007ae4 f i encrypt-decrypt.obj
 0001:00006af0       ??_ESimpleProxyFilter@CryptoPP@@W7EAAPEAXI@Z 0000000140007af0 f i encrypt-decrypt.obj
 0001:00006afc       ??_E?$ConcretePolicyHolder@VEmpty@CryptoPP@@V?$CFB_DecryptionTemplate@V?$AbstractPolicyHolder@VCFB_CipherAbstractPolicy@CryptoPP@@VCFB_ModePolicy@2@@CryptoPP@@@2@VCFB_CipherAbstractPolicy@2@@CryptoPP@@W7EAAPEAXI@Z 0000000140007afc f i encrypt-decrypt.obj
 0001:00006b08       ??_E?$SourceTemplate@VStringStore@CryptoPP@@@CryptoPP@@W7EAAPEAXI@Z 0000000140007b08 f i encrypt-decrypt.obj
 0001:00006b14       ??_EBaseN_Encoder@CryptoPP@@W7EAAPEAXI@Z 0000000140007b14 f i encrypt-decrypt.obj
 0001:00006b20       ??_EBaseN_Decoder@CryptoPP@@W7EAAPEAXI@Z 0000000140007b20 f i encrypt-decrypt.obj
 0001:00006b2c       ??_EProxyFilter@CryptoPP@@W7EAAPEAXI@Z 0000000140007b2c f i encrypt-decrypt.obj
 0001:00006b38       ??_E?$BlockCipherFinal@$0A@VEnc@Rijndael@CryptoPP@@@CryptoPP@@W7EAAPEAXI@Z 0000000140007b38 f i encrypt-decrypt.obj
 0001:00006b44       ??_E?$CipherModeFinalTemplate_CipherHolder@V?$BlockCipherFinal@$0A@VEnc@Rijndael@CryptoPP@@@CryptoPP@@V?$ConcretePolicyHolder@VEmpty@CryptoPP@@V?$CFB_EncryptionTemplate@V?$AbstractPolicyHolder@VCFB_CipherAbstractPolicy@CryptoPP@@VCFB_ModePolicy@2@@CryptoPP@@@2@VCFB_CipherAbstractPolicy@2@@2@@CryptoPP@@WDI@EAAPEAXI@Z 0000000140007b44 f i encrypt-decrypt.obj
 0001:00006b50       ??_EStringStore@CryptoPP@@W7EAAPEAXI@Z 0000000140007b50 f i encrypt-decrypt.obj
 0001:00006b5c       ?AlgorithmProvider@?$CipherModeFinalTemplate_CipherHolder@V?$BlockCipherFinal@$0A@VEnc@Rijndael@CryptoPP@@@CryptoPP@@V?$ConcretePolicyHolder@VEmpty@CryptoPP@@V?$CFB_DecryptionTemplate@V?$AbstractPolicyHolder@VCFB_CipherAbstractPolicy@CryptoPP@@VCFB_ModePolicy@2@@CryptoPP@@@2@VCFB_CipherAbstractPolicy@2@@2@@CryptoPP@@WDA@EBA?AV?$basic_string@DU?$char_traits@D@std@@V?$allocator@D@2@@std@@XZ 0000000140007b5c f i encrypt-decrypt.obj
 0001:00006b5c       ?AlgorithmProvider@?$CipherModeFinalTemplate_CipherHolder@V?$BlockCipherFinal@$0A@VEnc@Rijndael@CryptoPP@@@CryptoPP@@V?$ConcretePolicyHolder@VEmpty@CryptoPP@@V?$CFB_EncryptionTemplate@V?$AbstractPolicyHolder@VCFB_CipherAbstractPolicy@CryptoPP@@VCFB_ModePolicy@2@@CryptoPP@@@2@VCFB_CipherAbstractPolicy@2@@2@@CryptoPP@@WDA@EBA?AV?$basic_string@DU?$char_traits@D@std@@V?$allocator@D@2@@std@@XZ 0000000140007b5c f i encrypt-decrypt.obj
 0001:00006b68       ??_E?$CipherModeFinalTemplate_CipherHolder@V?$BlockCipherFinal@$0A@VEnc@Rijndael@CryptoPP@@@CryptoPP@@V?$ConcretePolicyHolder@VEmpty@CryptoPP@@V?$CFB_DecryptionTemplate@V?$AbstractPolicyHolder@VCFB_CipherAbstractPolicy@CryptoPP@@VCFB_ModePolicy@2@@CryptoPP@@@2@VCFB_CipherAbstractPolicy@2@@2@@CryptoPP@@W7EAAPEAXI@Z 0000000140007b68 f i encrypt-decrypt.obj
 0001:00006b74       ??_E?$ConcretePolicyHolder@VEmpty@CryptoPP@@V?$CFB_EncryptionTemplate@V?$AbstractPolicyHolder@VCFB_CipherAbstractPolicy@CryptoPP@@VCFB_ModePolicy@2@@CryptoPP@@@2@VCFB_CipherAbstractPolicy@2@@CryptoPP@@W7EAAPEAXI@Z 0000000140007b74 f i encrypt-decrypt.obj
 0001:00006b80       ??_EStringSource@CryptoPP@@W7EAAPEAXI@Z 0000000140007b80 f i encrypt-decrypt.obj
 0001:00006b8c       ??_E?$ConcretePolicyHolder@VEmpty@CryptoPP@@V?$CFB_DecryptionTemplate@V?$AbstractPolicyHolder@VCFB_CipherAbstractPolicy@CryptoPP@@VCFB_ModePolicy@2@@CryptoPP@@@2@VCFB_CipherAbstractPolicy@2@@CryptoPP@@WDI@EAAPEAXI@Z 0000000140007b8c f i encrypt-decrypt.obj
 0001:00006b98       ??_E?$StringSinkTemplate@V?$basic_string@DU?$char_traits@D@std@@V?$allocator@D@2@@std@@@CryptoPP@@W7EAAPEAXI@Z 0000000140007b98 f i encrypt-decrypt.obj
 0001:00006ba4       ??_E?$CipherModeFinalTemplate_CipherHolder@V?$BlockCipherFinal@$0A@VEnc@Rijndael@CryptoPP@@@CryptoPP@@V?$ConcretePolicyHolder@VEmpty@CryptoPP@@V?$CFB_EncryptionTemplate@V?$AbstractPolicyHolder@VCFB_CipherAbstractPolicy@CryptoPP@@VCFB_ModePolicy@2@@CryptoPP@@@2@VCFB_CipherAbstractPolicy@2@@2@@CryptoPP@@W7EAAPEAXI@Z 0000000140007ba4 f i encrypt-decrypt.obj
 0001:00006bb0       ?AlgorithmProvider@?$CFB_CipherTemplate@V?$AbstractPolicyHolder@VCFB_CipherAbstractPolicy@CryptoPP@@VCFB_ModePolicy@2@@CryptoPP@@@CryptoPP@@WDA@EBA?AV?$basic_string@DU?$char_traits@D@std@@V?$allocator@D@2@@std@@XZ 0000000140007bb0 f i encrypt-decrypt.obj
 0001:00006bc0       ??0ImVec2@@QEAA@XZ         0000000140007bc0 f i imgui.obj
 0001:00006bd0       ??0ImVec2@@QEAA@MM@Z       0000000140007bd0 f i imgui.obj
 0001:00006be0       ??0ImVec4@@QEAA@XZ         0000000140007be0 f i imgui.obj
 0001:00006bf0       ??0ImVec4@@QEAA@MMMM@Z     0000000140007bf0 f i imgui.obj
 0001:00006c10       ??0ImGuiTextBuffer@@QEAA@XZ 0000000140007c10 f i imgui.obj
 0001:00006c40       ?begin@ImGuiTextBuffer@@QEBAPEBDXZ 0000000140007c40 f i imgui.obj
 0001:00006c50       ?size@ImGuiTextBuffer@@QEBAHXZ 0000000140007c50 f i imgui.obj
 0001:00006c60       ?clear@ImGuiTextBuffer@@QEAAXXZ 0000000140007c60 f i imgui.obj
 0001:00006c90       ??0Pair@ImGuiStorage@@QEAA@IM@Z 0000000140007c90 f i imgui.obj
 0001:00006ca0       ??0ImColor@@QEAA@HHHH@Z    0000000140007ca0 f i imgui.obj
 0001:00006d30       ??BImColor@@QEBA?AUImVec4@@XZ 0000000140007d30 f i imgui.obj
 0001:00006d40       ??0ImDrawList@@QEAA@XZ     0000000140007d40 f i imgui.obj
 0001:00006db0       ??1ImDrawList@@QEAA@XZ     0000000140007db0 f i imgui.obj
 0001:00006e10       ?PathClear@ImDrawList@@QEAAXXZ 0000000140007e10 f i imgui.obj
 0001:00006e20       ?PathLineTo@ImDrawList@@QEAAXAEBUImVec2@@@Z 0000000140007e20 f i imgui.obj
 0001:00006e30       ?PathFillConvex@ImDrawList@@QEAAXI@Z 0000000140007e30 f i imgui.obj
 0001:00006e60       ?PathStroke@ImDrawList@@QEAAXI_NM@Z 0000000140007e60 f i imgui.obj
 0001:00006ea0       ??0ImDrawData@@QEAA@XZ     0000000140007ea0 f i imgui.obj
 0001:00006ec0       ?GetCharAdvance@ImFont@@QEBAMG@Z 0000000140007ec0 f i imgui.obj
 0001:00006ef0       __local_stdio_printf_options 0000000140007ef0 f i imgui.obj
 0001:00006f00       __local_stdio_scanf_options 0000000140007f00 f i imgui.obj
 0001:00006f10       _vfprintf_l                0000000140007f10 f i imgui.obj
 0001:00006f60       vfprintf                   0000000140007f60 f i imgui.obj
 0001:00006f70       fprintf                    0000000140007f70 f i imgui.obj
 0001:00006fa0       vsnprintf                  0000000140007fa0 f i imgui.obj
 0001:00007010       _vsscanf_l                 0000000140008010 f i imgui.obj
 0001:00007060       sscanf                     0000000140008060 f i imgui.obj
 0001:00007090       fabsf                      0000000140008090 f i imgui.obj
 0001:000070a0       ??2@YAPEAX_KUImPlacementNewDummy@@PEAX@Z 00000001400080a0 f i imgui.obj
 0001:000070b0       ??0ImRect@@QEAA@XZ         00000001400080b0 f i imgui.obj
 0001:000070f0       ??0ImRect@@QEAA@AEBUImVec2@@0@Z 00000001400080f0 f i imgui.obj
 0001:00007110       ??0ImRect@@QEAA@AEBUImVec4@@@Z 0000000140008110 f i imgui.obj
 0001:00007140       ??0ImRect@@QEAA@MMMM@Z     0000000140008140 f i imgui.obj
 0001:00007170       ?GetCenter@ImRect@@QEBA?AUImVec2@@XZ 0000000140008170 f i imgui.obj
 0001:000071b0       ?GetSize@ImRect@@QEBA?AUImVec2@@XZ 00000001400081b0 f i imgui.obj
 0001:000071e0       ?GetWidth@ImRect@@QEBAMXZ  00000001400081e0 f i imgui.obj
 0001:000071f0       ?GetHeight@ImRect@@QEBAMXZ 00000001400081f0 f i imgui.obj
 0001:00007200       ?GetTL@ImRect@@QEBA?AUImVec2@@XZ 0000000140008200 f i imgui.obj
 0001:00007210       ?GetTR@ImRect@@QEBA?AUImVec2@@XZ 0000000140008210 f i imgui.obj
 0001:00007230       ?GetBL@ImRect@@QEBA?AUImVec2@@XZ 0000000140008230 f i imgui.obj
 0001:00007250       ?GetBR@ImRect@@QEBA?AUImVec2@@XZ 0000000140008250 f i imgui.obj
 0001:00007260       ?Contains@ImRect@@QEBA_NAEBUImVec2@@@Z 0000000140008260 f i imgui.obj
 0001:00007290       ?Overlaps@ImRect@@QEBA_NAEBU1@@Z 0000000140008290 f i imgui.obj
 0001:000072c0       ?Reduce@ImRect@@QEAAXAEBUImVec2@@@Z 00000001400082c0 f i imgui.obj
 0001:00007300       ?Clip@ImRect@@QEAAXAEBU1@@Z 0000000140008300 f i imgui.obj
 0001:00007350       ??0ImGuiStyleMod@@QEAA@HM@Z 0000000140008350 f i imgui.obj
 0001:00007360       ??0ImGuiStyleMod@@QEAA@HUImVec2@@@Z 0000000140008360 f i imgui.obj
 0001:00007390       ??0ImGuiTextEditState@@QEAA@XZ 0000000140008390 f i imgui.obj
 0001:000073d0       ?CursorAnimReset@ImGuiTextEditState@@QEAAXXZ 00000001400083d0 f i imgui.obj
 0001:000073e0       ?CursorClamp@ImGuiTextEditState@@QEAAXXZ 00000001400083e0 f i imgui.obj
 0001:00007420       ?HasSelection@ImGuiTextEditState@@QEBA_NXZ 0000000140008420 f i imgui.obj
 0001:00007430       ?ClearSelection@ImGuiTextEditState@@QEAAXXZ 0000000140008430 f i imgui.obj
 0001:00007440       ?SelectAll@ImGuiTextEditState@@QEAAXXZ 0000000140008440 f i imgui.obj
 0001:00007460       ??0ImGuiContext@@QEAA@XZ   0000000140008460 f i imgui.obj
 0001:00007890       ??0ImGuiMouseCursorData@@QEAA@XZ 0000000140008890 f i imgui.obj
 0001:000078f0       ??_H@YAXPEAX_K1P6APEAX0@Z@Z 00000001400088f0 f i imgui.obj
 0001:00007940       ??1ImGuiTextEditState@@QEAA@XZ 0000000140008940 f i imgui.obj
 0001:00007970       ??0ImGuiStorage@@QEAA@XZ   0000000140008970 f i imgui.obj
 0001:00007990       ??1ImGuiStorage@@QEAA@XZ   0000000140008990 f i imgui.obj
 0001:00007990       ??1ImGuiTextBuffer@@QEAA@XZ 0000000140008990 f i imgui.obj
 0001:000079a0       ??0ImGuiDrawContext@@QEAA@XZ 00000001400089a0 f i imgui.obj
 0001:00007b40       ?Rect@ImGuiWindow@@QEBA?AUImRect@@XZ 0000000140008b40 f i imgui.obj
 0001:00007b80       ?CalcFontSize@ImGuiWindow@@QEBAMXZ 0000000140008b80 f i imgui.obj
 0001:00007ba0       ?TitleBarHeight@ImGuiWindow@@QEBAMXZ 0000000140008ba0 f i imgui.obj
 0001:00007be0       ?TitleBarRect@ImGuiWindow@@QEBA?AUImRect@@XZ 0000000140008be0 f i imgui.obj
 0001:00007c20       ?MenuBarHeight@ImGuiWindow@@QEBAMXZ 0000000140008c20 f i imgui.obj
 0001:00007c60       ?MenuBarRect@ImGuiWindow@@QEBA?AUImRect@@XZ 0000000140008c60 f i imgui.obj
 0001:00007ca0       ?GetCurrentWindowRead@ImGui@@YAPEAUImGuiWindow@@XZ 0000000140008ca0 f i imgui.obj
 0001:00007cb0       ?GetCurrentWindow@ImGui@@YAPEAUImGuiWindow@@XZ 0000000140008cb0 f i imgui.obj
 0001:00007cd0       ??1ImGuiContext@@QEAA@XZ   0000000140008cd0 f i imgui.obj
 0001:00007d90       ??1ImGuiDrawContext@@QEAA@XZ 0000000140008d90 f i imgui.obj
 0001:00007df0       ??_GImDrawList@@QEAAPEAXI@Z 0000000140008df0 f i imgui.obj
 0001:00007e10       ??_GImGuiWindow@@QEAAPEAXI@Z 0000000140008e10 f i imgui.obj
 0001:00007e30       ??_GImGuiTextBuffer@@QEAAPEAXI@Z 0000000140008e30 f i imgui.obj
 0001:00007e50       ??0ImGuiSizeConstraintCallbackData@@QEAA@XZ 0000000140008e50 f i imgui.obj
 0001:00007e80       ??0ImGuiColMod@@QEAA@XZ    0000000140008e80 f i imgui.obj
 0001:00007ea0       ?GetVarPtr@ImGuiStyleVarInfo@@QEBAPEAXXZ 0000000140008ea0 f i imgui.obj
 0001:00007ec0       ?pop_back@?$ImVector@UImGuiColMod@@@@QEAAXXZ 0000000140008ec0 f i imgui.obj
 0001:00007ec0       ?pop_back@?$ImVector@UImGuiStyleMod@@@@QEAAXXZ 0000000140008ec0 f i imgui.obj
 0001:00007ec0       ?pop_back@?$ImVector@UImVec4@@@@QEAAXXZ 0000000140008ec0 f i imgui_draw.obj
 0001:00007ec0       ?pop_back@?$ImVector@PEAUImGuiWindow@@@@QEAAXXZ 0000000140008ec0 f i imgui.obj
 0001:00007ec0       ?pop_back@?$ImVector@M@@QEAAXXZ 0000000140008ec0 f i imgui.obj
 0001:00007ec0       ?pop_back@?$ImVector@UImGuiPopupRef@@@@QEAAXXZ 0000000140008ec0 f i imgui.obj
 0001:00007ec0       ?pop_back@?$ImVector@PEAX@@QEAAXXZ 0000000140008ec0 f i imgui_draw.obj
 0001:00007ec0       ?pop_back@?$ImVector@UImGuiGroupData@@@@QEAAXXZ 0000000140008ec0 f i imgui.obj
 0001:00007ec0       ?pop_back@?$ImVector@I@@QEAAXXZ 0000000140008ec0 f i imgui.obj
 0001:00007ec0       ?pop_back@?$ImVector@PEAUImFont@@@@QEAAXXZ 0000000140008ec0 f i imgui.obj
 0001:00007ec0       ?pop_back@?$ImVector@UImDrawCmd@@@@QEAAXXZ 0000000140008ec0 f i imgui.obj
 0001:00007ed0       ?push_back@?$ImVector@M@@QEAAXAEBM@Z 0000000140008ed0 f i imgui.obj
 0001:00007ed0       ?push_back@?$ImVector@I@@QEAAXAEBI@Z 0000000140008ed0 f i imgui.obj
 0001:00007f20       ?resize@?$ImVector@I@@QEAAXH@Z 0000000140008f20 f i imgui.obj
 0001:00007f60       ?back@?$ImVector@M@@QEAAAEAMXZ 0000000140008f60 f i imgui.obj
 0001:00007f60       ?back@?$ImVector@I@@QEAAAEAIXZ 0000000140008f60 f i imgui.obj
 0001:00007f70       ??1?$ImVector@UImGuiColumnData@@@@QEAA@XZ 0000000140008f70 f i imgui.obj
 0001:00007f70       ??1?$ImVector@_N@@QEAA@XZ  0000000140008f70 f i imgui.obj
 0001:00007f70       ??1?$ImVector@G@@QEAA@XZ   0000000140008f70 f i imgui.obj
 0001:00007f70       ??1?$ImVector@D@@QEAA@XZ   0000000140008f70 f i imgui.obj
 0001:00007f70       ??1?$ImVector@UImGuiPopupRef@@@@QEAA@XZ 0000000140008f70 f i imgui.obj
 0001:00007f70       ??1?$ImVector@UGlyph@ImFont@@@@QEAA@XZ 0000000140008f70 f i imgui_draw.obj
 0001:00007f70       ??1?$ImVector@UImDrawCmd@@@@QEAA@XZ 0000000140008f70 f i imgui.obj
 0001:00007f70       ??1?$ImVector@UImDrawVert@@@@QEAA@XZ 0000000140008f70 f i imgui.obj
 0001:00007f70       ??1?$ImVector@UImDrawChannel@@@@QEAA@XZ 0000000140008f70 f i imgui.obj
 0001:00007f70       ??1?$ImVector@UImGuiGroupData@@@@QEAA@XZ 0000000140008f70 f i imgui.obj
 0001:00007f70       ??1?$ImVector@PEAUImFont@@@@QEAA@XZ 0000000140008f70 f i imgui.obj
 0001:00007f70       ??1?$ImVector@UPair@ImGuiStorage@@@@QEAA@XZ 0000000140008f70 f i imgui.obj
 0001:00007f70       ??1?$ImVector@UImFontConfig@@@@QEAA@XZ 0000000140008f70 f i imgui_draw.obj
 0001:00007f70       ??1?$ImVector@UImGuiStyleMod@@@@QEAA@XZ 0000000140008f70 f i imgui.obj
 0001:00007f70       ??1?$ImVector@M@@QEAA@XZ   0000000140008f70 f i imgui.obj
 0001:00007f70       ??1?$ImVector@UImGuiColMod@@@@QEAA@XZ 0000000140008f70 f i imgui.obj
 0001:00007f70       ??1?$ImVector@PEAX@@QEAA@XZ 0000000140008f70 f i imgui.obj
 0001:00007f70       ??1?$ImVector@UImVec4@@@@QEAA@XZ 0000000140008f70 f i imgui.obj
 0001:00007f70       ??1?$ImVector@I@@QEAA@XZ   0000000140008f70 f i imgui.obj
 0001:00007f70       ??1?$ImVector@UImVec2@@@@QEAA@XZ 0000000140008f70 f i imgui.obj
 0001:00007f70       ??1?$ImVector@PEAUImDrawList@@@@QEAA@XZ 0000000140008f70 f i imgui.obj
 0001:00007f70       ??1?$ImVector@UImGuiIniData@@@@QEAA@XZ 0000000140008f70 f i imgui.obj
 0001:00007f70       ??1?$ImVector@PEAUImGuiWindow@@@@QEAA@XZ 0000000140008f70 f i imgui.obj
 0001:00007f70       ??1?$ImVector@Ustbrp_rect@@@@QEAA@XZ 0000000140008f70 f i imgui_draw.obj
 0001:00007f90       ??0?$ImVector@_N@@QEAA@XZ  0000000140008f90 f i imgui.obj
 0001:00007f90       ??0?$ImVector@UImGuiColumnData@@@@QEAA@XZ 0000000140008f90 f i imgui.obj
 0001:00007f90       ??0?$ImVector@UImDrawVert@@@@QEAA@XZ 0000000140008f90 f i imgui.obj
 0001:00007f90       ??0?$ImVector@G@@QEAA@XZ   0000000140008f90 f i imgui.obj
 0001:00007f90       ??0?$ImVector@UImGuiGroupData@@@@QEAA@XZ 0000000140008f90 f i imgui.obj
 0001:00007f90       ??0?$ImVector@UImDrawChannel@@@@QEAA@XZ 0000000140008f90 f i imgui.obj
 0001:00007f90       ??0?$ImVector@UImDrawCmd@@@@QEAA@XZ 0000000140008f90 f i imgui.obj
 0001:00007f90       ??0?$ImVector@UImGuiStyleMod@@@@QEAA@XZ 0000000140008f90 f i imgui.obj
 0001:00007f90       ??0?$ImVector@UGlyph@ImFont@@@@QEAA@XZ 0000000140008f90 f i imgui_draw.obj
 0001:00007f90       ??0?$ImVector@PEAUImFont@@@@QEAA@XZ 0000000140008f90 f i imgui.obj
 0001:00007f90       ??0?$ImVector@D@@QEAA@XZ   0000000140008f90 f i imgui.obj
 0001:00007f90       ??0?$ImVector@PEAUImGuiWindow@@@@QEAA@XZ 0000000140008f90 f i imgui.obj
 0001:00007f90       ??0?$ImVector@UImFontConfig@@@@QEAA@XZ 0000000140008f90 f i imgui_draw.obj
 0001:00007f90       ??0?$ImVector@M@@QEAA@XZ   0000000140008f90 f i imgui.obj
 0001:00007f90       ??0?$ImVector@UImGuiPopupRef@@@@QEAA@XZ 0000000140008f90 f i imgui.obj
 0001:00007f90       ??0?$ImVector@PEAUImDrawList@@@@QEAA@XZ 0000000140008f90 f i imgui.obj
 0001:00007f90       ??0?$ImVector@Ustbrp_rect@@@@QEAA@XZ 0000000140008f90 f i imgui_draw.obj
 0001:00007f90       ??0?$ImVector@UImVec4@@@@QEAA@XZ 0000000140008f90 f i imgui.obj
 0001:00007f90       ??0?$ImVector@UPair@ImGuiStorage@@@@QEAA@XZ 0000000140008f90 f i imgui.obj
 0001:00007f90       ??0?$ImVector@I@@QEAA@XZ   0000000140008f90 f i imgui.obj
 0001:00007f90       ??0?$ImVector@UImGuiColMod@@@@QEAA@XZ 0000000140008f90 f i imgui.obj
 0001:00007f90       ??0?$ImVector@UImVec2@@@@QEAA@XZ 0000000140008f90 f i imgui.obj
 0001:00007f90       ??0?$ImVector@UImGuiIniData@@@@QEAA@XZ 0000000140008f90 f i imgui.obj
 0001:00007f90       ??0?$ImVector@PEAX@@QEAA@XZ 0000000140008f90 f i imgui.obj
 0001:00007fa0       ?resize@?$ImVector@M@@QEAAXH@Z 0000000140008fa0 f i imgui.obj
 0001:00007fa0       ?resize@?$ImVector@UImGuiColumnData@@@@QEAAXH@Z 0000000140008fa0 f i imgui.obj
 0001:00007fe0       ??A?$ImVector@M@@QEAAAEAMH@Z 0000000140008fe0 f i imgui_draw.obj
 0001:00007fe0       ??A?$ImVector@UImGuiColumnData@@@@QEAAAEAUImGuiColumnData@@H@Z 0000000140008fe0 f i imgui.obj
 0001:00007fe0       ??A?$ImVector@M@@QEBAAEBMH@Z 0000000140008fe0 f i imgui.obj
 0001:00007ff0       ?resize@?$ImVector@UImGuiPopupRef@@@@QEAAXH@Z 0000000140008ff0 f i imgui.obj
 0001:00007ff0       ?resize@?$ImVector@UGlyph@ImFont@@@@QEAAXH@Z 0000000140008ff0 f i imgui_draw.obj
 0001:00007ff0       ?resize@?$ImVector@UImGuiGroupData@@@@QEAAXH@Z 0000000140008ff0 f i imgui.obj
 0001:00008030       ?back@?$ImVector@UGlyph@ImFont@@@@QEAAAEAUGlyph@ImFont@@XZ 0000000140009030 f i imgui_draw.obj
 0001:00008030       ?back@?$ImVector@UImGuiGroupData@@@@QEAAAEAUImGuiGroupData@@XZ 0000000140009030 f i imgui.obj
 0001:00008050       ?resize@?$ImVector@_N@@QEAAXH@Z 0000000140009050 f i imgui.obj
 0001:00008090       ?push_back@?$ImVector@PEAX@@QEAAXAEBQEAX@Z 0000000140009090 f i imgui_draw.obj
 0001:00008090       ?push_back@?$ImVector@PEAUImFont@@@@QEAAXAEBQEAUImFont@@@Z 0000000140009090 f i imgui.obj
 0001:00008090       ?push_back@?$ImVector@PEAUImGuiWindow@@@@QEAAXAEBQEAUImGuiWindow@@@Z 0000000140009090 f i imgui.obj
 0001:00008090       ?push_back@?$ImVector@PEAUImDrawList@@@@QEAAXAEBQEAUImDrawList@@@Z 0000000140009090 f i imgui.obj
 0001:000080e0       ?resize@?$ImVector@PEAUImDrawList@@@@QEAAXH@Z 00000001400090e0 f i imgui.obj
 0001:00008120       ?clear@?$ImVector@UPair@ImGuiStorage@@@@QEAAXXZ 0000000140009120 f i imgui.obj
 0001:00008120       ?clear@?$ImVector@UGlyph@ImFont@@@@QEAAXXZ 0000000140009120 f i imgui_draw.obj
 0001:00008120       ?clear@?$ImVector@PEAUImGuiWindow@@@@QEAAXXZ 0000000140009120 f i imgui.obj
 0001:00008120       ?clear@?$ImVector@G@@QEAAXXZ 0000000140009120 f i imgui.obj
 0001:00008120       ?clear@?$ImVector@UImGuiPopupRef@@@@QEAAXXZ 0000000140009120 f i imgui.obj
 0001:00008120       ?clear@?$ImVector@PEAX@@QEAAXXZ 0000000140009120 f i imgui_draw.obj
 0001:00008120       ?clear@?$ImVector@UImFontConfig@@@@QEAAXXZ 0000000140009120 f i imgui_draw.obj
 0001:00008120       ?clear@?$ImVector@M@@QEAAXXZ 0000000140009120 f i imgui_draw.obj
 0001:00008120       ?clear@?$ImVector@PEAUImDrawList@@@@QEAAXXZ 0000000140009120 f i imgui.obj
 0001:00008120       ?clear@?$ImVector@PEAUImFont@@@@QEAAXXZ 0000000140009120 f i imgui.obj
 0001:00008120       ?clear@?$ImVector@UImDrawChannel@@@@QEAAXXZ 0000000140009120 f i imgui_draw.obj
 0001:00008120       ?clear@?$ImVector@UImGuiIniData@@@@QEAAXXZ 0000000140009120 f i imgui.obj
 0001:00008120       ?clear@?$ImVector@D@@QEAAXXZ 0000000140009120 f i imgui.obj
 0001:00008120       ?clear@?$ImVector@UImGuiColMod@@@@QEAAXXZ 0000000140009120 f i imgui.obj
 0001:00008120       ?clear@?$ImVector@UImDrawVert@@@@QEAAXXZ 0000000140009120 f i imgui_draw.obj
 0001:00008120       ?clear@?$ImVector@UImDrawCmd@@@@QEAAXXZ 0000000140009120 f i imgui_draw.obj
 0001:00008120       ?clear@?$ImVector@UImVec4@@@@QEAAXXZ 0000000140009120 f i imgui_draw.obj
 0001:00008120       ?clear@?$ImVector@UImVec2@@@@QEAAXXZ 0000000140009120 f i imgui_draw.obj
 0001:00008120       ?clear@?$ImVector@UImGuiStyleMod@@@@QEAAXXZ 0000000140009120 f i imgui.obj
 0001:00008150       ??A?$ImVector@PEAUImGuiWindow@@@@QEAAAEAPEAUImGuiWindow@@H@Z 0000000140009150 f i imgui.obj
 0001:00008150       ??A?$ImVector@PEAUImFont@@@@QEAAAEAPEAUImFont@@H@Z 0000000140009150 f i imgui.obj
 0001:00008150       ??A?$ImVector@PEAUImDrawList@@@@QEAAAEAPEAUImDrawList@@H@Z 0000000140009150 f i imgui.obj
 0001:00008160       ?empty@?$ImVector@UImDrawVert@@@@QEBA_NXZ 0000000140009160 f i imgui.obj
 0001:00008160       ?empty@?$ImVector@UImDrawCmd@@@@QEBA_NXZ 0000000140009160 f i imgui.obj
 0001:00008160       ?empty@?$ImVector@UImFontConfig@@@@QEBA_NXZ 0000000140009160 f i imgui_draw.obj
 0001:00008160       ?empty@?$ImVector@PEAUImFont@@@@QEBA_NXZ 0000000140009160 f i imgui.obj
 0001:00008160       ?empty@?$ImVector@M@@QEBA_NXZ 0000000140009160 f i imgui.obj
 0001:00008160       ?empty@?$ImVector@PEAX@@QEBA_NXZ 0000000140009160 f i imgui_draw.obj
 0001:00008160       ?empty@?$ImVector@PEAUImDrawList@@@@QEBA_NXZ 0000000140009160 f i imgui.obj
 0001:00008160       ?empty@?$ImVector@PEAUImGuiWindow@@@@QEBA_NXZ 0000000140009160 f i imgui.obj
 0001:00008160       ?empty@?$ImVector@UImGuiPopupRef@@@@QEBA_NXZ 0000000140009160 f i imgui.obj
 0001:00008170       ?push_back@?$ImVector@UImGuiPopupRef@@@@QEAAXAEBUImGuiPopupRef@@@Z 0000000140009170 f i imgui.obj
 0001:000081d0       ??A?$ImVector@UGlyph@ImFont@@@@QEAAAEAUGlyph@ImFont@@H@Z 00000001400091d0 f i imgui_draw.obj
 0001:000081d0       ??A?$ImVector@UImGuiPopupRef@@@@QEAAAEAUImGuiPopupRef@@H@Z 00000001400091d0 f i imgui.obj
 0001:000081e0       ?push_back@?$ImVector@UImGuiStyleMod@@@@QEAAXAEBUImGuiStyleMod@@@Z 00000001400091e0 f i imgui.obj
 0001:00008240       ?back@?$ImVector@UImGuiStyleMod@@@@QEAAAEAUImGuiStyleMod@@XZ 0000000140009240 f i imgui.obj
 0001:00008260       ?push_back@?$ImVector@UImGuiColMod@@@@QEAAXAEBUImGuiColMod@@@Z 0000000140009260 f i imgui.obj
 0001:000082b0       ?back@?$ImVector@UImGuiColMod@@@@QEAAAEAUImGuiColMod@@XZ 00000001400092b0 f i imgui.obj
 0001:000082d0       ?resize@?$ImVector@UImGuiIniData@@@@QEAAXH@Z 00000001400092d0 f i imgui.obj
 0001:000082d0       ?resize@?$ImVector@UImDrawChannel@@@@QEAAXH@Z 00000001400092d0 f i imgui_draw.obj
 0001:00008310       ?back@?$ImVector@UImGuiIniData@@@@QEAAAEAUImGuiIniData@@XZ 0000000140009310 f i imgui.obj
 0001:00008320       ??A?$ImVector@UImGuiIniData@@@@QEAAAEAUImGuiIniData@@H@Z 0000000140009320 f i imgui.obj
 0001:00008320       ??A?$ImVector@UImDrawChannel@@@@QEAAAEAUImDrawChannel@@H@Z 0000000140009320 f i imgui_draw.obj
 0001:00008330       ?insert@?$ImVector@PEAUImGuiWindow@@@@QEAAPEAPEAUImGuiWindow@@PEBQEAU2@AEBQEAU2@@Z 0000000140009330 f i imgui.obj
 0001:000083c0       ?erase@?$ImVector@PEAUImGuiWindow@@@@QEAAPEAPEAUImGuiWindow@@PEBQEAU2@@Z 00000001400093c0 f i imgui.obj
 0001:00008410       ?reserve@?$ImVector@PEAUImDrawList@@@@QEAAXH@Z 0000000140009410 f i imgui.obj
 0001:00008410       ?reserve@?$ImVector@PEAUImGuiWindow@@@@QEAAXH@Z 0000000140009410 f i imgui.obj
 0001:00008410       ?reserve@?$ImVector@UImVec2@@@@QEAAXH@Z 0000000140009410 f i imgui.obj
 0001:00008410       ?reserve@?$ImVector@PEAUImFont@@@@QEAAXH@Z 0000000140009410 f i imgui.obj
 0001:00008410       ?reserve@?$ImVector@PEAX@@QEAAXH@Z 0000000140009410 f i imgui_draw.obj
 0001:00008480       ?resize@?$ImVector@PEAUImGuiWindow@@@@QEAAXH@Z 0000000140009480 f i imgui.obj
 0001:00008480       ?resize@?$ImVector@PEAX@@QEAAXH@Z 0000000140009480 f i imgui_draw.obj
 0001:00008480       ?resize@?$ImVector@UImVec2@@@@QEAAXH@Z 0000000140009480 f i imgui.obj
 0001:000084c0       ?swap@?$ImVector@PEAUImGuiWindow@@@@QEAAXAEAV1@@Z 00000001400094c0 f i imgui.obj
 0001:000084f0       ?back@?$ImVector@PEAX@@QEAAAEAPEAXXZ 00000001400094f0 f i imgui_draw.obj
 0001:000084f0       ?back@?$ImVector@PEAUImFont@@@@QEAAAEAPEAUImFont@@XZ 00000001400094f0 f i imgui.obj
 0001:000084f0       ?back@?$ImVector@PEAUImGuiWindow@@@@QEAAAEAPEAUImGuiWindow@@XZ 00000001400094f0 f i imgui.obj
 0001:00008500       ?front@?$ImVector@D@@QEBAAEBDXZ 0000000140009500 f i imgui.obj
 0001:00008500       ?begin@?$ImVector@UPair@ImGuiStorage@@@@QEAAPEAUPair@ImGuiStorage@@XZ 0000000140009500 f i imgui.obj
 0001:00008500       ?begin@?$ImVector@PEAUImGuiWindow@@@@QEAAPEAPEAUImGuiWindow@@XZ 0000000140009500 f i imgui.obj
 0001:00008510       ?push_back@?$ImVector@UImVec2@@@@QEAAXAEBUImVec2@@@Z 0000000140009510 f i imgui.obj
 0001:00008560       ?back@?$ImVector@UImVec4@@@@QEAAAEAUImVec4@@XZ 0000000140009560 f i imgui.obj
 0001:00008570       ?resize@?$ImVector@G@@QEAAXH@Z 0000000140009570 f i imgui.obj
 0001:000085b0       ??A?$ImVector@G@@QEBAAEBGH@Z 00000001400095b0 f i imgui.obj
 0001:000085b0       ??A?$ImVector@G@@QEAAAEAGH@Z 00000001400095b0 f i imgui.obj
 0001:000085c0       ?back@?$ImVector@UImDrawCmd@@@@QEAAAEAUImDrawCmd@@XZ 00000001400095c0 f i imgui.obj
 0001:000085e0       ?insert@?$ImVector@UPair@ImGuiStorage@@@@QEAAPEAUPair@ImGuiStorage@@PEBU23@AEBU23@@Z 00000001400095e0 f i imgui.obj
 0001:00008670       ?end@?$ImVector@UPair@ImGuiStorage@@@@QEAAPEAUPair@ImGuiStorage@@XZ 0000000140009670 f i imgui.obj
 0001:00008670       ?end@?$ImVector@UPair@ImGuiStorage@@@@QEBAPEBUPair@ImGuiStorage@@XZ 0000000140009670 f i imgui.obj
 0001:00008680       ?push_back@?$ImVector@D@@QEAAXAEBD@Z 0000000140009680 f i imgui.obj
 0001:000086d0       ?reserve@?$ImVector@D@@QEAAXH@Z 00000001400096d0 f i imgui.obj
 0001:000086d0       ?reserve@?$ImVector@_N@@QEAAXH@Z 00000001400096d0 f i imgui.obj
 0001:00008730       ?resize@?$ImVector@D@@QEAAXH@Z 0000000140009730 f i imgui.obj
 0001:00008770       ??A?$ImVector@D@@QEAAAEADH@Z 0000000140009770 f i imgui.obj
 0001:00008780       ?reserve@?$ImVector@M@@QEAAXH@Z 0000000140009780 f i imgui.obj
 0001:00008780       ?reserve@?$ImVector@I@@QEAAXH@Z 0000000140009780 f i imgui.obj
 0001:00008780       ?reserve@?$ImVector@UImGuiColumnData@@@@QEAAXH@Z 0000000140009780 f i imgui.obj
 0001:000087f0       ?_grow_capacity@?$ImVector@UImGuiGroupData@@@@QEAAHH@Z 00000001400097f0 f i imgui.obj
 0001:000087f0       ?_grow_capacity@?$ImVector@UImFontConfig@@@@QEAAHH@Z 00000001400097f0 f i imgui_draw.obj
 0001:000087f0       ?_grow_capacity@?$ImVector@UGlyph@ImFont@@@@QEAAHH@Z 00000001400097f0 f i imgui_draw.obj
 0001:000087f0       ?_grow_capacity@?$ImVector@PEAUImGuiWindow@@@@QEAAHH@Z 00000001400097f0 f i imgui.obj
 0001:000087f0       ?_grow_capacity@?$ImVector@UImVec2@@@@QEAAHH@Z 00000001400097f0 f i imgui.obj
 0001:000087f0       ?_grow_capacity@?$ImVector@M@@QEAAHH@Z 00000001400097f0 f i imgui.obj
 0001:000087f0       ?_grow_capacity@?$ImVector@UImGuiColMod@@@@QEAAHH@Z 00000001400097f0 f i imgui.obj
 0001:000087f0       ?_grow_capacity@?$ImVector@PEAX@@QEAAHH@Z 00000001400097f0 f i imgui_draw.obj
 0001:000087f0       ?_grow_capacity@?$ImVector@UImGuiIniData@@@@QEAAHH@Z 00000001400097f0 f i imgui.obj
 0001:000087f0       ?_grow_capacity@?$ImVector@UImVec4@@@@QEAAHH@Z 00000001400097f0 f i imgui_draw.obj
 0001:000087f0       ?_grow_capacity@?$ImVector@UImGuiPopupRef@@@@QEAAHH@Z 00000001400097f0 f i imgui.obj
 0001:000087f0       ?_grow_capacity@?$ImVector@UImGuiColumnData@@@@QEAAHH@Z 00000001400097f0 f i imgui.obj
 0001:000087f0       ?_grow_capacity@?$ImVector@UImGuiStyleMod@@@@QEAAHH@Z 00000001400097f0 f i imgui.obj
 0001:000087f0       ?_grow_capacity@?$ImVector@UImDrawChannel@@@@QEAAHH@Z 00000001400097f0 f i imgui_draw.obj
 0001:000087f0       ?_grow_capacity@?$ImVector@Ustbrp_rect@@@@QEAAHH@Z 00000001400097f0 f i imgui_draw.obj
 0001:000087f0       ?_grow_capacity@?$ImVector@UImDrawVert@@@@QEAAHH@Z 00000001400097f0 f i imgui_draw.obj
 0001:000087f0       ?_grow_capacity@?$ImVector@PEAUImFont@@@@QEAAHH@Z 00000001400097f0 f i imgui.obj
 0001:000087f0       ?_grow_capacity@?$ImVector@PEAUImDrawList@@@@QEAAHH@Z 00000001400097f0 f i imgui.obj
 0001:000087f0       ?_grow_capacity@?$ImVector@UImDrawCmd@@@@QEAAHH@Z 00000001400097f0 f i imgui_draw.obj
 0001:000087f0       ?_grow_capacity@?$ImVector@D@@QEAAHH@Z 00000001400097f0 f i imgui.obj
 0001:000087f0       ?_grow_capacity@?$ImVector@G@@QEAAHH@Z 00000001400097f0 f i imgui.obj
 0001:000087f0       ?_grow_capacity@?$ImVector@I@@QEAAHH@Z 00000001400097f0 f i imgui.obj
 0001:00008830       ?reserve@?$ImVector@UGlyph@ImFont@@@@QEAAXH@Z 0000000140009830 f i imgui_draw.obj
 0001:00008830       ?reserve@?$ImVector@UImGuiGroupData@@@@QEAAXH@Z 0000000140009830 f i imgui.obj
 0001:00008830       ?reserve@?$ImVector@UImGuiPopupRef@@@@QEAAXH@Z 0000000140009830 f i imgui.obj
 0001:000088a0       ?_grow_capacity@?$ImVector@_N@@QEAAHH@Z 00000001400098a0 f i imgui.obj
 0001:000088d0       ?reserve@?$ImVector@UImGuiStyleMod@@@@QEAAXH@Z 00000001400098d0 f i imgui.obj
 0001:00008940       ?reserve@?$ImVector@UImDrawVert@@@@QEAAXH@Z 0000000140009940 f i imgui_draw.obj
 0001:00008940       ?reserve@?$ImVector@UImGuiColMod@@@@QEAAXH@Z 0000000140009940 f i imgui.obj
 0001:000089b0       ?reserve@?$ImVector@UImDrawChannel@@@@QEAAXH@Z 00000001400099b0 f i imgui_draw.obj
 0001:000089b0       ?reserve@?$ImVector@UImGuiIniData@@@@QEAAXH@Z 00000001400099b0 f i imgui.obj
 0001:00008a20       ?reserve@?$ImVector@G@@QEAAXH@Z 0000000140009a20 f i imgui.obj
 0001:00008a90       ?reserve@?$ImVector@UPair@ImGuiStorage@@@@QEAAXH@Z 0000000140009a90 f i imgui.obj
 0001:00008a90       ?reserve@?$ImVector@UImVec4@@@@QEAAXH@Z 0000000140009a90 f i imgui_draw.obj
 0001:00008a90       ?reserve@?$ImVector@Ustbrp_rect@@@@QEAAXH@Z 0000000140009a90 f i imgui_draw.obj
 0001:00008b00       ??0ImDrawCmd@@QEAA@XZ      0000000140009b00 f i imgui_draw.obj
 0001:00008b50       ??0ImDrawChannel@@QEAA@XZ  0000000140009b50 f i imgui_draw.obj
 0001:00008b70       ??_GImFont@@QEAAPEAXI@Z    0000000140009b70 f i imgui_draw.obj
 0001:00008b90       ?push_back@?$ImVector@UImVec4@@@@QEAAXAEBUImVec4@@@Z 0000000140009b90 f i imgui_draw.obj
 0001:00008b90       ?push_back@?$ImVector@Ustbrp_rect@@@@QEAAXAEBUstbrp_rect@@@Z 0000000140009b90 f i imgui_draw.obj
 0001:00008be0       ??A?$ImVector@Ustbrp_rect@@@@QEAAAEAUstbrp_rect@@H@Z 0000000140009be0 f i imgui_draw.obj
 0001:00008bf0       ?push_back@?$ImVector@UImFontConfig@@@@QEAAXAEBUImFontConfig@@@Z 0000000140009bf0 f i imgui_draw.obj
 0001:00008c70       ?back@?$ImVector@UImFontConfig@@@@QEAAAEAUImFontConfig@@XZ 0000000140009c70 f i imgui_draw.obj
 0001:00008c80       ??A?$ImVector@UImFontConfig@@@@QEAAAEAUImFontConfig@@H@Z 0000000140009c80 f i imgui_draw.obj
 0001:00008c90       ?resize@?$ImVector@UImVec4@@@@QEAAXH@Z 0000000140009c90 f i imgui_draw.obj
 0001:00008cd0       ?resize@?$ImVector@UImDrawVert@@@@QEAAXH@Z 0000000140009cd0 f i imgui_draw.obj
 0001:00008d10       ?push_back@?$ImVector@UImDrawCmd@@@@QEAAXAEBUImDrawCmd@@@Z 0000000140009d10 f i imgui_draw.obj
 0001:00008d70       ?resize@?$ImVector@UImDrawCmd@@@@QEAAXH@Z 0000000140009d70 f i imgui_draw.obj
 0001:00008db0       ??A?$ImVector@UImDrawCmd@@@@QEAAAEAUImDrawCmd@@H@Z 0000000140009db0 f i imgui_draw.obj
 0001:00008db0       ??A?$ImVector@UImDrawCmd@@@@QEBAAEBUImDrawCmd@@H@Z 0000000140009db0 f i imgui_impl_dx9.obj
 0001:00008dc0       ?reserve@?$ImVector@UImFontConfig@@@@QEAAXH@Z 0000000140009dc0 f i imgui_draw.obj
 0001:00008e30       ?reserve@?$ImVector@UImDrawCmd@@@@QEAAXH@Z 0000000140009e30 f i imgui_draw.obj
 0001:00008ea0       ?abs@@YAMM@Z               0000000140009ea0 f i main.obj
 0001:00008eb0       ?now@system_clock@chrono@std@@SA?AV?$time_point@Usystem_clock@chrono@std@@V?$duration@_JU?$ratio@$00$0JIJGIA@@std@@@23@@23@XZ 0000000140009eb0 f i main.obj
 0001:00008ef0       ??$make_xorstr@V<lambda_11384515384b8ae98aadb83cf325de2d>@@$0A@$00$01$02$03$04$05$06$07$08$09$0L@$0M@$0N@$0O@$$Z$0A@$00@jm@@YA?AV?$xor_string@U?$tstring_@$MD0GI@$MD0GB@$MD0HC@$MD0HF@$MD0GO@$MD0GB@$MD0DH@$MD0DH@$MD0DH@$MD0DH@$MD0CO@$MD0GD@$MD0GP@$MD0GN@$MD0A@@detail@jm@@U?$_ki@$0A@$0HCOOBKMMOCNAJOD@@23@U?$_ki@$00$0FKDPGHKFFPBNFHMM@@23@@0@V<lambda_11384515384b8ae98aadb83cf325de2d>@@U?$integer_sequence@_K$0A@$00$01$02$03$04$05$06$07$08$09$0L@$0M@$0N@$0O@@std@@U?$integer_sequence@_K$0A@$00@4@@Z 0000000140009ef0 f i main.obj
 0001:00008f10       ??$make_xorstr@V<lambda_cc06452fb6f84b557153ffee9a2a6404>@@$0A@$00$01$02$03$$Z$0A@$00@jm@@YA?AV?$xor_string@U?$tstring_@$MD0DA@$MD0CO@$MD0DA@$MD0DB@$MD0A@@detail@jm@@U?$_ki@$0A@$0HCOOBKMMOCNAJOD@@23@U?$_ki@$00$0FKDPGHKFFPBNFHMM@@23@@0@V<lambda_cc06452fb6f84b557153ffee9a2a6404>@@U?$integer_sequence@_K$0A@$00$01$02$03@std@@U?$integer_sequence@_K$0A@$00@4@@Z 0000000140009f10 f i main.obj
 0001:00008f70       ??0globals@@QEAA@XZ        0000000140009f70 f i main.obj
 0001:00008fb0       ??0<unnamed-type-server_side>@globals@@QEAA@XZ 0000000140009fb0 f i main.obj
 0001:00009020       ??0<unnamed-type-key>@<unnamed-type-server_side>@globals@@QEAA@XZ 000000014000a020 f i main.obj
 0001:00009040       ??0<unnamed-type-client_side>@globals@@QEAA@XZ 000000014000a040 f i main.obj
 0001:00009090       ??0<unnamed-type-window_settings>@<unnamed-type-client_side>@globals@@QEAA@XZ 000000014000a090 f i main.obj
 0001:000090c0       ??0<unnamed-type-data>@<unnamed-type-client_side>@globals@@QEAA@XZ 000000014000a0c0 f i main.obj
 0001:00009100       ??1globals@@QEAA@XZ        000000014000a100 f i main.obj
 0001:00009120       ??1<unnamed-type-client_side>@globals@@QEAA@XZ 000000014000a120 f i main.obj
 0001:00009150       ??1<unnamed-type-server_side>@globals@@QEAA@XZ 000000014000a150 f i main.obj
 0001:00009190       ??1<unnamed-type-key>@<unnamed-type-server_side>@globals@@QEAA@XZ 000000014000a190 f i main.obj
 0001:000091b0       ??1<unnamed-type-data>@<unnamed-type-client_side>@globals@@QEAA@XZ 000000014000a1b0 f i main.obj
 0001:000091f0       ??1<unnamed-type-window_settings>@<unnamed-type-client_side>@globals@@QEAA@XZ 000000014000a1f0 f i main.obj
 0001:00009720       ?crypt_get@?$xor_string@U?$tstring_@$MD0EM@$MD0GP@$MD0GB@$MD0GE@$MD0GF@$MD0HC@$MD0CA@$MD0GJ@$MD0HD@$MD0CA@$MD0GD@$MD0HF@$MD0HC@$MD0HC@$MD0GF@$MD0GO@$MD0HE@$MD0GM@$MD0HJ@$MD0CA@$MD0GJ@$MD0HD@$MD0CA@$MD0GE@$MD0GJ@$MD0HD@$MD0GB@$MD0GC@$MD0GM@$MD0GF@$MD0GE@$MD0CM@$MD0CA@$MD0HD@$MD0GP@$MD0HC@$MD0HC@$MD0HJ@$MD0CA@$MD0GG@$MD0GP@$MD0HC@$MD0CA@$MD0HE@$MD0GI@$MD0GF@$MD0CA@$MD0GJ@$MD0GO@$MD0GD@$MD0GP@$MD0GO@$MD0HG@$MD0GF@$MD0GO@$MD0GJ@$MD0GF@$MD0GO@$MD0GD@$MD0GF@$MD0A@@detail@jm@@U?$_ki@$0A@$0HCOOBKMMOCNAJOD@@23@U?$_ki@$00$0FKDPGHKFFPBNFHMM@@23@U?$_ki@$01$0HFDDMAFOABHJPEIN@@23@U?$_ki@$02$0?OEGLEDIDDJDBFKC@@23@U?$_ki@$03$0?FJOKKNGHCGFMEEMJ@@23@U?$_ki@$04$0BOMKEJOBNILEEDAA@@23@U?$_ki@$05$0DMFPPHGKMCGLCLEB@@23@U?$_ki@$06$0GDCAEGMDDHFPNBHC@@23@@jm@@QEAAQEADXZ 000000014000a720 f i main.obj
 0001:00009740       ??0?$xor_string@U?$tstring_@$MD0EM@$MD0GP@$MD0GB@$MD0GE@$MD0GF@$MD0HC@$MD0CA@$MD0GJ@$MD0HD@$MD0CA@$MD0GD@$MD0HF@$MD0HC@$MD0HC@$MD0GF@$MD0GO@$MD0HE@$MD0GM@$MD0HJ@$MD0CA@$MD0GJ@$MD0HD@$MD0CA@$MD0GE@$MD0GJ@$MD0HD@$MD0GB@$MD0GC@$MD0GM@$MD0GF@$MD0GE@$MD0CM@$MD0CA@$MD0HD@$MD0GP@$MD0HC@$MD0HC@$MD0HJ@$MD0CA@$MD0GG@$MD0GP@$MD0HC@$MD0CA@$MD0HE@$MD0GI@$MD0GF@$MD0CA@$MD0GJ@$MD0GO@$MD0GD@$MD0GP@$MD0GO@$MD0HG@$MD0GF@$MD0GO@$MD0GJ@$MD0GF@$MD0GO@$MD0GD@$MD0GF@$MD0A@@detail@jm@@U?$_ki@$0A@$0HCOOBKMMOCNAJOD@@23@U?$_ki@$00$0FKDPGHKFFPBNFHMM@@23@U?$_ki@$01$0HFDDMAFOABHJPEIN@@23@U?$_ki@$02$0?OEGLEDIDDJDBFKC@@23@U?$_ki@$03$0?FJOKKNGHCGFMEEMJ@@23@U?$_ki@$04$0BOMKEJOBNILEEDAA@@23@U?$_ki@$05$0DMFPPHGKMCGLCLEB@@23@U?$_ki@$06$0GDCAEGMDDHFPNBHC@@23@@jm@@QEAA@XZ 000000014000a740 f i main.obj
 0001:00009760       ?crypt_get@?$xor_string@U?$tstring_@$MD0EM@$MD0GP@$MD0GB@$MD0GE@$MD0GF@$MD0HC@$MD0CA@$MD0GJ@$MD0HD@$MD0CA@$MD0GD@$MD0HF@$MD0HC@$MD0HC@$MD0GF@$MD0GO@$MD0HE@$MD0GM@$MD0HJ@$MD0CA@$MD0GP@$MD0GO@$MD0CA@$MD0HE@$MD0GF@$MD0GD@$MD0GI@$MD0GO@$MD0GJ@$MD0GD@$MD0GB@$MD0GM@$MD0CA@$MD0HH@$MD0GP@$MD0HC@$MD0GL@$MD0CM@$MD0CA@$MD0HD@$MD0GP@$MD0HC@$MD0HC@$MD0HJ@$MD0CA@$MD0GG@$MD0GP@$MD0HC@$MD0CA@$MD0HE@$MD0GI@$MD0GF@$MD0CA@$MD0GJ@$MD0GO@$MD0GD@$MD0GP@$MD0GO@$MD0HG@$MD0GF@$MD0GO@$MD0GJ@$MD0GF@$MD0GO@$MD0GD@$MD0GF@$MD0A@@detail@jm@@U?$_ki@$0A@$0HCOOBKMMOCNAJOD@@23@U?$_ki@$00$0FKDPGHKFFPBNFHMM@@23@U?$_ki@$01$0HFDDMAFOABHJPEIN@@23@U?$_ki@$02$0?OEGLEDIDDJDBFKC@@23@U?$_ki@$03$0?FJOKKNGHCGFMEEMJ@@23@U?$_ki@$04$0BOMKEJOBNILEEDAA@@23@U?$_ki@$05$0DMFPPHGKMCGLCLEB@@23@U?$_ki@$06$0GDCAEGMDDHFPNBHC@@23@U?$_ki@$07$0?HJHOGBHLEIKOHIJF@@23@U?$_ki@$08$0FOKNMHFNOIFGMBLE@@23@@jm@@QEAAQEADXZ 000000014000a760 f i main.obj
 0001:00009780       ??0?$xor_string@U?$tstring_@$MD0EM@$MD0GP@$MD0GB@$MD0GE@$MD0GF@$MD0HC@$MD0CA@$MD0GJ@$MD0HD@$MD0CA@$MD0GD@$MD0HF@$MD0HC@$MD0HC@$MD0GF@$MD0GO@$MD0HE@$MD0GM@$MD0HJ@$MD0CA@$MD0GP@$MD0GO@$MD0CA@$MD0HE@$MD0GF@$MD0GD@$MD0GI@$MD0GO@$MD0GJ@$MD0GD@$MD0GB@$MD0GM@$MD0CA@$MD0HH@$MD0GP@$MD0HC@$MD0GL@$MD0CM@$MD0CA@$MD0HD@$MD0GP@$MD0HC@$MD0HC@$MD0HJ@$MD0CA@$MD0GG@$MD0GP@$MD0HC@$MD0CA@$MD0HE@$MD0GI@$MD0GF@$MD0CA@$MD0GJ@$MD0GO@$MD0GD@$MD0GP@$MD0GO@$MD0HG@$MD0GF@$MD0GO@$MD0GJ@$MD0GF@$MD0GO@$MD0GD@$MD0GF@$MD0A@@detail@jm@@U?$_ki@$0A@$0HCOOBKMMOCNAJOD@@23@U?$_ki@$00$0FKDPGHKFFPBNFHMM@@23@U?$_ki@$01$0HFDDMAFOABHJPEIN@@23@U?$_ki@$02$0?OEGLEDIDDJDBFKC@@23@U?$_ki@$03$0?FJOKKNGHCGFMEEMJ@@23@U?$_ki@$04$0BOMKEJOBNILEEDAA@@23@U?$_ki@$05$0DMFPPHGKMCGLCLEB@@23@U?$_ki@$06$0GDCAEGMDDHFPNBHC@@23@U?$_ki@$07$0?HJHOGBHLEIKOHIJF@@23@U?$_ki@$08$0FOKNMHFNOIFGMBLE@@23@@jm@@QEAA@XZ 000000014000a780 f i main.obj
 0001:000097a0       ?crypt_get@?$xor_string@U?$tstring_@$MD0FE@$MD0GF@$MD0GD@$MD0GI@$MD0GO@$MD0GJ@$MD0GD@$MD0GB@$MD0GM@$MD0CA@$MD0HH@$MD0GP@$MD0HC@$MD0GL@$MD0A@@detail@jm@@U?$_ki@$0A@$0HCOOBKMMOCNAJOD@@23@U?$_ki@$00$0FKDPGHKFFPBNFHMM@@23@@jm@@QEAAQEADXZ 000000014000a7a0 f i main.obj
 0001:000097c0       ??0?$xor_string@U?$tstring_@$MD0FE@$MD0GF@$MD0GD@$MD0GI@$MD0GO@$MD0GJ@$MD0GD@$MD0GB@$MD0GM@$MD0CA@$MD0HH@$MD0GP@$MD0HC@$MD0GL@$MD0A@@detail@jm@@U?$_ki@$0A@$0HCOOBKMMOCNAJOD@@23@U?$_ki@$00$0FKDPGHKFFPBNFHMM@@23@@jm@@QEAA@XZ 000000014000a7c0 f i main.obj
 0001:000097e0       ?crypt_get@?$xor_string@U?$tstring_@$MD0FG@$MD0GF@$MD0HC@$MD0HD@$MD0GJ@$MD0GP@$MD0GO@$MD0CA@$MD0GM@$MD0GP@$MD0GB@$MD0GE@$MD0GF@$MD0HC@$MD0CA@$MD0GJ@$MD0GO@$MD0HG@$MD0GB@$MD0GM@$MD0GJ@$MD0GE@$MD0CO@$MD0CA@$MD0EH@$MD0GF@$MD0HE@$MD0CA@$MD0GO@$MD0GF@$MD0HH@$MD0CA@$MD0HG@$MD0GF@$MD0HC@$MD0HD@$MD0GJ@$MD0GP@$MD0GO@$MD0CA@$MD0GG@$MD0HC@$MD0GP@$MD0GN@$MD0CA@$MD0HJ@$MD0GP@$MD0HF@$MD0CA@$MD0HD@$MD0GF@$MD0GM@$MD0GM@$MD0GF@$MD0HC@$MD0A@@detail@jm@@U?$_ki@$0A@$0HCOOBKMMOCNAJOD@@23@U?$_ki@$00$0FKDPGHKFFPBNFHMM@@23@U?$_ki@$01$0HFDDMAFOABHJPEIN@@23@U?$_ki@$02$0?OEGLEDIDDJDBFKC@@23@U?$_ki@$03$0?FJOKKNGHCGFMEEMJ@@23@U?$_ki@$04$0BOMKEJOBNILEEDAA@@23@U?$_ki@$05$0DMFPPHGKMCGLCLEB@@23@U?$_ki@$06$0GDCAEGMDDHFPNBHC@@23@@jm@@QEAAQEADXZ 000000014000a7e0 f i main.obj
 0001:00009800       ??0?$xor_string@U?$tstring_@$MD0FG@$MD0GF@$MD0HC@$MD0HD@$MD0GJ@$MD0GP@$MD0GO@$MD0CA@$MD0GM@$MD0GP@$MD0GB@$MD0GE@$MD0GF@$MD0HC@$MD0CA@$MD0GJ@$MD0GO@$MD0HG@$MD0GB@$MD0GM@$MD0GJ@$MD0GE@$MD0CO@$MD0CA@$MD0EH@$MD0GF@$MD0HE@$MD0CA@$MD0GO@$MD0GF@$MD0HH@$MD0CA@$MD0HG@$MD0GF@$MD0HC@$MD0HD@$MD0GJ@$MD0GP@$MD0GO@$MD0CA@$MD0GG@$MD0HC@$MD0GP@$MD0GN@$MD0CA@$MD0HJ@$MD0GP@$MD0HF@$MD0CA@$MD0HD@$MD0GF@$MD0GM@$MD0GM@$MD0GF@$MD0HC@$MD0A@@detail@jm@@U?$_ki@$0A@$0HCOOBKMMOCNAJOD@@23@U?$_ki@$00$0FKDPGHKFFPBNFHMM@@23@U?$_ki@$01$0HFDDMAFOABHJPEIN@@23@U?$_ki@$02$0?OEGLEDIDDJDBFKC@@23@U?$_ki@$03$0?FJOKKNGHCGFMEEMJ@@23@U?$_ki@$04$0BOMKEJOBNILEEDAA@@23@U?$_ki@$05$0DMFPPHGKMCGLCLEB@@23@U?$_ki@$06$0GDCAEGMDDHFPNBHC@@23@@jm@@QEAA@XZ 000000014000a800 f i main.obj
 0001:00009820       ?crypt_get@?$xor_string@U?$tstring_@$MD0GJ@$MD0GO@$MD0GD@$MD0GP@$MD0HC@$MD0HC@$MD0GF@$MD0GD@$MD0HE@$MD0FP@$MD0HG@$MD0GF@$MD0HC@$MD0HD@$MD0GJ@$MD0GP@$MD0GO@$MD0A@@detail@jm@@U?$_ki@$0A@$0HCOOBKMMOCNAJOD@@23@U?$_ki@$00$0FKDPGHKFFPBNFHMM@@23@U?$_ki@$01$0HFDDMAFOABHJPEIN@@23@U?$_ki@$02$0?OEGLEDIDDJDBFKC@@23@@jm@@QEAAQEADXZ 000000014000a820 f i main.obj
 0001:00009840       ??0?$xor_string@U?$tstring_@$MD0GJ@$MD0GO@$MD0GD@$MD0GP@$MD0HC@$MD0HC@$MD0GF@$MD0GD@$MD0HE@$MD0FP@$MD0HG@$MD0GF@$MD0HC@$MD0HD@$MD0GJ@$MD0GP@$MD0GO@$MD0A@@detail@jm@@U?$_ki@$0A@$0HCOOBKMMOCNAJOD@@23@U?$_ki@$00$0FKDPGHKFFPBNFHMM@@23@U?$_ki@$01$0HFDDMAFOABHJPEIN@@23@U?$_ki@$02$0?OEGLEDIDDJDBFKC@@23@@jm@@QEAA@XZ 000000014000a840 f i main.obj
 0001:00009860       ?crypt_get@?$xor_string@U?$tstring_@$MD0FF@$MD0GO@$MD0GL@$MD0GO@$MD0GP@$MD0HH@$MD0GO@$MD0CA@$MD0HC@$MD0GF@$MD0HD@$MD0HA@$MD0GP@$MD0GO@$MD0HD@$MD0GF@$MD0A@@detail@jm@@U?$_ki@$0A@$0HCOOBKMMOCNAJOD@@23@U?$_ki@$00$0FKDPGHKFFPBNFHMM@@23@U?$_ki@$01$0HFDDMAFOABHJPEIN@@23@U?$_ki@$02$0?OEGLEDIDDJDBFKC@@23@@jm@@QEAAQEADXZ 000000014000a860 f i main.obj
 0001:00009880       ??0?$xor_string@U?$tstring_@$MD0FF@$MD0GO@$MD0GL@$MD0GO@$MD0GP@$MD0HH@$MD0GO@$MD0CA@$MD0HC@$MD0GF@$MD0HD@$MD0HA@$MD0GP@$MD0GO@$MD0HD@$MD0GF@$MD0A@@detail@jm@@U?$_ki@$0A@$0HCOOBKMMOCNAJOD@@23@U?$_ki@$00$0FKDPGHKFFPBNFHMM@@23@U?$_ki@$01$0HFDDMAFOABHJPEIN@@23@U?$_ki@$02$0?OEGLEDIDDJDBFKC@@23@@jm@@QEAA@XZ 000000014000a880 f i main.obj
 0001:000098a0       ?crypt_get@?$xor_string@U?$tstring_@$M_W0FM@$M_W0FM@$M_W0CO@$M_W0FM@$M_W0EB@$M_W0DB@$M_W0HC@$M_W0DC@$M_W0GL@$M_W0DD@$M_W0GO@$M_W0DE@$M_W0GJ@$M_W0DF@$M_W0GH@$M_W0DG@$M_W0GI@$M_W0DH@$M_W0HE@$M_W0DI@$M_W0HD@$M_W0A@@detail@jm@@U?$_ki@$0A@$0HCOOBKMMOCNAJOD@@23@U?$_ki@$00$0FKDPGHKFFPBNFHMM@@23@U?$_ki@$01$0HFDDMAFOABHJPEIN@@23@U?$_ki@$02$0?OEGLEDIDDJDBFKC@@23@U?$_ki@$03$0?FJOKKNGHCGFMEEMJ@@23@U?$_ki@$04$0BOMKEJOBNILEEDAA@@23@@jm@@QEAAQEA_WXZ 000000014000a8a0 f i main.obj
 0001:000098c0       ??0?$xor_string@U?$tstring_@$M_W0FM@$M_W0FM@$M_W0CO@$M_W0FM@$M_W0EB@$M_W0DB@$M_W0HC@$M_W0DC@$M_W0GL@$M_W0DD@$M_W0GO@$M_W0DE@$M_W0GJ@$M_W0DF@$M_W0GH@$M_W0DG@$M_W0GI@$M_W0DH@$M_W0HE@$M_W0DI@$M_W0HD@$M_W0A@@detail@jm@@U?$_ki@$0A@$0HCOOBKMMOCNAJOD@@23@U?$_ki@$00$0FKDPGHKFFPBNFHMM@@23@U?$_ki@$01$0HFDDMAFOABHJPEIN@@23@U?$_ki@$02$0?OEGLEDIDDJDBFKC@@23@U?$_ki@$03$0?FJOKKNGHCGFMEEMJ@@23@U?$_ki@$04$0BOMKEJOBNILEEDAA@@23@@jm@@QEAA@XZ 000000014000a8c0 f i main.obj
 0001:000098e0       ?crypt_get@?$xor_string@U?$tstring_@$MD0FF@$MD0GO@$MD0GE@$MD0GF@$MD0HE@$MD0GF@$MD0GD@$MD0HE@$MD0GF@$MD0GE@$MD0A@@detail@jm@@U?$_ki@$0A@$0HCOOBKMMOCNAJOD@@23@U?$_ki@$00$0FKDPGHKFFPBNFHMM@@23@@jm@@QEAAQEADXZ 000000014000a8e0 f i main.obj
 0001:00009900       ??0?$xor_string@U?$tstring_@$MD0FF@$MD0GO@$MD0GE@$MD0GF@$MD0HE@$MD0GF@$MD0GD@$MD0HE@$MD0GF@$MD0GE@$MD0A@@detail@jm@@U?$_ki@$0A@$0HCOOBKMMOCNAJOD@@23@U?$_ki@$00$0FKDPGHKFFPBNFHMM@@23@@jm@@QEAA@XZ 000000014000a900 f i main.obj
 0001:00009920       ?crypt_get@?$xor_string@U?$tstring_@$MD0ED@$MD0GI@$MD0GF@$MD0GB@$MD0HE@$MD0CA@$MD0GJ@$MD0HD@$MD0CA@$MD0GD@$MD0HF@$MD0HC@$MD0HC@$MD0GF@$MD0GO@$MD0HE@$MD0GM@$MD0HJ@$MD0CA@$MD0GE@$MD0GJ@$MD0HD@$MD0GB@$MD0GC@$MD0GM@$MD0GF@$MD0GE@$MD0CM@$MD0CA@$MD0HD@$MD0GP@$MD0HC@$MD0HC@$MD0HJ@$MD0CA@$MD0GG@$MD0GP@$MD0HC@$MD0CA@$MD0HE@$MD0GI@$MD0GF@$MD0CA@$MD0GJ@$MD0GO@$MD0GD@$MD0GP@$MD0GO@$MD0HG@$MD0GF@$MD0GO@$MD0GJ@$MD0GF@$MD0GO@$MD0GD@$MD0GF@$MD0A@@detail@jm@@U?$_ki@$0A@$0HCOOBKMMOCNAJOD@@23@U?$_ki@$00$0FKDPGHKFFPBNFHMM@@23@U?$_ki@$01$0HFDDMAFOABHJPEIN@@23@U?$_ki@$02$0?OEGLEDIDDJDBFKC@@23@U?$_ki@$03$0?FJOKKNGHCGFMEEMJ@@23@U?$_ki@$04$0BOMKEJOBNILEEDAA@@23@U?$_ki@$05$0DMFPPHGKMCGLCLEB@@23@U?$_ki@$06$0GDCAEGMDDHFPNBHC@@23@@jm@@QEAAQEADXZ 000000014000a920 f i main.obj
 0001:00009940       ??0?$xor_string@U?$tstring_@$MD0ED@$MD0GI@$MD0GF@$MD0GB@$MD0HE@$MD0CA@$MD0GJ@$MD0HD@$MD0CA@$MD0GD@$MD0HF@$MD0HC@$MD0HC@$MD0GF@$MD0GO@$MD0HE@$MD0GM@$MD0HJ@$MD0CA@$MD0GE@$MD0GJ@$MD0HD@$MD0GB@$MD0GC@$MD0GM@$MD0GF@$MD0GE@$MD0CM@$MD0CA@$MD0HD@$MD0GP@$MD0HC@$MD0HC@$MD0HJ@$MD0CA@$MD0GG@$MD0GP@$MD0HC@$MD0CA@$MD0HE@$MD0GI@$MD0GF@$MD0CA@$MD0GJ@$MD0GO@$MD0GD@$MD0GP@$MD0GO@$MD0HG@$MD0GF@$MD0GO@$MD0GJ@$MD0GF@$MD0GO@$MD0GD@$MD0GF@$MD0A@@detail@jm@@U?$_ki@$0A@$0HCOOBKMMOCNAJOD@@23@U?$_ki@$00$0FKDPGHKFFPBNFHMM@@23@U?$_ki@$01$0HFDDMAFOABHJPEIN@@23@U?$_ki@$02$0?OEGLEDIDDJDBFKC@@23@U?$_ki@$03$0?FJOKKNGHCGFMEEMJ@@23@U?$_ki@$04$0BOMKEJOBNILEEDAA@@23@U?$_ki@$05$0DMFPPHGKMCGLCLEB@@23@U?$_ki@$06$0GDCAEGMDDHFPNBHC@@23@@jm@@QEAA@XZ 000000014000a940 f i main.obj
 0001:00009960       ?crypt_get@?$xor_string@U?$tstring_@$MD0EE@$MD0GJ@$MD0HD@$MD0GB@$MD0GC@$MD0GM@$MD0GF@$MD0GE@$MD0A@@detail@jm@@U?$_ki@$0A@$0HCOOBKMMOCNAJOD@@23@U?$_ki@$00$0FKDPGHKFFPBNFHMM@@23@@jm@@QEAAQEADXZ 000000014000a960 f i main.obj
 0001:00009980       ??0?$xor_string@U?$tstring_@$MD0EE@$MD0GJ@$MD0HD@$MD0GB@$MD0GC@$MD0GM@$MD0GF@$MD0GE@$MD0A@@detail@jm@@U?$_ki@$0A@$0HCOOBKMMOCNAJOD@@23@U?$_ki@$00$0FKDPGHKFFPBNFHMM@@23@@jm@@QEAA@XZ 000000014000a980 f i main.obj
 0001:000099a0       ?crypt_get@?$xor_string@U?$tstring_@$MD0ED@$MD0GI@$MD0GF@$MD0GB@$MD0HE@$MD0CA@$MD0GJ@$MD0HD@$MD0CA@$MD0GD@$MD0HF@$MD0HC@$MD0HC@$MD0GF@$MD0GO@$MD0HE@$MD0GM@$MD0HJ@$MD0CA@$MD0GP@$MD0GO@$MD0CA@$MD0HF@$MD0HA@$MD0GE@$MD0GB@$MD0HE@$MD0GF@$MD0CM@$MD0CA@$MD0HD@$MD0GP@$MD0HC@$MD0HC@$MD0HJ@$MD0CA@$MD0GG@$MD0GP@$MD0HC@$MD0CA@$MD0HE@$MD0GI@$MD0GF@$MD0CA@$MD0GJ@$MD0GO@$MD0GD@$MD0GP@$MD0GO@$MD0HG@$MD0GF@$MD0GO@$MD0GJ@$MD0GF@$MD0GO@$MD0GD@$MD0GF@$MD0A@@detail@jm@@U?$_ki@$0A@$0HCOOBKMMOCNAJOD@@23@U?$_ki@$00$0FKDPGHKFFPBNFHMM@@23@U?$_ki@$01$0HFDDMAFOABHJPEIN@@23@U?$_ki@$02$0?OEGLEDIDDJDBFKC@@23@U?$_ki@$03$0?FJOKKNGHCGFMEEMJ@@23@U?$_ki@$04$0BOMKEJOBNILEEDAA@@23@U?$_ki@$05$0DMFPPHGKMCGLCLEB@@23@U?$_ki@$06$0GDCAEGMDDHFPNBHC@@23@@jm@@QEAAQEADXZ 000000014000a9a0 f i main.obj
 0001:000099c0       ??0?$xor_string@U?$tstring_@$MD0ED@$MD0GI@$MD0GF@$MD0GB@$MD0HE@$MD0CA@$MD0GJ@$MD0HD@$MD0CA@$MD0GD@$MD0HF@$MD0HC@$MD0HC@$MD0GF@$MD0GO@$MD0HE@$MD0GM@$MD0HJ@$MD0CA@$MD0GP@$MD0GO@$MD0CA@$MD0HF@$MD0HA@$MD0GE@$MD0GB@$MD0HE@$MD0GF@$MD0CM@$MD0CA@$MD0HD@$MD0GP@$MD0HC@$MD0HC@$MD0HJ@$MD0CA@$MD0GG@$MD0GP@$MD0HC@$MD0CA@$MD0HE@$MD0GI@$MD0GF@$MD0CA@$MD0GJ@$MD0GO@$MD0GD@$MD0GP@$MD0GO@$MD0HG@$MD0GF@$MD0GO@$MD0GJ@$MD0GF@$MD0GO@$MD0GD@$MD0GF@$MD0A@@detail@jm@@U?$_ki@$0A@$0HCOOBKMMOCNAJOD@@23@U?$_ki@$00$0FKDPGHKFFPBNFHMM@@23@U?$_ki@$01$0HFDDMAFOABHJPEIN@@23@U?$_ki@$02$0?OEGLEDIDDJDBFKC@@23@U?$_ki@$03$0?FJOKKNGHCGFMEEMJ@@23@U?$_ki@$04$0BOMKEJOBNILEEDAA@@23@U?$_ki@$05$0DMFPPHGKMCGLCLEB@@23@U?$_ki@$06$0GDCAEGMDDHFPNBHC@@23@@jm@@QEAA@XZ 000000014000a9c0 f i main.obj
 0001:000099e0       ?crypt_get@?$xor_string@U?$tstring_@$MD0EP@$MD0GO@$MD0CA@$MD0HF@$MD0HA@$MD0GE@$MD0GB@$MD0HE@$MD0GF@$MD0A@@detail@jm@@U?$_ki@$0A@$0HCOOBKMMOCNAJOD@@23@U?$_ki@$00$0FKDPGHKFFPBNFHMM@@23@@jm@@QEAAQEADXZ 000000014000a9e0 f i main.obj
 0001:00009a00       ??0?$xor_string@U?$tstring_@$MD0EP@$MD0GO@$MD0CA@$MD0HF@$MD0HA@$MD0GE@$MD0GB@$MD0HE@$MD0GF@$MD0A@@detail@jm@@U?$_ki@$0A@$0HCOOBKMMOCNAJOD@@23@U?$_ki@$00$0FKDPGHKFFPBNFHMM@@23@@jm@@QEAA@XZ 000000014000aa00 f i main.obj
 0001:00009a20       ?crypt_get@?$xor_string@U?$tstring_@$MD0EB@$MD0HA@$MD0GF@$MD0HI@$MD0CA@$MD0EM@$MD0GF@$MD0GH@$MD0GF@$MD0GO@$MD0GE@$MD0HD@$MD0A@@detail@jm@@U?$_ki@$0A@$0HCOOBKMMOCNAJOD@@23@U?$_ki@$00$0FKDPGHKFFPBNFHMM@@23@@jm@@QEAAQEADXZ 000000014000aa20 f i main.obj
 0001:00009a40       ??0?$xor_string@U?$tstring_@$MD0EB@$MD0HA@$MD0GF@$MD0HI@$MD0CA@$MD0EM@$MD0GF@$MD0GH@$MD0GF@$MD0GO@$MD0GE@$MD0HD@$MD0A@@detail@jm@@U?$_ki@$0A@$0HCOOBKMMOCNAJOD@@23@U?$_ki@$00$0FKDPGHKFFPBNFHMM@@23@@jm@@QEAA@XZ 000000014000aa40 f i main.obj
 0001:00009a60       ?size@?$vector@V?$basic_string@DU?$char_traits@D@std@@V?$allocator@D@2@@std@@V?$allocator@V?$basic_string@DU?$char_traits@D@std@@V?$allocator@D@2@@std@@@2@@std@@QEBA_KXZ 000000014000aa60 f i main.obj
 0001:00009a70       ?crypt_get@?$xor_string@U?$tstring_@$MD0DL@$MD0A@@detail@jm@@U?$_ki@$0A@$0HCOOBKMMOCNAJOD@@23@U?$_ki@$00$0FKDPGHKFFPBNFHMM@@23@@jm@@QEAAQEADXZ 000000014000aa70 f i main.obj
 0001:00009a90       ??0?$xor_string@U?$tstring_@$MD0DL@$MD0A@@detail@jm@@U?$_ki@$0A@$0HCOOBKMMOCNAJOD@@23@U?$_ki@$00$0FKDPGHKFFPBNFHMM@@23@@jm@@QEAA@XZ 000000014000aa90 f i main.obj
 0001:00009ab0       ?crypt_get@?$xor_string@U?$tstring_@$MD0EL@$MD0GF@$MD0HJ@$MD0CA@$MD0HD@$MD0HF@$MD0GD@$MD0GD@$MD0GF@$MD0HD@$MD0HD@$MD0GG@$MD0HF@$MD0GM@$MD0GM@$MD0HJ@$MD0CA@$MD0GB@$MD0GD@$MD0HE@$MD0GJ@$MD0HG@$MD0GB@$MD0HE@$MD0GF@$MD0GE@$MD0CO@$MD0CA@$MD0EF@$MD0HI@$MD0HA@$MD0GF@$MD0GD@$MD0HE@$MD0CO@$MD0CO@$MD0CO@$MD0A@@detail@jm@@U?$_ki@$0A@$0HCOOBKMMOCNAJOD@@23@U?$_ki@$00$0FKDPGHKFFPBNFHMM@@23@U?$_ki@$01$0HFDDMAFOABHJPEIN@@23@U?$_ki@$02$0?OEGLEDIDDJDBFKC@@23@U?$_ki@$03$0?FJOKKNGHCGFMEEMJ@@23@U?$_ki@$04$0BOMKEJOBNILEEDAA@@23@@jm@@QEAAQEADXZ 000000014000aab0 f i main.obj
 0001:00009ad0       ??0?$xor_string@U?$tstring_@$MD0EL@$MD0GF@$MD0HJ@$MD0CA@$MD0HD@$MD0HF@$MD0GD@$MD0GD@$MD0GF@$MD0HD@$MD0HD@$MD0GG@$MD0HF@$MD0GM@$MD0GM@$MD0HJ@$MD0CA@$MD0GB@$MD0GD@$MD0HE@$MD0GJ@$MD0HG@$MD0GB@$MD0HE@$MD0GF@$MD0GE@$MD0CO@$MD0CA@$MD0EF@$MD0HI@$MD0HA@$MD0GF@$MD0GD@$MD0HE@$MD0CO@$MD0CO@$MD0CO@$MD0A@@detail@jm@@U?$_ki@$0A@$0HCOOBKMMOCNAJOD@@23@U?$_ki@$00$0FKDPGHKFFPBNFHMM@@23@U?$_ki@$01$0HFDDMAFOABHJPEIN@@23@U?$_ki@$02$0?OEGLEDIDDJDBFKC@@23@U?$_ki@$03$0?FJOKKNGHCGFMEEMJ@@23@U?$_ki@$04$0BOMKEJOBNILEEDAA@@23@@jm@@QEAA@XZ 000000014000aad0 f i main.obj
 0001:00009af0       ?crypt_get@?$xor_string@U?$tstring_@$MD0EE@$MD0GB@$MD0HE@$MD0GB@$MD0CA@$MD0GL@$MD0GF@$MD0HJ@$MD0CA@$MD0GF@$MD0HC@$MD0HC@$MD0GP@$MD0HC@$MD0A@@detail@jm@@U?$_ki@$0A@$0HCOOBKMMOCNAJOD@@23@U?$_ki@$00$0FKDPGHKFFPBNFHMM@@23@@jm@@QEAAQEADXZ 000000014000aaf0 f i main.obj
 0001:00009b10       ??0?$xor_string@U?$tstring_@$MD0EE@$MD0GB@$MD0HE@$MD0GB@$MD0CA@$MD0GL@$MD0GF@$MD0HJ@$MD0CA@$MD0GF@$MD0HC@$MD0HC@$MD0GP@$MD0HC@$MD0A@@detail@jm@@U?$_ki@$0A@$0HCOOBKMMOCNAJOD@@23@U?$_ki@$00$0FKDPGHKFFPBNFHMM@@23@@jm@@QEAA@XZ 000000014000ab10 f i main.obj
 0001:00009b30       ?crypt_get@?$xor_string@U?$tstring_@$MD0EF@$MD0HI@$MD0HA@$MD0GJ@$MD0HC@$MD0GF@$MD0GE@$MD0CA@$MD0HD@$MD0HF@$MD0GC@$MD0HD@$MD0GD@$MD0HC@$MD0GJ@$MD0GC@$MD0GF@$MD0A@@detail@jm@@U?$_ki@$0A@$0HCOOBKMMOCNAJOD@@23@U?$_ki@$00$0FKDPGHKFFPBNFHMM@@23@U?$_ki@$01$0HFDDMAFOABHJPEIN@@23@U?$_ki@$02$0?OEGLEDIDDJDBFKC@@23@@jm@@QEAAQEADXZ 000000014000ab30 f i main.obj
 0001:00009b50       ??0?$xor_string@U?$tstring_@$MD0EF@$MD0HI@$MD0HA@$MD0GJ@$MD0HC@$MD0GF@$MD0GE@$MD0CA@$MD0HD@$MD0HF@$MD0GC@$MD0HD@$MD0GD@$MD0HC@$MD0GJ@$MD0GC@$MD0GF@$MD0A@@detail@jm@@U?$_ki@$0A@$0HCOOBKMMOCNAJOD@@23@U?$_ki@$00$0FKDPGHKFFPBNFHMM@@23@U?$_ki@$01$0HFDDMAFOABHJPEIN@@23@U?$_ki@$02$0?OEGLEDIDDJDBFKC@@23@@jm@@QEAA@XZ 000000014000ab50 f i main.obj
 0001:00009b70       ?crypt_get@?$xor_string@U?$tstring_@$MD0FF@$MD0GO@$MD0GL@$MD0GO@$MD0GP@$MD0HH@$MD0GO@$MD0CA@$MD0GD@$MD0GI@$MD0GF@$MD0GB@$MD0HE@$MD0A@@detail@jm@@U?$_ki@$0A@$0HCOOBKMMOCNAJOD@@23@U?$_ki@$00$0FKDPGHKFFPBNFHMM@@23@@jm@@QEAAQEADXZ 000000014000ab70 f i main.obj
 0001:00009b90       ??0?$xor_string@U?$tstring_@$MD0FF@$MD0GO@$MD0GL@$MD0GO@$MD0GP@$MD0HH@$MD0GO@$MD0CA@$MD0GD@$MD0GI@$MD0GF@$MD0GB@$MD0HE@$MD0A@@detail@jm@@U?$_ki@$0A@$0HCOOBKMMOCNAJOD@@23@U?$_ki@$00$0FKDPGHKFFPBNFHMM@@23@@jm@@QEAA@XZ 000000014000ab90 f i main.obj
 0001:00009bb0       ?crypt_get@?$xor_string@U?$tstring_@$MD0EJ@$MD0GO@$MD0HG@$MD0GB@$MD0GM@$MD0GJ@$MD0GE@$MD0CA@$MD0GL@$MD0GF@$MD0HJ@$MD0A@@detail@jm@@U?$_ki@$0A@$0HCOOBKMMOCNAJOD@@23@U?$_ki@$00$0FKDPGHKFFPBNFHMM@@23@@jm@@QEAAQEADXZ 000000014000abb0 f i main.obj
 0001:00009bd0       ??0?$xor_string@U?$tstring_@$MD0EJ@$MD0GO@$MD0HG@$MD0GB@$MD0GM@$MD0GJ@$MD0GE@$MD0CA@$MD0GL@$MD0GF@$MD0HJ@$MD0A@@detail@jm@@U?$_ki@$0A@$0HCOOBKMMOCNAJOD@@23@U?$_ki@$00$0FKDPGHKFFPBNFHMM@@23@@jm@@QEAA@XZ 000000014000abd0 f i main.obj
 0001:00009bf0       ?crypt_get@?$xor_string@U?$tstring_@$MD0EC@$MD0GB@$MD0GO@$MD0GO@$MD0GF@$MD0GE@$MD0A@@detail@jm@@U?$_ki@$0A@$0HCOOBKMMOCNAJOD@@23@U?$_ki@$00$0FKDPGHKFFPBNFHMM@@23@@jm@@QEAAQEADXZ 000000014000abf0 f i main.obj
 0001:00009c10       ??0?$xor_string@U?$tstring_@$MD0EC@$MD0GB@$MD0GO@$MD0GO@$MD0GF@$MD0GE@$MD0A@@detail@jm@@U?$_ki@$0A@$0HCOOBKMMOCNAJOD@@23@U?$_ki@$00$0FKDPGHKFFPBNFHMM@@23@@jm@@QEAA@XZ 000000014000ac10 f i main.obj
 0001:00009c30       ?crypt_get@?$xor_string@U?$tstring_@$MD0GE@$MD0GB@$MD0HE@$MD0GB@$MD0FP@$MD0GF@$MD0HC@$MD0HC@$MD0GP@$MD0HC@$MD0A@@detail@jm@@U?$_ki@$0A@$0HCOOBKMMOCNAJOD@@23@U?$_ki@$00$0FKDPGHKFFPBNFHMM@@23@@jm@@QEAAQEADXZ 000000014000ac30 f i main.obj
 0001:00009c50       ??0?$xor_string@U?$tstring_@$MD0GE@$MD0GB@$MD0HE@$MD0GB@$MD0FP@$MD0GF@$MD0HC@$MD0HC@$MD0GP@$MD0HC@$MD0A@@detail@jm@@U?$_ki@$0A@$0HCOOBKMMOCNAJOD@@23@U?$_ki@$00$0FKDPGHKFFPBNFHMM@@23@@jm@@QEAA@XZ 000000014000ac50 f i main.obj
 0001:00009c70       ?crypt_get@?$xor_string@U?$tstring_@$MD0GF@$MD0HI@$MD0HA@$MD0GJ@$MD0HC@$MD0GF@$MD0GE@$MD0FP@$MD0HD@$MD0HF@$MD0GC@$MD0HD@$MD0GD@$MD0HC@$MD0GJ@$MD0GC@$MD0GF@$MD0A@@detail@jm@@U?$_ki@$0A@$0HCOOBKMMOCNAJOD@@23@U?$_ki@$00$0FKDPGHKFFPBNFHMM@@23@U?$_ki@$01$0HFDDMAFOABHJPEIN@@23@U?$_ki@$02$0?OEGLEDIDDJDBFKC@@23@@jm@@QEAAQEADXZ 000000014000ac70 f i main.obj
 0001:00009c90       ??0?$xor_string@U?$tstring_@$MD0GF@$MD0HI@$MD0HA@$MD0GJ@$MD0HC@$MD0GF@$MD0GE@$MD0FP@$MD0HD@$MD0HF@$MD0GC@$MD0HD@$MD0GD@$MD0HC@$MD0GJ@$MD0GC@$MD0GF@$MD0A@@detail@jm@@U?$_ki@$0A@$0HCOOBKMMOCNAJOD@@23@U?$_ki@$00$0FKDPGHKFFPBNFHMM@@23@U?$_ki@$01$0HFDDMAFOABHJPEIN@@23@U?$_ki@$02$0?OEGLEDIDDJDBFKC@@23@@jm@@QEAA@XZ 000000014000ac90 f i main.obj
 0001:00009cb0       ?crypt_get@?$xor_string@U?$tstring_@$MD0HF@$MD0GO@$MD0GL@$MD0GO@$MD0GP@$MD0HH@$MD0GO@$MD0FP@$MD0GD@$MD0GI@$MD0GF@$MD0GB@$MD0HE@$MD0A@@detail@jm@@U?$_ki@$0A@$0HCOOBKMMOCNAJOD@@23@U?$_ki@$00$0FKDPGHKFFPBNFHMM@@23@@jm@@QEAAQEADXZ 000000014000acb0 f i main.obj
 0001:00009cd0       ??0?$xor_string@U?$tstring_@$MD0HF@$MD0GO@$MD0GL@$MD0GO@$MD0GP@$MD0HH@$MD0GO@$MD0FP@$MD0GD@$MD0GI@$MD0GF@$MD0GB@$MD0HE@$MD0A@@detail@jm@@U?$_ki@$0A@$0HCOOBKMMOCNAJOD@@23@U?$_ki@$00$0FKDPGHKFFPBNFHMM@@23@@jm@@QEAA@XZ 000000014000acd0 f i main.obj
 0001:00009cf0       ?crypt_get@?$xor_string@U?$tstring_@$MD0GJ@$MD0GO@$MD0HG@$MD0GB@$MD0GM@$MD0GJ@$MD0GE@$MD0FP@$MD0GL@$MD0GF@$MD0HJ@$MD0A@@detail@jm@@U?$_ki@$0A@$0HCOOBKMMOCNAJOD@@23@U?$_ki@$00$0FKDPGHKFFPBNFHMM@@23@@jm@@QEAAQEADXZ 000000014000acf0 f i main.obj
 0001:00009d10       ??0?$xor_string@U?$tstring_@$MD0GJ@$MD0GO@$MD0HG@$MD0GB@$MD0GM@$MD0GJ@$MD0GE@$MD0FP@$MD0GL@$MD0GF@$MD0HJ@$MD0A@@detail@jm@@U?$_ki@$0A@$0HCOOBKMMOCNAJOD@@23@U?$_ki@$00$0FKDPGHKFFPBNFHMM@@23@@jm@@QEAA@XZ 000000014000ad10 f i main.obj
 0001:00009d30       ?crypt_get@?$xor_string@U?$tstring_@$MD0GC@$MD0GB@$MD0GO@$MD0GO@$MD0GF@$MD0GE@$MD0A@@detail@jm@@U?$_ki@$0A@$0HCOOBKMMOCNAJOD@@23@U?$_ki@$00$0FKDPGHKFFPBNFHMM@@23@@jm@@QEAAQEADXZ 000000014000ad30 f i main.obj
 0001:00009d50       ??0?$xor_string@U?$tstring_@$MD0GC@$MD0GB@$MD0GO@$MD0GO@$MD0GF@$MD0GE@$MD0A@@detail@jm@@U?$_ki@$0A@$0HCOOBKMMOCNAJOD@@23@U?$_ki@$00$0FKDPGHKFFPBNFHMM@@23@@jm@@QEAA@XZ 000000014000ad50 f i main.obj
 0001:00009d70       ?crypt_get@?$xor_string@U?$tstring_@$MD0EB@$MD0GD@$MD0HE@$MD0GJ@$MD0HG@$MD0GB@$MD0HE@$MD0GF@$MD0A@@detail@jm@@U?$_ki@$0A@$0HCOOBKMMOCNAJOD@@23@U?$_ki@$00$0FKDPGHKFFPBNFHMM@@23@@jm@@QEAAQEADXZ 000000014000ad70 f i main.obj
 0001:00009d90       ??0?$xor_string@U?$tstring_@$MD0EB@$MD0GD@$MD0HE@$MD0GJ@$MD0HG@$MD0GB@$MD0HE@$MD0GF@$MD0A@@detail@jm@@U?$_ki@$0A@$0HCOOBKMMOCNAJOD@@23@U?$_ki@$00$0FKDPGHKFFPBNFHMM@@23@@jm@@QEAA@XZ 000000014000ad90 f i main.obj
 0001:00009db0       ?crypt_get@?$xor_string@U?$tstring_@$MD0CD@$MD0CD@$MD0EL@$MD0GF@$MD0HJ@$MD0A@@detail@jm@@U?$_ki@$0A@$0HCOOBKMMOCNAJOD@@23@U?$_ki@$00$0FKDPGHKFFPBNFHMM@@23@@jm@@QEAAQEADXZ 000000014000adb0 f i main.obj
 0001:00009dd0       ??0?$xor_string@U?$tstring_@$MD0CD@$MD0CD@$MD0EL@$MD0GF@$MD0HJ@$MD0A@@detail@jm@@U?$_ki@$0A@$0HCOOBKMMOCNAJOD@@23@U?$_ki@$00$0FKDPGHKFFPBNFHMM@@23@@jm@@QEAA@XZ 000000014000add0 f i main.obj
 0001:00009df0       ?crypt_get@?$xor_string@U?$tstring_@$MD0EL@$MD0GF@$MD0HJ@$MD0A@@detail@jm@@U?$_ki@$0A@$0HCOOBKMMOCNAJOD@@23@U?$_ki@$00$0FKDPGHKFFPBNFHMM@@23@@jm@@QEAAQEADXZ 000000014000adf0 f i main.obj
 0001:00009e10       ??0?$xor_string@U?$tstring_@$MD0EL@$MD0GF@$MD0HJ@$MD0A@@detail@jm@@U?$_ki@$0A@$0HCOOBKMMOCNAJOD@@23@U?$_ki@$00$0FKDPGHKFFPBNFHMM@@23@@jm@@QEAA@XZ 000000014000ae10 f i main.obj
 0001:00009e30       ?crypt_get@?$xor_string@U?$tstring_@$MD0EB@$MD0ED@$MD0FE@$MD0EJ@$MD0FG@$MD0EB@$MD0FE@$MD0EJ@$MD0EP@$MD0EO@$MD0A@@detail@jm@@U?$_ki@$0A@$0HCOOBKMMOCNAJOD@@23@U?$_ki@$00$0FKDPGHKFFPBNFHMM@@23@@jm@@QEAAQEADXZ 000000014000ae30 f i main.obj
 0001:00009e50       ??0?$xor_string@U?$tstring_@$MD0EB@$MD0ED@$MD0FE@$MD0EJ@$MD0FG@$MD0EB@$MD0FE@$MD0EJ@$MD0EP@$MD0EO@$MD0A@@detail@jm@@U?$_ki@$0A@$0HCOOBKMMOCNAJOD@@23@U?$_ki@$00$0FKDPGHKFFPBNFHMM@@23@@jm@@QEAA@XZ 000000014000ae50 f i main.obj
 0001:00009e70       ?crypt_get@?$xor_string@U?$tstring_@$MD0CD@$MD0CD@$MD0GN@$MD0GB@$MD0GJ@$MD0GO@$MD0A@@detail@jm@@U?$_ki@$0A@$0HCOOBKMMOCNAJOD@@23@U?$_ki@$00$0FKDPGHKFFPBNFHMM@@23@@jm@@QEAAQEADXZ 000000014000ae70 f i main.obj
 0001:00009e90       ??0?$xor_string@U?$tstring_@$MD0CD@$MD0CD@$MD0GN@$MD0GB@$MD0GJ@$MD0GO@$MD0A@@detail@jm@@U?$_ki@$0A@$0HCOOBKMMOCNAJOD@@23@U?$_ki@$00$0FKDPGHKFFPBNFHMM@@23@@jm@@QEAA@XZ 000000014000ae90 f i main.obj
 0001:00009eb0       ?crypt_get@?$xor_string@U?$tstring_@$MD0CD@$MD0CD@$MD0GD@$MD0GM@$MD0GP@$MD0HD@$MD0GF@$MD0A@@detail@jm@@U?$_ki@$0A@$0HCOOBKMMOCNAJOD@@23@U?$_ki@$00$0FKDPGHKFFPBNFHMM@@23@@jm@@QEAAQEADXZ 000000014000aeb0 f i main.obj
 0001:00009ed0       ??0?$xor_string@U?$tstring_@$MD0CD@$MD0CD@$MD0GD@$MD0GM@$MD0GP@$MD0HD@$MD0GF@$MD0A@@detail@jm@@U?$_ki@$0A@$0HCOOBKMMOCNAJOD@@23@U?$_ki@$00$0FKDPGHKFFPBNFHMM@@23@@jm@@QEAA@XZ 000000014000aed0 f i main.obj
 0001:00009ef0       ?crypt_get@?$xor_string@U?$tstring_@$MD0CD@$MD0CD@$MD0GI@$MD0GJ@$MD0GE@$MD0GF@$MD0A@@detail@jm@@U?$_ki@$0A@$0HCOOBKMMOCNAJOD@@23@U?$_ki@$00$0FKDPGHKFFPBNFHMM@@23@@jm@@QEAAQEADXZ 000000014000aef0 f i main.obj
 0001:00009f10       ??0?$xor_string@U?$tstring_@$MD0CD@$MD0CD@$MD0GI@$MD0GJ@$MD0GE@$MD0GF@$MD0A@@detail@jm@@U?$_ki@$0A@$0HCOOBKMMOCNAJOD@@23@U?$_ki@$00$0FKDPGHKFFPBNFHMM@@23@@jm@@QEAA@XZ 000000014000af10 f i main.obj
 0001:00009f30       ?crypt_get@?$xor_string@U?$tstring_@$MD0CD@$MD0CD@$MD0GM@$MD0GP@$MD0GB@$MD0GE@$MD0GF@$MD0HC@$MD0A@@detail@jm@@U?$_ki@$0A@$0HCOOBKMMOCNAJOD@@23@U?$_ki@$00$0FKDPGHKFFPBNFHMM@@23@@jm@@QEAAQEADXZ 000000014000af30 f i main.obj
 0001:00009f50       ??0?$xor_string@U?$tstring_@$MD0CD@$MD0CD@$MD0GM@$MD0GP@$MD0GB@$MD0GE@$MD0GF@$MD0HC@$MD0A@@detail@jm@@U?$_ki@$0A@$0HCOOBKMMOCNAJOD@@23@U?$_ki@$00$0FKDPGHKFFPBNFHMM@@23@@jm@@QEAA@XZ 000000014000af50 f i main.obj
 0001:00009f70       ?crypt_get@?$xor_string@U?$tstring_@$MD0EF@$MD0GO@$MD0GB@$MD0GC@$MD0GM@$MD0GF@$MD0GE@$MD0A@@detail@jm@@U?$_ki@$0A@$0HCOOBKMMOCNAJOD@@23@U?$_ki@$00$0FKDPGHKFFPBNFHMM@@23@@jm@@QEAAQEADXZ 000000014000af70 f i main.obj
 0001:00009f90       ??0?$xor_string@U?$tstring_@$MD0EF@$MD0GO@$MD0GB@$MD0GC@$MD0GM@$MD0GF@$MD0GE@$MD0A@@detail@jm@@U?$_ki@$0A@$0HCOOBKMMOCNAJOD@@23@U?$_ki@$00$0FKDPGHKFFPBNFHMM@@23@@jm@@QEAA@XZ 000000014000af90 f i main.obj
 0001:00009fb0       ?crypt_get@?$xor_string@U?$tstring_@$MD0HD@$MD0HF@$MD0GD@$MD0GD@$MD0GF@$MD0HD@$MD0HD@$MD0A@@detail@jm@@U?$_ki@$0A@$0HCOOBKMMOCNAJOD@@23@U?$_ki@$00$0FKDPGHKFFPBNFHMM@@23@@jm@@QEAAQEADXZ 000000014000afb0 f i main.obj
 0001:00009fd0       ??0?$xor_string@U?$tstring_@$MD0HD@$MD0HF@$MD0GD@$MD0GD@$MD0GF@$MD0HD@$MD0HD@$MD0A@@detail@jm@@U?$_ki@$0A@$0HCOOBKMMOCNAJOD@@23@U?$_ki@$00$0FKDPGHKFFPBNFHMM@@23@@jm@@QEAA@XZ 000000014000afd0 f i main.obj
 0001:00009ff0       ?crypt_get@?$xor_string@U?$tstring_@$MD0EM@$MD0GP@$MD0GB@$MD0GE@$MD0GF@$MD0HC@$MD0A@@detail@jm@@U?$_ki@$0A@$0HCOOBKMMOCNAJOD@@23@U?$_ki@$00$0FKDPGHKFFPBNFHMM@@23@@jm@@QEAAQEADXZ 000000014000aff0 f i main.obj
 0001:0000a010       ??0?$xor_string@U?$tstring_@$MD0EM@$MD0GP@$MD0GB@$MD0GE@$MD0GF@$MD0HC@$MD0A@@detail@jm@@U?$_ki@$0A@$0HCOOBKMMOCNAJOD@@23@U?$_ki@$00$0FKDPGHKFFPBNFHMM@@23@@jm@@QEAA@XZ 000000014000b010 f i main.obj
 0001:0000a030       ?crypt_get@?$xor_string@U?$tstring_@$MD0FC@$MD0HF@$MD0GO@$MD0CA@$MD0GB@$MD0HD@$MD0CA@$MD0GB@$MD0GE@$MD0GN@$MD0GJ@$MD0GO@$MD0GJ@$MD0HD@$MD0HE@$MD0HC@$MD0GB@$MD0HE@$MD0GP@$MD0HC@$MD0CA@$MD0GP@$MD0HC@$MD0CA@$MD0GF@$MD0GO@$MD0GB@$MD0GC@$MD0GM@$MD0GF@$MD0CA@$MD0FF@$MD0EB@$MD0ED@$MD0A@@detail@jm@@U?$_ki@$0A@$0HCOOBKMMOCNAJOD@@23@U?$_ki@$00$0FKDPGHKFFPBNFHMM@@23@U?$_ki@$01$0HFDDMAFOABHJPEIN@@23@U?$_ki@$02$0?OEGLEDIDDJDBFKC@@23@U?$_ki@$03$0?FJOKKNGHCGFMEEMJ@@23@U?$_ki@$04$0BOMKEJOBNILEEDAA@@23@@jm@@QEAAQEADXZ 000000014000b030 f i main.obj
 0001:0000a050       ??0?$xor_string@U?$tstring_@$MD0FC@$MD0HF@$MD0GO@$MD0CA@$MD0GB@$MD0HD@$MD0CA@$MD0GB@$MD0GE@$MD0GN@$MD0GJ@$MD0GO@$MD0GJ@$MD0HD@$MD0HE@$MD0HC@$MD0GB@$MD0HE@$MD0GP@$MD0HC@$MD0CA@$MD0GP@$MD0HC@$MD0CA@$MD0GF@$MD0GO@$MD0GB@$MD0GC@$MD0GM@$MD0GF@$MD0CA@$MD0FF@$MD0EB@$MD0ED@$MD0A@@detail@jm@@U?$_ki@$0A@$0HCOOBKMMOCNAJOD@@23@U?$_ki@$00$0FKDPGHKFFPBNFHMM@@23@U?$_ki@$01$0HFDDMAFOABHJPEIN@@23@U?$_ki@$02$0?OEGLEDIDDJDBFKC@@23@U?$_ki@$03$0?FJOKKNGHCGFMEEMJ@@23@U?$_ki@$04$0BOMKEJOBNILEEDAA@@23@@jm@@QEAA@XZ 000000014000b050 f i main.obj
 0001:0000a070       ?crypt_get@?$xor_string@U?$tstring_@$MD0GB@$MD0GE@$MD0HG@$MD0GB@$MD0HA@$MD0GJ@$MD0DD@$MD0DC@$MD0CO@$MD0GE@$MD0GM@$MD0GM@$MD0A@@detail@jm@@U?$_ki@$0A@$0HCOOBKMMOCNAJOD@@23@U?$_ki@$00$0FKDPGHKFFPBNFHMM@@23@@jm@@QEAAQEADXZ 000000014000b070 f i main.obj
 0001:0000a090       ??0?$xor_string@U?$tstring_@$MD0GB@$MD0GE@$MD0HG@$MD0GB@$MD0HA@$MD0GJ@$MD0DD@$MD0DC@$MD0CO@$MD0GE@$MD0GM@$MD0GM@$MD0A@@detail@jm@@U?$_ki@$0A@$0HCOOBKMMOCNAJOD@@23@U?$_ki@$00$0FKDPGHKFFPBNFHMM@@23@@jm@@QEAA@XZ 000000014000b090 f i main.obj
 0001:0000a0b0       ?crypt_get@?$xor_string@U?$tstring_@$MD0HH@$MD0HD@$MD0DC@$MD0FP@$MD0DD@$MD0DC@$MD0CO@$MD0GE@$MD0GM@$MD0GM@$MD0A@@detail@jm@@U?$_ki@$0A@$0HCOOBKMMOCNAJOD@@23@U?$_ki@$00$0FKDPGHKFFPBNFHMM@@23@@jm@@QEAAQEADXZ 000000014000b0b0 f i main.obj
 0001:0000a0d0       ??0?$xor_string@U?$tstring_@$MD0HH@$MD0HD@$MD0DC@$MD0FP@$MD0DD@$MD0DC@$MD0CO@$MD0GE@$MD0GM@$MD0GM@$MD0A@@detail@jm@@U?$_ki@$0A@$0HCOOBKMMOCNAJOD@@23@U?$_ki@$00$0FKDPGHKFFPBNFHMM@@23@@jm@@QEAA@XZ 000000014000b0d0 f i main.obj
 0001:0000a0f0       ?crypt_get@?$xor_string@U?$tstring_@$MD0HF@$MD0HD@$MD0GF@$MD0HC@$MD0DD@$MD0DC@$MD0CO@$MD0GE@$MD0GM@$MD0GM@$MD0A@@detail@jm@@U?$_ki@$0A@$0HCOOBKMMOCNAJOD@@23@U?$_ki@$00$0FKDPGHKFFPBNFHMM@@23@@jm@@QEAAQEADXZ 000000014000b0f0 f i main.obj
 0001:0000a110       ??0?$xor_string@U?$tstring_@$MD0HF@$MD0HD@$MD0GF@$MD0HC@$MD0DD@$MD0DC@$MD0CO@$MD0GE@$MD0GM@$MD0GM@$MD0A@@detail@jm@@U?$_ki@$0A@$0HCOOBKMMOCNAJOD@@23@U?$_ki@$00$0FKDPGHKFFPBNFHMM@@23@@jm@@QEAA@XZ 000000014000b110 f i main.obj
 0001:0000a130       ?crypt_get@?$xor_string@U?$tstring_@$MD0HE@$MD0GD@$MD0HB@$MD0FE@$MD0FB@$MD0GN@$MD0GL@$MD0FC@$MD0GK@$MD0EM@$MD0GC@$MD0EB@$MD0EL@$MD0GI@$MD0GM@$MD0HK@$MD0GE@$MD0EF@$MD0GN@$MD0EK@$MD0HC@$MD0EC@$MD0GL@$MD0FH@$MD0FI@$MD0GF@$MD0EI@$MD0HH@$MD0EN@$MD0GO@$MD0GC@$MD0GN@$MD0A@@detail@jm@@U?$_ki@$0A@$0HCOOBKMMOCNAJOD@@23@U?$_ki@$00$0FKDPGHKFFPBNFHMM@@23@U?$_ki@$01$0HFDDMAFOABHJPEIN@@23@U?$_ki@$02$0?OEGLEDIDDJDBFKC@@23@U?$_ki@$03$0?FJOKKNGHCGFMEEMJ@@23@U?$_ki@$04$0BOMKEJOBNILEEDAA@@23@@jm@@QEAAQEADXZ 000000014000b130 f i main.obj
 0001:0000a150       ??0?$xor_string@U?$tstring_@$MD0HE@$MD0GD@$MD0HB@$MD0FE@$MD0FB@$MD0GN@$MD0GL@$MD0FC@$MD0GK@$MD0EM@$MD0GC@$MD0EB@$MD0EL@$MD0GI@$MD0GM@$MD0HK@$MD0GE@$MD0EF@$MD0GN@$MD0EK@$MD0HC@$MD0EC@$MD0GL@$MD0FH@$MD0FI@$MD0GF@$MD0EI@$MD0HH@$MD0EN@$MD0GO@$MD0GC@$MD0GN@$MD0A@@detail@jm@@U?$_ki@$0A@$0HCOOBKMMOCNAJOD@@23@U?$_ki@$00$0FKDPGHKFFPBNFHMM@@23@U?$_ki@$01$0HFDDMAFOABHJPEIN@@23@U?$_ki@$02$0?OEGLEDIDDJDBFKC@@23@U?$_ki@$03$0?FJOKKNGHCGFMEEMJ@@23@U?$_ki@$04$0BOMKEJOBNILEEDAA@@23@@jm@@QEAA@XZ 000000014000b150 f i main.obj
 0001:0000a170       ?crypt_get@?$xor_string@U?$tstring_@$MD0CD@$MD0CD@$MD0GN@$MD0GB@$MD0GJ@$MD0GO@$MD0GO@$MD0GP@$MD0HE@$MD0GJ@$MD0GG@$MD0HJ@$MD0A@@detail@jm@@U?$_ki@$0A@$0HCOOBKMMOCNAJOD@@23@U?$_ki@$00$0FKDPGHKFFPBNFHMM@@23@@jm@@QEAAQEADXZ 000000014000b170 f i main.obj
 0001:0000a190       ??0?$xor_string@U?$tstring_@$MD0CD@$MD0CD@$MD0GN@$MD0GB@$MD0GJ@$MD0GO@$MD0GO@$MD0GP@$MD0HE@$MD0GJ@$MD0GG@$MD0HJ@$MD0A@@detail@jm@@U?$_ki@$0A@$0HCOOBKMMOCNAJOD@@23@U?$_ki@$00$0FKDPGHKFFPBNFHMM@@23@@jm@@QEAA@XZ 000000014000b190 f i main.obj
 0001:0000a1b0       ?crypt_get@?$xor_string@U?$tstring_@$MD0CD@$MD0CD@$MD0GO@$MD0GP@$MD0HE@$MD0GJ@$MD0GG@$MD0GJ@$MD0GD@$MD0GB@$MD0HE@$MD0GJ@$MD0GP@$MD0GO@$MD0GC@$MD0GB@$MD0GD@$MD0GL@$MD0GH@$MD0HC@$MD0GP@$MD0HF@$MD0GO@$MD0GE@$MD0A@@detail@jm@@U?$_ki@$0A@$0HCOOBKMMOCNAJOD@@23@U?$_ki@$00$0FKDPGHKFFPBNFHMM@@23@U?$_ki@$01$0HFDDMAFOABHJPEIN@@23@U?$_ki@$02$0?OEGLEDIDDJDBFKC@@23@@jm@@QEAAQEADXZ 000000014000b1b0 f i main.obj
 0001:0000a1d0       ??0?$xor_string@U?$tstring_@$MD0CD@$MD0CD@$MD0GO@$MD0GP@$MD0HE@$MD0GJ@$MD0GG@$MD0GJ@$MD0GD@$MD0GB@$MD0HE@$MD0GJ@$MD0GP@$MD0GO@$MD0GC@$MD0GB@$MD0GD@$MD0GL@$MD0GH@$MD0HC@$MD0GP@$MD0HF@$MD0GO@$MD0GE@$MD0A@@detail@jm@@U?$_ki@$0A@$0HCOOBKMMOCNAJOD@@23@U?$_ki@$00$0FKDPGHKFFPBNFHMM@@23@U?$_ki@$01$0HFDDMAFOABHJPEIN@@23@U?$_ki@$02$0?OEGLEDIDDJDBFKC@@23@@jm@@QEAA@XZ 000000014000b1d0 f i main.obj
 0001:0000a1f0       ?crypt_get@?$xor_string@U?$tstring_@$MD0DA@$MD0CO@$MD0DA@$MD0DB@$MD0A@@detail@jm@@U?$_ki@$0A@$0HCOOBKMMOCNAJOD@@23@U?$_ki@$00$0FKDPGHKFFPBNFHMM@@23@@jm@@QEAAQEADXZ 000000014000b1f0 f i main.obj
 0001:0000a210       ??0?$xor_string@U?$tstring_@$MD0DA@$MD0CO@$MD0DA@$MD0DB@$MD0A@@detail@jm@@U?$_ki@$0A@$0HCOOBKMMOCNAJOD@@23@U?$_ki@$00$0FKDPGHKFFPBNFHMM@@23@@jm@@QEAA@XZ 000000014000b210 f i main.obj
 0001:0000a230       ?crypt_get@?$xor_string@U?$tstring_@$MD0GI@$MD0GB@$MD0HC@$MD0HF@$MD0GO@$MD0GB@$MD0DH@$MD0DH@$MD0DH@$MD0DH@$MD0CO@$MD0GD@$MD0GP@$MD0GN@$MD0A@@detail@jm@@U?$_ki@$0A@$0HCOOBKMMOCNAJOD@@23@U?$_ki@$00$0FKDPGHKFFPBNFHMM@@23@@jm@@QEAAQEADXZ 000000014000b230 f i main.obj
 0001:0000a250       ??0?$xor_string@U?$tstring_@$MD0GI@$MD0GB@$MD0HC@$MD0HF@$MD0GO@$MD0GB@$MD0DH@$MD0DH@$MD0DH@$MD0DH@$MD0CO@$MD0GD@$MD0GP@$MD0GN@$MD0A@@detail@jm@@U?$_ki@$0A@$0HCOOBKMMOCNAJOD@@23@U?$_ki@$00$0FKDPGHKFFPBNFHMM@@23@@jm@@QEAA@XZ 000000014000b250 f i main.obj
 0001:0000a270       ?time_since_epoch@?$time_point@Usystem_clock@chrono@std@@V?$duration@_JU?$ratio@$00$0JIJGIA@@std@@@23@@chrono@std@@QEBA?AV?$duration@_JU?$ratio@$00$0JIJGIA@@std@@@23@XZ 000000014000b270 f i main.obj
 0001:0000a280       ??$?0_J$0A@@?$duration@_JU?$ratio@$00$0JIJGIA@@std@@@chrono@std@@QEAA@AEB_J@Z 000000014000b280 f i main.obj
 0001:0000a280       ??$?0_J$0A@@?$duration@_JU?$ratio@$00$0DOI@@std@@@chrono@std@@QEAA@AEB_J@Z 000000014000b280 f i main.obj
 0001:0000a280       ??0?$time_point@Usystem_clock@chrono@std@@V?$duration@_JU?$ratio@$00$0JIJGIA@@std@@@23@@chrono@std@@QEAA@AEBV?$duration@_JU?$ratio@$00$0JIJGIA@@std@@@12@@Z 000000014000b280 f i main.obj
 0001:0000a290       ?resize@?$basic_string@DU?$char_traits@D@std@@V?$allocator@D@2@@std@@QEAAX_KD@Z 000000014000b290 f i main.obj
 0001:0000a2f0       ?crypt@?$xor_string@U?$tstring_@$MD0EM@$MD0GP@$MD0GB@$MD0GE@$MD0GF@$MD0HC@$MD0CA@$MD0GJ@$MD0HD@$MD0CA@$MD0GD@$MD0HF@$MD0HC@$MD0HC@$MD0GF@$MD0GO@$MD0HE@$MD0GM@$MD0HJ@$MD0CA@$MD0GJ@$MD0HD@$MD0CA@$MD0GE@$MD0GJ@$MD0HD@$MD0GB@$MD0GC@$MD0GM@$MD0GF@$MD0GE@$MD0CM@$MD0CA@$MD0HD@$MD0GP@$MD0HC@$MD0HC@$MD0HJ@$MD0CA@$MD0GG@$MD0GP@$MD0HC@$MD0CA@$MD0HE@$MD0GI@$MD0GF@$MD0CA@$MD0GJ@$MD0GO@$MD0GD@$MD0GP@$MD0GO@$MD0HG@$MD0GF@$MD0GO@$MD0GJ@$MD0GF@$MD0GO@$MD0GD@$MD0GF@$MD0A@@detail@jm@@U?$_ki@$0A@$0HCOOBKMMOCNAJOD@@23@U?$_ki@$00$0FKDPGHKFFPBNFHMM@@23@U?$_ki@$01$0HFDDMAFOABHJPEIN@@23@U?$_ki@$02$0?OEGLEDIDDJDBFKC@@23@U?$_ki@$03$0?FJOKKNGHCGFMEEMJ@@23@U?$_ki@$04$0BOMKEJOBNILEEDAA@@23@U?$_ki@$05$0DMFPPHGKMCGLCLEB@@23@U?$_ki@$06$0GDCAEGMDDHFPNBHC@@23@@jm@@QEAAXXZ 000000014000b2f0 f i main.obj
 0001:0000a3a0       ?_copy@?$xor_string@U?$tstring_@$MD0EM@$MD0GP@$MD0GB@$MD0GE@$MD0GF@$MD0HC@$MD0CA@$MD0GJ@$MD0HD@$MD0CA@$MD0GD@$MD0HF@$MD0HC@$MD0HC@$MD0GF@$MD0GO@$MD0HE@$MD0GM@$MD0HJ@$MD0CA@$MD0GJ@$MD0HD@$MD0CA@$MD0GE@$MD0GJ@$MD0HD@$MD0GB@$MD0GC@$MD0GM@$MD0GF@$MD0GE@$MD0CM@$MD0CA@$MD0HD@$MD0GP@$MD0HC@$MD0HC@$MD0HJ@$MD0CA@$MD0GG@$MD0GP@$MD0HC@$MD0CA@$MD0HE@$MD0GI@$MD0GF@$MD0CA@$MD0GJ@$MD0GO@$MD0GD@$MD0GP@$MD0GO@$MD0HG@$MD0GF@$MD0GO@$MD0GJ@$MD0GF@$MD0GO@$MD0GD@$MD0GF@$MD0A@@detail@jm@@U?$_ki@$0A@$0HCOOBKMMOCNAJOD@@23@U?$_ki@$00$0FKDPGHKFFPBNFHMM@@23@U?$_ki@$01$0HFDDMAFOABHJPEIN@@23@U?$_ki@$02$0?OEGLEDIDDJDBFKC@@23@U?$_ki@$03$0?FJOKKNGHCGFMEEMJ@@23@U?$_ki@$04$0BOMKEJOBNILEEDAA@@23@U?$_ki@$05$0DMFPPHGKMCGLCLEB@@23@U?$_ki@$06$0GDCAEGMDDHFPNBHC@@23@@jm@@AEAAXXZ 000000014000b3a0 f i main.obj
 0001:0000a430       ?crypt@?$xor_string@U?$tstring_@$MD0EM@$MD0GP@$MD0GB@$MD0GE@$MD0GF@$MD0HC@$MD0CA@$MD0GJ@$MD0HD@$MD0CA@$MD0GD@$MD0HF@$MD0HC@$MD0HC@$MD0GF@$MD0GO@$MD0HE@$MD0GM@$MD0HJ@$MD0CA@$MD0GP@$MD0GO@$MD0CA@$MD0HE@$MD0GF@$MD0GD@$MD0GI@$MD0GO@$MD0GJ@$MD0GD@$MD0GB@$MD0GM@$MD0CA@$MD0HH@$MD0GP@$MD0HC@$MD0GL@$MD0CM@$MD0CA@$MD0HD@$MD0GP@$MD0HC@$MD0HC@$MD0HJ@$MD0CA@$MD0GG@$MD0GP@$MD0HC@$MD0CA@$MD0HE@$MD0GI@$MD0GF@$MD0CA@$MD0GJ@$MD0GO@$MD0GD@$MD0GP@$MD0GO@$MD0HG@$MD0GF@$MD0GO@$MD0GJ@$MD0GF@$MD0GO@$MD0GD@$MD0GF@$MD0A@@detail@jm@@U?$_ki@$0A@$0HCOOBKMMOCNAJOD@@23@U?$_ki@$00$0FKDPGHKFFPBNFHMM@@23@U?$_ki@$01$0HFDDMAFOABHJPEIN@@23@U?$_ki@$02$0?OEGLEDIDDJDBFKC@@23@U?$_ki@$03$0?FJOKKNGHCGFMEEMJ@@23@U?$_ki@$04$0BOMKEJOBNILEEDAA@@23@U?$_ki@$05$0DMFPPHGKMCGLCLEB@@23@U?$_ki@$06$0GDCAEGMDDHFPNBHC@@23@U?$_ki@$07$0?HJHOGBHLEIKOHIJF@@23@U?$_ki@$08$0FOKNMHFNOIFGMBLE@@23@@jm@@QEAAXXZ 000000014000b430 f i main.obj
 0001:0000a500       ?_copy@?$xor_string@U?$tstring_@$MD0EM@$MD0GP@$MD0GB@$MD0GE@$MD0GF@$MD0HC@$MD0CA@$MD0GJ@$MD0HD@$MD0CA@$MD0GD@$MD0HF@$MD0HC@$MD0HC@$MD0GF@$MD0GO@$MD0HE@$MD0GM@$MD0HJ@$MD0CA@$MD0GP@$MD0GO@$MD0CA@$MD0HE@$MD0GF@$MD0GD@$MD0GI@$MD0GO@$MD0GJ@$MD0GD@$MD0GB@$MD0GM@$MD0CA@$MD0HH@$MD0GP@$MD0HC@$MD0GL@$MD0CM@$MD0CA@$MD0HD@$MD0GP@$MD0HC@$MD0HC@$MD0HJ@$MD0CA@$MD0GG@$MD0GP@$MD0HC@$MD0CA@$MD0HE@$MD0GI@$MD0GF@$MD0CA@$MD0GJ@$MD0GO@$MD0GD@$MD0GP@$MD0GO@$MD0HG@$MD0GF@$MD0GO@$MD0GJ@$MD0GF@$MD0GO@$MD0GD@$MD0GF@$MD0A@@detail@jm@@U?$_ki@$0A@$0HCOOBKMMOCNAJOD@@23@U?$_ki@$00$0FKDPGHKFFPBNFHMM@@23@U?$_ki@$01$0HFDDMAFOABHJPEIN@@23@U?$_ki@$02$0?OEGLEDIDDJDBFKC@@23@U?$_ki@$03$0?FJOKKNGHCGFMEEMJ@@23@U?$_ki@$04$0BOMKEJOBNILEEDAA@@23@U?$_ki@$05$0DMFPPHGKMCGLCLEB@@23@U?$_ki@$06$0GDCAEGMDDHFPNBHC@@23@U?$_ki@$07$0?HJHOGBHLEIKOHIJF@@23@U?$_ki@$08$0FOKNMHFNOIFGMBLE@@23@@jm@@AEAAXXZ 000000014000b500 f i main.obj
 0001:0000a5c0       ?crypt@?$xor_string@U?$tstring_@$MD0FE@$MD0GF@$MD0GD@$MD0GI@$MD0GO@$MD0GJ@$MD0GD@$MD0GB@$MD0GM@$MD0CA@$MD0HH@$MD0GP@$MD0HC@$MD0GL@$MD0A@@detail@jm@@U?$_ki@$0A@$0HCOOBKMMOCNAJOD@@23@U?$_ki@$00$0FKDPGHKFFPBNFHMM@@23@@jm@@QEAAXXZ 000000014000b5c0 f i main.obj
 0001:0000a620       ?_copy@?$xor_string@U?$tstring_@$MD0FE@$MD0GF@$MD0GD@$MD0GI@$MD0GO@$MD0GJ@$MD0GD@$MD0GB@$MD0GM@$MD0CA@$MD0HH@$MD0GP@$MD0HC@$MD0GL@$MD0A@@detail@jm@@U?$_ki@$0A@$0HCOOBKMMOCNAJOD@@23@U?$_ki@$00$0FKDPGHKFFPBNFHMM@@23@@jm@@AEAAXXZ 000000014000b620 f i main.obj
 0001:0000a660       ?crypt@?$xor_string@U?$tstring_@$MD0FG@$MD0GF@$MD0HC@$MD0HD@$MD0GJ@$MD0GP@$MD0GO@$MD0CA@$MD0GM@$MD0GP@$MD0GB@$MD0GE@$MD0GF@$MD0HC@$MD0CA@$MD0GJ@$MD0GO@$MD0HG@$MD0GB@$MD0GM@$MD0GJ@$MD0GE@$MD0CO@$MD0CA@$MD0EH@$MD0GF@$MD0HE@$MD0CA@$MD0GO@$MD0GF@$MD0HH@$MD0CA@$MD0HG@$MD0GF@$MD0HC@$MD0HD@$MD0GJ@$MD0GP@$MD0GO@$MD0CA@$MD0GG@$MD0HC@$MD0GP@$MD0GN@$MD0CA@$MD0HJ@$MD0GP@$MD0HF@$MD0CA@$MD0HD@$MD0GF@$MD0GM@$MD0GM@$MD0GF@$MD0HC@$MD0A@@detail@jm@@U?$_ki@$0A@$0HCOOBKMMOCNAJOD@@23@U?$_ki@$00$0FKDPGHKFFPBNFHMM@@23@U?$_ki@$01$0HFDDMAFOABHJPEIN@@23@U?$_ki@$02$0?OEGLEDIDDJDBFKC@@23@U?$_ki@$03$0?FJOKKNGHCGFMEEMJ@@23@U?$_ki@$04$0BOMKEJOBNILEEDAA@@23@U?$_ki@$05$0DMFPPHGKMCGLCLEB@@23@U?$_ki@$06$0GDCAEGMDDHFPNBHC@@23@@jm@@QEAAXXZ 000000014000b660 f i main.obj
 0001:0000a710       ?_copy@?$xor_string@U?$tstring_@$MD0FG@$MD0GF@$MD0HC@$MD0HD@$MD0GJ@$MD0GP@$MD0GO@$MD0CA@$MD0GM@$MD0GP@$MD0GB@$MD0GE@$MD0GF@$MD0HC@$MD0CA@$MD0GJ@$MD0GO@$MD0HG@$MD0GB@$MD0GM@$MD0GJ@$MD0GE@$MD0CO@$MD0CA@$MD0EH@$MD0GF@$MD0HE@$MD0CA@$MD0GO@$MD0GF@$MD0HH@$MD0CA@$MD0HG@$MD0GF@$MD0HC@$MD0HD@$MD0GJ@$MD0GP@$MD0GO@$MD0CA@$MD0GG@$MD0HC@$MD0GP@$MD0GN@$MD0CA@$MD0HJ@$MD0GP@$MD0HF@$MD0CA@$MD0HD@$MD0GF@$MD0GM@$MD0GM@$MD0GF@$MD0HC@$MD0A@@detail@jm@@U?$_ki@$0A@$0HCOOBKMMOCNAJOD@@23@U?$_ki@$00$0FKDPGHKFFPBNFHMM@@23@U?$_ki@$01$0HFDDMAFOABHJPEIN@@23@U?$_ki@$02$0?OEGLEDIDDJDBFKC@@23@U?$_ki@$03$0?FJOKKNGHCGFMEEMJ@@23@U?$_ki@$04$0BOMKEJOBNILEEDAA@@23@U?$_ki@$05$0DMFPPHGKMCGLCLEB@@23@U?$_ki@$06$0GDCAEGMDDHFPNBHC@@23@@jm@@AEAAXXZ 000000014000b710 f i main.obj
 0001:0000a7a0       ?crypt@?$xor_string@U?$tstring_@$MD0GJ@$MD0GO@$MD0GD@$MD0GP@$MD0HC@$MD0HC@$MD0GF@$MD0GD@$MD0HE@$MD0FP@$MD0HG@$MD0GF@$MD0HC@$MD0HD@$MD0GJ@$MD0GP@$MD0GO@$MD0A@@detail@jm@@U?$_ki@$0A@$0HCOOBKMMOCNAJOD@@23@U?$_ki@$00$0FKDPGHKFFPBNFHMM@@23@U?$_ki@$01$0HFDDMAFOABHJPEIN@@23@U?$_ki@$02$0?OEGLEDIDDJDBFKC@@23@@jm@@QEAAXXZ 000000014000b7a0 f i main.obj
 0001:0000a810       ?_copy@?$xor_string@U?$tstring_@$MD0GJ@$MD0GO@$MD0GD@$MD0GP@$MD0HC@$MD0HC@$MD0GF@$MD0GD@$MD0HE@$MD0FP@$MD0HG@$MD0GF@$MD0HC@$MD0HD@$MD0GJ@$MD0GP@$MD0GO@$MD0A@@detail@jm@@U?$_ki@$0A@$0HCOOBKMMOCNAJOD@@23@U?$_ki@$00$0FKDPGHKFFPBNFHMM@@23@U?$_ki@$01$0HFDDMAFOABHJPEIN@@23@U?$_ki@$02$0?OEGLEDIDDJDBFKC@@23@@jm@@AEAAXXZ 000000014000b810 f i main.obj
 0001:0000a870       ?crypt@?$xor_string@U?$tstring_@$MD0FF@$MD0GO@$MD0GL@$MD0GO@$MD0GP@$MD0HH@$MD0GO@$MD0CA@$MD0HC@$MD0GF@$MD0HD@$MD0HA@$MD0GP@$MD0GO@$MD0HD@$MD0GF@$MD0A@@detail@jm@@U?$_ki@$0A@$0HCOOBKMMOCNAJOD@@23@U?$_ki@$00$0FKDPGHKFFPBNFHMM@@23@U?$_ki@$01$0HFDDMAFOABHJPEIN@@23@U?$_ki@$02$0?OEGLEDIDDJDBFKC@@23@@jm@@QEAAXXZ 000000014000b870 f i main.obj
 0001:0000a8e0       ?_copy@?$xor_string@U?$tstring_@$MD0FF@$MD0GO@$MD0GL@$MD0GO@$MD0GP@$MD0HH@$MD0GO@$MD0CA@$MD0HC@$MD0GF@$MD0HD@$MD0HA@$MD0GP@$MD0GO@$MD0HD@$MD0GF@$MD0A@@detail@jm@@U?$_ki@$0A@$0HCOOBKMMOCNAJOD@@23@U?$_ki@$00$0FKDPGHKFFPBNFHMM@@23@U?$_ki@$01$0HFDDMAFOABHJPEIN@@23@U?$_ki@$02$0?OEGLEDIDDJDBFKC@@23@@jm@@AEAAXXZ 000000014000b8e0 f i main.obj
 0001:0000a940       ?crypt@?$xor_string@U?$tstring_@$M_W0FM@$M_W0FM@$M_W0CO@$M_W0FM@$M_W0EB@$M_W0DB@$M_W0HC@$M_W0DC@$M_W0GL@$M_W0DD@$M_W0GO@$M_W0DE@$M_W0GJ@$M_W0DF@$M_W0GH@$M_W0DG@$M_W0GI@$M_W0DH@$M_W0HE@$M_W0DI@$M_W0HD@$M_W0A@@detail@jm@@U?$_ki@$0A@$0HCOOBKMMOCNAJOD@@23@U?$_ki@$00$0FKDPGHKFFPBNFHMM@@23@U?$_ki@$01$0HFDDMAFOABHJPEIN@@23@U?$_ki@$02$0?OEGLEDIDDJDBFKC@@23@U?$_ki@$03$0?FJOKKNGHCGFMEEMJ@@23@U?$_ki@$04$0BOMKEJOBNILEEDAA@@23@@jm@@QEAAXXZ 000000014000b940 f i main.obj
 0001:0000a9d0       ?_copy@?$xor_string@U?$tstring_@$M_W0FM@$M_W0FM@$M_W0CO@$M_W0FM@$M_W0EB@$M_W0DB@$M_W0HC@$M_W0DC@$M_W0GL@$M_W0DD@$M_W0GO@$M_W0DE@$M_W0GJ@$M_W0DF@$M_W0GH@$M_W0DG@$M_W0GI@$M_W0DH@$M_W0HE@$M_W0DI@$M_W0HD@$M_W0A@@detail@jm@@U?$_ki@$0A@$0HCOOBKMMOCNAJOD@@23@U?$_ki@$00$0FKDPGHKFFPBNFHMM@@23@U?$_ki@$01$0HFDDMAFOABHJPEIN@@23@U?$_ki@$02$0?OEGLEDIDDJDBFKC@@23@U?$_ki@$03$0?FJOKKNGHCGFMEEMJ@@23@U?$_ki@$04$0BOMKEJOBNILEEDAA@@23@@jm@@AEAAXXZ 000000014000b9d0 f i main.obj
 0001:0000aa40       ?crypt@?$xor_string@U?$tstring_@$MD0FF@$MD0GO@$MD0GE@$MD0GF@$MD0HE@$MD0GF@$MD0GD@$MD0HE@$MD0GF@$MD0GE@$MD0A@@detail@jm@@U?$_ki@$0A@$0HCOOBKMMOCNAJOD@@23@U?$_ki@$00$0FKDPGHKFFPBNFHMM@@23@@jm@@QEAAXXZ 000000014000ba40 f i main.obj
 0001:0000aaa0       ?_copy@?$xor_string@U?$tstring_@$MD0FF@$MD0GO@$MD0GE@$MD0GF@$MD0HE@$MD0GF@$MD0GD@$MD0HE@$MD0GF@$MD0GE@$MD0A@@detail@jm@@U?$_ki@$0A@$0HCOOBKMMOCNAJOD@@23@U?$_ki@$00$0FKDPGHKFFPBNFHMM@@23@@jm@@AEAAXXZ 000000014000baa0 f i main.obj
 0001:0000aae0       ?crypt@?$xor_string@U?$tstring_@$MD0ED@$MD0GI@$MD0GF@$MD0GB@$MD0HE@$MD0CA@$MD0GJ@$MD0HD@$MD0CA@$MD0GD@$MD0HF@$MD0HC@$MD0HC@$MD0GF@$MD0GO@$MD0HE@$MD0GM@$MD0HJ@$MD0CA@$MD0GE@$MD0GJ@$MD0HD@$MD0GB@$MD0GC@$MD0GM@$MD0GF@$MD0GE@$MD0CM@$MD0CA@$MD0HD@$MD0GP@$MD0HC@$MD0HC@$MD0HJ@$MD0CA@$MD0GG@$MD0GP@$MD0HC@$MD0CA@$MD0HE@$MD0GI@$MD0GF@$MD0CA@$MD0GJ@$MD0GO@$MD0GD@$MD0GP@$MD0GO@$MD0HG@$MD0GF@$MD0GO@$MD0GJ@$MD0GF@$MD0GO@$MD0GD@$MD0GF@$MD0A@@detail@jm@@U?$_ki@$0A@$0HCOOBKMMOCNAJOD@@23@U?$_ki@$00$0FKDPGHKFFPBNFHMM@@23@U?$_ki@$01$0HFDDMAFOABHJPEIN@@23@U?$_ki@$02$0?OEGLEDIDDJDBFKC@@23@U?$_ki@$03$0?FJOKKNGHCGFMEEMJ@@23@U?$_ki@$04$0BOMKEJOBNILEEDAA@@23@U?$_ki@$05$0DMFPPHGKMCGLCLEB@@23@U?$_ki@$06$0GDCAEGMDDHFPNBHC@@23@@jm@@QEAAXXZ 000000014000bae0 f i main.obj
 0001:0000ab90       ?_copy@?$xor_string@U?$tstring_@$MD0ED@$MD0GI@$MD0GF@$MD0GB@$MD0HE@$MD0CA@$MD0GJ@$MD0HD@$MD0CA@$MD0GD@$MD0HF@$MD0HC@$MD0HC@$MD0GF@$MD0GO@$MD0HE@$MD0GM@$MD0HJ@$MD0CA@$MD0GE@$MD0GJ@$MD0HD@$MD0GB@$MD0GC@$MD0GM@$MD0GF@$MD0GE@$MD0CM@$MD0CA@$MD0HD@$MD0GP@$MD0HC@$MD0HC@$MD0HJ@$MD0CA@$MD0GG@$MD0GP@$MD0HC@$MD0CA@$MD0HE@$MD0GI@$MD0GF@$MD0CA@$MD0GJ@$MD0GO@$MD0GD@$MD0GP@$MD0GO@$MD0HG@$MD0GF@$MD0GO@$MD0GJ@$MD0GF@$MD0GO@$MD0GD@$MD0GF@$MD0A@@detail@jm@@U?$_ki@$0A@$0HCOOBKMMOCNAJOD@@23@U?$_ki@$00$0FKDPGHKFFPBNFHMM@@23@U?$_ki@$01$0HFDDMAFOABHJPEIN@@23@U?$_ki@$02$0?OEGLEDIDDJDBFKC@@23@U?$_ki@$03$0?FJOKKNGHCGFMEEMJ@@23@U?$_ki@$04$0BOMKEJOBNILEEDAA@@23@U?$_ki@$05$0DMFPPHGKMCGLCLEB@@23@U?$_ki@$06$0GDCAEGMDDHFPNBHC@@23@@jm@@AEAAXXZ 000000014000bb90 f i main.obj
 0001:0000ac20       ?crypt@?$xor_string@U?$tstring_@$MD0EE@$MD0GJ@$MD0HD@$MD0GB@$MD0GC@$MD0GM@$MD0GF@$MD0GE@$MD0A@@detail@jm@@U?$_ki@$0A@$0HCOOBKMMOCNAJOD@@23@U?$_ki@$00$0FKDPGHKFFPBNFHMM@@23@@jm@@QEAAXXZ 000000014000bc20 f i main.obj
 0001:0000ac80       ?_copy@?$xor_string@U?$tstring_@$MD0EE@$MD0GJ@$MD0HD@$MD0GB@$MD0GC@$MD0GM@$MD0GF@$MD0GE@$MD0A@@detail@jm@@U?$_ki@$0A@$0HCOOBKMMOCNAJOD@@23@U?$_ki@$00$0FKDPGHKFFPBNFHMM@@23@@jm@@AEAAXXZ 000000014000bc80 f i main.obj
 0001:0000acc0       ?crypt@?$xor_string@U?$tstring_@$MD0ED@$MD0GI@$MD0GF@$MD0GB@$MD0HE@$MD0CA@$MD0GJ@$MD0HD@$MD0CA@$MD0GD@$MD0HF@$MD0HC@$MD0HC@$MD0GF@$MD0GO@$MD0HE@$MD0GM@$MD0HJ@$MD0CA@$MD0GP@$MD0GO@$MD0CA@$MD0HF@$MD0HA@$MD0GE@$MD0GB@$MD0HE@$MD0GF@$MD0CM@$MD0CA@$MD0HD@$MD0GP@$MD0HC@$MD0HC@$MD0HJ@$MD0CA@$MD0GG@$MD0GP@$MD0HC@$MD0CA@$MD0HE@$MD0GI@$MD0GF@$MD0CA@$MD0GJ@$MD0GO@$MD0GD@$MD0GP@$MD0GO@$MD0HG@$MD0GF@$MD0GO@$MD0GJ@$MD0GF@$MD0GO@$MD0GD@$MD0GF@$MD0A@@detail@jm@@U?$_ki@$0A@$0HCOOBKMMOCNAJOD@@23@U?$_ki@$00$0FKDPGHKFFPBNFHMM@@23@U?$_ki@$01$0HFDDMAFOABHJPEIN@@23@U?$_ki@$02$0?OEGLEDIDDJDBFKC@@23@U?$_ki@$03$0?FJOKKNGHCGFMEEMJ@@23@U?$_ki@$04$0BOMKEJOBNILEEDAA@@23@U?$_ki@$05$0DMFPPHGKMCGLCLEB@@23@U?$_ki@$06$0GDCAEGMDDHFPNBHC@@23@@jm@@QEAAXXZ 000000014000bcc0 f i main.obj
 0001:0000ad70       ?_copy@?$xor_string@U?$tstring_@$MD0ED@$MD0GI@$MD0GF@$MD0GB@$MD0HE@$MD0CA@$MD0GJ@$MD0HD@$MD0CA@$MD0GD@$MD0HF@$MD0HC@$MD0HC@$MD0GF@$MD0GO@$MD0HE@$MD0GM@$MD0HJ@$MD0CA@$MD0GP@$MD0GO@$MD0CA@$MD0HF@$MD0HA@$MD0GE@$MD0GB@$MD0HE@$MD0GF@$MD0CM@$MD0CA@$MD0HD@$MD0GP@$MD0HC@$MD0HC@$MD0HJ@$MD0CA@$MD0GG@$MD0GP@$MD0HC@$MD0CA@$MD0HE@$MD0GI@$MD0GF@$MD0CA@$MD0GJ@$MD0GO@$MD0GD@$MD0GP@$MD0GO@$MD0HG@$MD0GF@$MD0GO@$MD0GJ@$MD0GF@$MD0GO@$MD0GD@$MD0GF@$MD0A@@detail@jm@@U?$_ki@$0A@$0HCOOBKMMOCNAJOD@@23@U?$_ki@$00$0FKDPGHKFFPBNFHMM@@23@U?$_ki@$01$0HFDDMAFOABHJPEIN@@23@U?$_ki@$02$0?OEGLEDIDDJDBFKC@@23@U?$_ki@$03$0?FJOKKNGHCGFMEEMJ@@23@U?$_ki@$04$0BOMKEJOBNILEEDAA@@23@U?$_ki@$05$0DMFPPHGKMCGLCLEB@@23@U?$_ki@$06$0GDCAEGMDDHFPNBHC@@23@@jm@@AEAAXXZ 000000014000bd70 f i main.obj
 0001:0000ae00       ?crypt@?$xor_string@U?$tstring_@$MD0EP@$MD0GO@$MD0CA@$MD0HF@$MD0HA@$MD0GE@$MD0GB@$MD0HE@$MD0GF@$MD0A@@detail@jm@@U?$_ki@$0A@$0HCOOBKMMOCNAJOD@@23@U?$_ki@$00$0FKDPGHKFFPBNFHMM@@23@@jm@@QEAAXXZ 000000014000be00 f i main.obj
 0001:0000ae60       ?_copy@?$xor_string@U?$tstring_@$MD0EP@$MD0GO@$MD0CA@$MD0HF@$MD0HA@$MD0GE@$MD0GB@$MD0HE@$MD0GF@$MD0A@@detail@jm@@U?$_ki@$0A@$0HCOOBKMMOCNAJOD@@23@U?$_ki@$00$0FKDPGHKFFPBNFHMM@@23@@jm@@AEAAXXZ 000000014000be60 f i main.obj
 0001:0000aea0       ?crypt@?$xor_string@U?$tstring_@$MD0EB@$MD0HA@$MD0GF@$MD0HI@$MD0CA@$MD0EM@$MD0GF@$MD0GH@$MD0GF@$MD0GO@$MD0GE@$MD0HD@$MD0A@@detail@jm@@U?$_ki@$0A@$0HCOOBKMMOCNAJOD@@23@U?$_ki@$00$0FKDPGHKFFPBNFHMM@@23@@jm@@QEAAXXZ 000000014000bea0 f i main.obj
 0001:0000af00       ?_copy@?$xor_string@U?$tstring_@$MD0EB@$MD0HA@$MD0GF@$MD0HI@$MD0CA@$MD0EM@$MD0GF@$MD0GH@$MD0GF@$MD0GO@$MD0GE@$MD0HD@$MD0A@@detail@jm@@U?$_ki@$0A@$0HCOOBKMMOCNAJOD@@23@U?$_ki@$00$0FKDPGHKFFPBNFHMM@@23@@jm@@AEAAXXZ 000000014000bf00 f i main.obj
 0001:0000af40       ?crypt@?$xor_string@U?$tstring_@$MD0DL@$MD0A@@detail@jm@@U?$_ki@$0A@$0HCOOBKMMOCNAJOD@@23@U?$_ki@$00$0FKDPGHKFFPBNFHMM@@23@@jm@@QEAAXXZ 000000014000bf40 f i main.obj
 0001:0000afa0       ?_copy@?$xor_string@U?$tstring_@$MD0DL@$MD0A@@detail@jm@@U?$_ki@$0A@$0HCOOBKMMOCNAJOD@@23@U?$_ki@$00$0FKDPGHKFFPBNFHMM@@23@@jm@@AEAAXXZ 000000014000bfa0 f i main.obj
 0001:0000afe0       ?crypt@?$xor_string@U?$tstring_@$MD0EL@$MD0GF@$MD0HJ@$MD0CA@$MD0HD@$MD0HF@$MD0GD@$MD0GD@$MD0GF@$MD0HD@$MD0HD@$MD0GG@$MD0HF@$MD0GM@$MD0GM@$MD0HJ@$MD0CA@$MD0GB@$MD0GD@$MD0HE@$MD0GJ@$MD0HG@$MD0GB@$MD0HE@$MD0GF@$MD0GE@$MD0CO@$MD0CA@$MD0EF@$MD0HI@$MD0HA@$MD0GF@$MD0GD@$MD0HE@$MD0CO@$MD0CO@$MD0CO@$MD0A@@detail@jm@@U?$_ki@$0A@$0HCOOBKMMOCNAJOD@@23@U?$_ki@$00$0FKDPGHKFFPBNFHMM@@23@U?$_ki@$01$0HFDDMAFOABHJPEIN@@23@U?$_ki@$02$0?OEGLEDIDDJDBFKC@@23@U?$_ki@$03$0?FJOKKNGHCGFMEEMJ@@23@U?$_ki@$04$0BOMKEJOBNILEEDAA@@23@@jm@@QEAAXXZ 000000014000bfe0 f i main.obj
 0001:0000b070       ?_copy@?$xor_string@U?$tstring_@$MD0EL@$MD0GF@$MD0HJ@$MD0CA@$MD0HD@$MD0HF@$MD0GD@$MD0GD@$MD0GF@$MD0HD@$MD0HD@$MD0GG@$MD0HF@$MD0GM@$MD0GM@$MD0HJ@$MD0CA@$MD0GB@$MD0GD@$MD0HE@$MD0GJ@$MD0HG@$MD0GB@$MD0HE@$MD0GF@$MD0GE@$MD0CO@$MD0CA@$MD0EF@$MD0HI@$MD0HA@$MD0GF@$MD0GD@$MD0HE@$MD0CO@$MD0CO@$MD0CO@$MD0A@@detail@jm@@U?$_ki@$0A@$0HCOOBKMMOCNAJOD@@23@U?$_ki@$00$0FKDPGHKFFPBNFHMM@@23@U?$_ki@$01$0HFDDMAFOABHJPEIN@@23@U?$_ki@$02$0?OEGLEDIDDJDBFKC@@23@U?$_ki@$03$0?FJOKKNGHCGFMEEMJ@@23@U?$_ki@$04$0BOMKEJOBNILEEDAA@@23@@jm@@AEAAXXZ 000000014000c070 f i main.obj
 0001:0000b0e0       ?crypt@?$xor_string@U?$tstring_@$MD0EE@$MD0GB@$MD0HE@$MD0GB@$MD0CA@$MD0GL@$MD0GF@$MD0HJ@$MD0CA@$MD0GF@$MD0HC@$MD0HC@$MD0GP@$MD0HC@$MD0A@@detail@jm@@U?$_ki@$0A@$0HCOOBKMMOCNAJOD@@23@U?$_ki@$00$0FKDPGHKFFPBNFHMM@@23@@jm@@QEAAXXZ 000000014000c0e0 f i main.obj
 0001:0000b140       ?_copy@?$xor_string@U?$tstring_@$MD0EE@$MD0GB@$MD0HE@$MD0GB@$MD0CA@$MD0GL@$MD0GF@$MD0HJ@$MD0CA@$MD0GF@$MD0HC@$MD0HC@$MD0GP@$MD0HC@$MD0A@@detail@jm@@U?$_ki@$0A@$0HCOOBKMMOCNAJOD@@23@U?$_ki@$00$0FKDPGHKFFPBNFHMM@@23@@jm@@AEAAXXZ 000000014000c140 f i main.obj
 0001:0000b180       ?crypt@?$xor_string@U?$tstring_@$MD0EF@$MD0HI@$MD0HA@$MD0GJ@$MD0HC@$MD0GF@$MD0GE@$MD0CA@$MD0HD@$MD0HF@$MD0GC@$MD0HD@$MD0GD@$MD0HC@$MD0GJ@$MD0GC@$MD0GF@$MD0A@@detail@jm@@U?$_ki@$0A@$0HCOOBKMMOCNAJOD@@23@U?$_ki@$00$0FKDPGHKFFPBNFHMM@@23@U?$_ki@$01$0HFDDMAFOABHJPEIN@@23@U?$_ki@$02$0?OEGLEDIDDJDBFKC@@23@@jm@@QEAAXXZ 000000014000c180 f i main.obj
 0001:0000b1f0       ?_copy@?$xor_string@U?$tstring_@$MD0EF@$MD0HI@$MD0HA@$MD0GJ@$MD0HC@$MD0GF@$MD0GE@$MD0CA@$MD0HD@$MD0HF@$MD0GC@$MD0HD@$MD0GD@$MD0HC@$MD0GJ@$MD0GC@$MD0GF@$MD0A@@detail@jm@@U?$_ki@$0A@$0HCOOBKMMOCNAJOD@@23@U?$_ki@$00$0FKDPGHKFFPBNFHMM@@23@U?$_ki@$01$0HFDDMAFOABHJPEIN@@23@U?$_ki@$02$0?OEGLEDIDDJDBFKC@@23@@jm@@AEAAXXZ 000000014000c1f0 f i main.obj
 0001:0000b250       ?crypt@?$xor_string@U?$tstring_@$MD0FF@$MD0GO@$MD0GL@$MD0GO@$MD0GP@$MD0HH@$MD0GO@$MD0CA@$MD0GD@$MD0GI@$MD0GF@$MD0GB@$MD0HE@$MD0A@@detail@jm@@U?$_ki@$0A@$0HCOOBKMMOCNAJOD@@23@U?$_ki@$00$0FKDPGHKFFPBNFHMM@@23@@jm@@QEAAXXZ 000000014000c250 f i main.obj
 0001:0000b2b0       ?_copy@?$xor_string@U?$tstring_@$MD0FF@$MD0GO@$MD0GL@$MD0GO@$MD0GP@$MD0HH@$MD0GO@$MD0CA@$MD0GD@$MD0GI@$MD0GF@$MD0GB@$MD0HE@$MD0A@@detail@jm@@U?$_ki@$0A@$0HCOOBKMMOCNAJOD@@23@U?$_ki@$00$0FKDPGHKFFPBNFHMM@@23@@jm@@AEAAXXZ 000000014000c2b0 f i main.obj
 0001:0000b2f0       ?crypt@?$xor_string@U?$tstring_@$MD0EJ@$MD0GO@$MD0HG@$MD0GB@$MD0GM@$MD0GJ@$MD0GE@$MD0CA@$MD0GL@$MD0GF@$MD0HJ@$MD0A@@detail@jm@@U?$_ki@$0A@$0HCOOBKMMOCNAJOD@@23@U?$_ki@$00$0FKDPGHKFFPBNFHMM@@23@@jm@@QEAAXXZ 000000014000c2f0 f i main.obj
 0001:0000b350       ?_copy@?$xor_string@U?$tstring_@$MD0EJ@$MD0GO@$MD0HG@$MD0GB@$MD0GM@$MD0GJ@$MD0GE@$MD0CA@$MD0GL@$MD0GF@$MD0HJ@$MD0A@@detail@jm@@U?$_ki@$0A@$0HCOOBKMMOCNAJOD@@23@U?$_ki@$00$0FKDPGHKFFPBNFHMM@@23@@jm@@AEAAXXZ 000000014000c350 f i main.obj
 0001:0000b390       ?crypt@?$xor_string@U?$tstring_@$MD0EC@$MD0GB@$MD0GO@$MD0GO@$MD0GF@$MD0GE@$MD0A@@detail@jm@@U?$_ki@$0A@$0HCOOBKMMOCNAJOD@@23@U?$_ki@$00$0FKDPGHKFFPBNFHMM@@23@@jm@@QEAAXXZ 000000014000c390 f i main.obj
 0001:0000b3f0       ?_copy@?$xor_string@U?$tstring_@$MD0EC@$MD0GB@$MD0GO@$MD0GO@$MD0GF@$MD0GE@$MD0A@@detail@jm@@U?$_ki@$0A@$0HCOOBKMMOCNAJOD@@23@U?$_ki@$00$0FKDPGHKFFPBNFHMM@@23@@jm@@AEAAXXZ 000000014000c3f0 f i main.obj
 0001:0000b430       ?crypt@?$xor_string@U?$tstring_@$MD0GE@$MD0GB@$MD0HE@$MD0GB@$MD0FP@$MD0GF@$MD0HC@$MD0HC@$MD0GP@$MD0HC@$MD0A@@detail@jm@@U?$_ki@$0A@$0HCOOBKMMOCNAJOD@@23@U?$_ki@$00$0FKDPGHKFFPBNFHMM@@23@@jm@@QEAAXXZ 000000014000c430 f i main.obj
 0001:0000b490       ?_copy@?$xor_string@U?$tstring_@$MD0GE@$MD0GB@$MD0HE@$MD0GB@$MD0FP@$MD0GF@$MD0HC@$MD0HC@$MD0GP@$MD0HC@$MD0A@@detail@jm@@U?$_ki@$0A@$0HCOOBKMMOCNAJOD@@23@U?$_ki@$00$0FKDPGHKFFPBNFHMM@@23@@jm@@AEAAXXZ 000000014000c490 f i main.obj
 0001:0000b4d0       ?crypt@?$xor_string@U?$tstring_@$MD0GF@$MD0HI@$MD0HA@$MD0GJ@$MD0HC@$MD0GF@$MD0GE@$MD0FP@$MD0HD@$MD0HF@$MD0GC@$MD0HD@$MD0GD@$MD0HC@$MD0GJ@$MD0GC@$MD0GF@$MD0A@@detail@jm@@U?$_ki@$0A@$0HCOOBKMMOCNAJOD@@23@U?$_ki@$00$0FKDPGHKFFPBNFHMM@@23@U?$_ki@$01$0HFDDMAFOABHJPEIN@@23@U?$_ki@$02$0?OEGLEDIDDJDBFKC@@23@@jm@@QEAAXXZ 000000014000c4d0 f i main.obj
 0001:0000b540       ?_copy@?$xor_string@U?$tstring_@$MD0GF@$MD0HI@$MD0HA@$MD0GJ@$MD0HC@$MD0GF@$MD0GE@$MD0FP@$MD0HD@$MD0HF@$MD0GC@$MD0HD@$MD0GD@$MD0HC@$MD0GJ@$MD0GC@$MD0GF@$MD0A@@detail@jm@@U?$_ki@$0A@$0HCOOBKMMOCNAJOD@@23@U?$_ki@$00$0FKDPGHKFFPBNFHMM@@23@U?$_ki@$01$0HFDDMAFOABHJPEIN@@23@U?$_ki@$02$0?OEGLEDIDDJDBFKC@@23@@jm@@AEAAXXZ 000000014000c540 f i main.obj
 0001:0000b5a0       ?crypt@?$xor_string@U?$tstring_@$MD0HF@$MD0GO@$MD0GL@$MD0GO@$MD0GP@$MD0HH@$MD0GO@$MD0FP@$MD0GD@$MD0GI@$MD0GF@$MD0GB@$MD0HE@$MD0A@@detail@jm@@U?$_ki@$0A@$0HCOOBKMMOCNAJOD@@23@U?$_ki@$00$0FKDPGHKFFPBNFHMM@@23@@jm@@QEAAXXZ 000000014000c5a0 f i main.obj
 0001:0000b600       ?_copy@?$xor_string@U?$tstring_@$MD0HF@$MD0GO@$MD0GL@$MD0GO@$MD0GP@$MD0HH@$MD0GO@$MD0FP@$MD0GD@$MD0GI@$MD0GF@$MD0GB@$MD0HE@$MD0A@@detail@jm@@U?$_ki@$0A@$0HCOOBKMMOCNAJOD@@23@U?$_ki@$00$0FKDPGHKFFPBNFHMM@@23@@jm@@AEAAXXZ 000000014000c600 f i main.obj
 0001:0000b640       ?crypt@?$xor_string@U?$tstring_@$MD0GJ@$MD0GO@$MD0HG@$MD0GB@$MD0GM@$MD0GJ@$MD0GE@$MD0FP@$MD0GL@$MD0GF@$MD0HJ@$MD0A@@detail@jm@@U?$_ki@$0A@$0HCOOBKMMOCNAJOD@@23@U?$_ki@$00$0FKDPGHKFFPBNFHMM@@23@@jm@@QEAAXXZ 000000014000c640 f i main.obj
 0001:0000b6a0       ?_copy@?$xor_string@U?$tstring_@$MD0GJ@$MD0GO@$MD0HG@$MD0GB@$MD0GM@$MD0GJ@$MD0GE@$MD0FP@$MD0GL@$MD0GF@$MD0HJ@$MD0A@@detail@jm@@U?$_ki@$0A@$0HCOOBKMMOCNAJOD@@23@U?$_ki@$00$0FKDPGHKFFPBNFHMM@@23@@jm@@AEAAXXZ 000000014000c6a0 f i main.obj
 0001:0000b6e0       ?crypt@?$xor_string@U?$tstring_@$MD0GC@$MD0GB@$MD0GO@$MD0GO@$MD0GF@$MD0GE@$MD0A@@detail@jm@@U?$_ki@$0A@$0HCOOBKMMOCNAJOD@@23@U?$_ki@$00$0FKDPGHKFFPBNFHMM@@23@@jm@@QEAAXXZ 000000014000c6e0 f i main.obj
 0001:0000b740       ?_copy@?$xor_string@U?$tstring_@$MD0GC@$MD0GB@$MD0GO@$MD0GO@$MD0GF@$MD0GE@$MD0A@@detail@jm@@U?$_ki@$0A@$0HCOOBKMMOCNAJOD@@23@U?$_ki@$00$0FKDPGHKFFPBNFHMM@@23@@jm@@AEAAXXZ 000000014000c740 f i main.obj
 0001:0000b780       ?crypt@?$xor_string@U?$tstring_@$MD0EB@$MD0GD@$MD0HE@$MD0GJ@$MD0HG@$MD0GB@$MD0HE@$MD0GF@$MD0A@@detail@jm@@U?$_ki@$0A@$0HCOOBKMMOCNAJOD@@23@U?$_ki@$00$0FKDPGHKFFPBNFHMM@@23@@jm@@QEAAXXZ 000000014000c780 f i main.obj
 0001:0000b7e0       ?_copy@?$xor_string@U?$tstring_@$MD0EB@$MD0GD@$MD0HE@$MD0GJ@$MD0HG@$MD0GB@$MD0HE@$MD0GF@$MD0A@@detail@jm@@U?$_ki@$0A@$0HCOOBKMMOCNAJOD@@23@U?$_ki@$00$0FKDPGHKFFPBNFHMM@@23@@jm@@AEAAXXZ 000000014000c7e0 f i main.obj
 0001:0000b820       ?crypt@?$xor_string@U?$tstring_@$MD0CD@$MD0CD@$MD0EL@$MD0GF@$MD0HJ@$MD0A@@detail@jm@@U?$_ki@$0A@$0HCOOBKMMOCNAJOD@@23@U?$_ki@$00$0FKDPGHKFFPBNFHMM@@23@@jm@@QEAAXXZ 000000014000c820 f i main.obj
 0001:0000b880       ?_copy@?$xor_string@U?$tstring_@$MD0CD@$MD0CD@$MD0EL@$MD0GF@$MD0HJ@$MD0A@@detail@jm@@U?$_ki@$0A@$0HCOOBKMMOCNAJOD@@23@U?$_ki@$00$0FKDPGHKFFPBNFHMM@@23@@jm@@AEAAXXZ 000000014000c880 f i main.obj
 0001:0000b8c0       ?crypt@?$xor_string@U?$tstring_@$MD0EL@$MD0GF@$MD0HJ@$MD0A@@detail@jm@@U?$_ki@$0A@$0HCOOBKMMOCNAJOD@@23@U?$_ki@$00$0FKDPGHKFFPBNFHMM@@23@@jm@@QEAAXXZ 000000014000c8c0 f i main.obj
 0001:0000b920       ?_copy@?$xor_string@U?$tstring_@$MD0EL@$MD0GF@$MD0HJ@$MD0A@@detail@jm@@U?$_ki@$0A@$0HCOOBKMMOCNAJOD@@23@U?$_ki@$00$0FKDPGHKFFPBNFHMM@@23@@jm@@AEAAXXZ 000000014000c920 f i main.obj
 0001:0000b960       ?crypt@?$xor_string@U?$tstring_@$MD0EB@$MD0ED@$MD0FE@$MD0EJ@$MD0FG@$MD0EB@$MD0FE@$MD0EJ@$MD0EP@$MD0EO@$MD0A@@detail@jm@@U?$_ki@$0A@$0HCOOBKMMOCNAJOD@@23@U?$_ki@$00$0FKDPGHKFFPBNFHMM@@23@@jm@@QEAAXXZ 000000014000c960 f i main.obj
 0001:0000b9c0       ?_copy@?$xor_string@U?$tstring_@$MD0EB@$MD0ED@$MD0FE@$MD0EJ@$MD0FG@$MD0EB@$MD0FE@$MD0EJ@$MD0EP@$MD0EO@$MD0A@@detail@jm@@U?$_ki@$0A@$0HCOOBKMMOCNAJOD@@23@U?$_ki@$00$0FKDPGHKFFPBNFHMM@@23@@jm@@AEAAXXZ 000000014000c9c0 f i main.obj
 0001:0000ba00       ?crypt@?$xor_string@U?$tstring_@$MD0CD@$MD0CD@$MD0GN@$MD0GB@$MD0GJ@$MD0GO@$MD0A@@detail@jm@@U?$_ki@$0A@$0HCOOBKMMOCNAJOD@@23@U?$_ki@$00$0FKDPGHKFFPBNFHMM@@23@@jm@@QEAAXXZ 000000014000ca00 f i main.obj
 0001:0000ba60       ?_copy@?$xor_string@U?$tstring_@$MD0CD@$MD0CD@$MD0GN@$MD0GB@$MD0GJ@$MD0GO@$MD0A@@detail@jm@@U?$_ki@$0A@$0HCOOBKMMOCNAJOD@@23@U?$_ki@$00$0FKDPGHKFFPBNFHMM@@23@@jm@@AEAAXXZ 000000014000ca60 f i main.obj
 0001:0000baa0       ?crypt@?$xor_string@U?$tstring_@$MD0CD@$MD0CD@$MD0GD@$MD0GM@$MD0GP@$MD0HD@$MD0GF@$MD0A@@detail@jm@@U?$_ki@$0A@$0HCOOBKMMOCNAJOD@@23@U?$_ki@$00$0FKDPGHKFFPBNFHMM@@23@@jm@@QEAAXXZ 000000014000caa0 f i main.obj
 0001:0000bb00       ?_copy@?$xor_string@U?$tstring_@$MD0CD@$MD0CD@$MD0GD@$MD0GM@$MD0GP@$MD0HD@$MD0GF@$MD0A@@detail@jm@@U?$_ki@$0A@$0HCOOBKMMOCNAJOD@@23@U?$_ki@$00$0FKDPGHKFFPBNFHMM@@23@@jm@@AEAAXXZ 000000014000cb00 f i main.obj
 0001:0000bb40       ?crypt@?$xor_string@U?$tstring_@$MD0CD@$MD0CD@$MD0GI@$MD0GJ@$MD0GE@$MD0GF@$MD0A@@detail@jm@@U?$_ki@$0A@$0HCOOBKMMOCNAJOD@@23@U?$_ki@$00$0FKDPGHKFFPBNFHMM@@23@@jm@@QEAAXXZ 000000014000cb40 f i main.obj
 0001:0000bba0       ?_copy@?$xor_string@U?$tstring_@$MD0CD@$MD0CD@$MD0GI@$MD0GJ@$MD0GE@$MD0GF@$MD0A@@detail@jm@@U?$_ki@$0A@$0HCOOBKMMOCNAJOD@@23@U?$_ki@$00$0FKDPGHKFFPBNFHMM@@23@@jm@@AEAAXXZ 000000014000cba0 f i main.obj
 0001:0000bbe0       ?crypt@?$xor_string@U?$tstring_@$MD0CD@$MD0CD@$MD0GM@$MD0GP@$MD0GB@$MD0GE@$MD0GF@$MD0HC@$MD0A@@detail@jm@@U?$_ki@$0A@$0HCOOBKMMOCNAJOD@@23@U?$_ki@$00$0FKDPGHKFFPBNFHMM@@23@@jm@@QEAAXXZ 000000014000cbe0 f i main.obj
 0001:0000bc40       ?_copy@?$xor_string@U?$tstring_@$MD0CD@$MD0CD@$MD0GM@$MD0GP@$MD0GB@$MD0GE@$MD0GF@$MD0HC@$MD0A@@detail@jm@@U?$_ki@$0A@$0HCOOBKMMOCNAJOD@@23@U?$_ki@$00$0FKDPGHKFFPBNFHMM@@23@@jm@@AEAAXXZ 000000014000cc40 f i main.obj
 0001:0000bc80       ?crypt@?$xor_string@U?$tstring_@$MD0EF@$MD0GO@$MD0GB@$MD0GC@$MD0GM@$MD0GF@$MD0GE@$MD0A@@detail@jm@@U?$_ki@$0A@$0HCOOBKMMOCNAJOD@@23@U?$_ki@$00$0FKDPGHKFFPBNFHMM@@23@@jm@@QEAAXXZ 000000014000cc80 f i main.obj
 0001:0000bce0       ?_copy@?$xor_string@U?$tstring_@$MD0EF@$MD0GO@$MD0GB@$MD0GC@$MD0GM@$MD0GF@$MD0GE@$MD0A@@detail@jm@@U?$_ki@$0A@$0HCOOBKMMOCNAJOD@@23@U?$_ki@$00$0FKDPGHKFFPBNFHMM@@23@@jm@@AEAAXXZ 000000014000cce0 f i main.obj
 0001:0000bd20       ?crypt@?$xor_string@U?$tstring_@$MD0HD@$MD0HF@$MD0GD@$MD0GD@$MD0GF@$MD0HD@$MD0HD@$MD0A@@detail@jm@@U?$_ki@$0A@$0HCOOBKMMOCNAJOD@@23@U?$_ki@$00$0FKDPGHKFFPBNFHMM@@23@@jm@@QEAAXXZ 000000014000cd20 f i main.obj
 0001:0000bd80       ?_copy@?$xor_string@U?$tstring_@$MD0HD@$MD0HF@$MD0GD@$MD0GD@$MD0GF@$MD0HD@$MD0HD@$MD0A@@detail@jm@@U?$_ki@$0A@$0HCOOBKMMOCNAJOD@@23@U?$_ki@$00$0FKDPGHKFFPBNFHMM@@23@@jm@@AEAAXXZ 000000014000cd80 f i main.obj
 0001:0000bdc0       ?crypt@?$xor_string@U?$tstring_@$MD0EM@$MD0GP@$MD0GB@$MD0GE@$MD0GF@$MD0HC@$MD0A@@detail@jm@@U?$_ki@$0A@$0HCOOBKMMOCNAJOD@@23@U?$_ki@$00$0FKDPGHKFFPBNFHMM@@23@@jm@@QEAAXXZ 000000014000cdc0 f i main.obj
 0001:0000be20       ?_copy@?$xor_string@U?$tstring_@$MD0EM@$MD0GP@$MD0GB@$MD0GE@$MD0GF@$MD0HC@$MD0A@@detail@jm@@U?$_ki@$0A@$0HCOOBKMMOCNAJOD@@23@U?$_ki@$00$0FKDPGHKFFPBNFHMM@@23@@jm@@AEAAXXZ 000000014000ce20 f i main.obj
 0001:0000be60       ?crypt@?$xor_string@U?$tstring_@$MD0FC@$MD0HF@$MD0GO@$MD0CA@$MD0GB@$MD0HD@$MD0CA@$MD0GB@$MD0GE@$MD0GN@$MD0GJ@$MD0GO@$MD0GJ@$MD0HD@$MD0HE@$MD0HC@$MD0GB@$MD0HE@$MD0GP@$MD0HC@$MD0CA@$MD0GP@$MD0HC@$MD0CA@$MD0GF@$MD0GO@$MD0GB@$MD0GC@$MD0GM@$MD0GF@$MD0CA@$MD0FF@$MD0EB@$MD0ED@$MD0A@@detail@jm@@U?$_ki@$0A@$0HCOOBKMMOCNAJOD@@23@U?$_ki@$00$0FKDPGHKFFPBNFHMM@@23@U?$_ki@$01$0HFDDMAFOABHJPEIN@@23@U?$_ki@$02$0?OEGLEDIDDJDBFKC@@23@U?$_ki@$03$0?FJOKKNGHCGFMEEMJ@@23@U?$_ki@$04$0BOMKEJOBNILEEDAA@@23@@jm@@QEAAXXZ 000000014000ce60 f i main.obj
 0001:0000bef0       ?_copy@?$xor_string@U?$tstring_@$MD0FC@$MD0HF@$MD0GO@$MD0CA@$MD0GB@$MD0HD@$MD0CA@$MD0GB@$MD0GE@$MD0GN@$MD0GJ@$MD0GO@$MD0GJ@$MD0HD@$MD0HE@$MD0HC@$MD0GB@$MD0HE@$MD0GP@$MD0HC@$MD0CA@$MD0GP@$MD0HC@$MD0CA@$MD0GF@$MD0GO@$MD0GB@$MD0GC@$MD0GM@$MD0GF@$MD0CA@$MD0FF@$MD0EB@$MD0ED@$MD0A@@detail@jm@@U?$_ki@$0A@$0HCOOBKMMOCNAJOD@@23@U?$_ki@$00$0FKDPGHKFFPBNFHMM@@23@U?$_ki@$01$0HFDDMAFOABHJPEIN@@23@U?$_ki@$02$0?OEGLEDIDDJDBFKC@@23@U?$_ki@$03$0?FJOKKNGHCGFMEEMJ@@23@U?$_ki@$04$0BOMKEJOBNILEEDAA@@23@@jm@@AEAAXXZ 000000014000cef0 f i main.obj
 0001:0000bf60       ?crypt@?$xor_string@U?$tstring_@$MD0GB@$MD0GE@$MD0HG@$MD0GB@$MD0HA@$MD0GJ@$MD0DD@$MD0DC@$MD0CO@$MD0GE@$MD0GM@$MD0GM@$MD0A@@detail@jm@@U?$_ki@$0A@$0HCOOBKMMOCNAJOD@@23@U?$_ki@$00$0FKDPGHKFFPBNFHMM@@23@@jm@@QEAAXXZ 000000014000cf60 f i main.obj
 0001:0000bfc0       ?_copy@?$xor_string@U?$tstring_@$MD0GB@$MD0GE@$MD0HG@$MD0GB@$MD0HA@$MD0GJ@$MD0DD@$MD0DC@$MD0CO@$MD0GE@$MD0GM@$MD0GM@$MD0A@@detail@jm@@U?$_ki@$0A@$0HCOOBKMMOCNAJOD@@23@U?$_ki@$00$0FKDPGHKFFPBNFHMM@@23@@jm@@AEAAXXZ 000000014000cfc0 f i main.obj
 0001:0000c000       ?crypt@?$xor_string@U?$tstring_@$MD0HH@$MD0HD@$MD0DC@$MD0FP@$MD0DD@$MD0DC@$MD0CO@$MD0GE@$MD0GM@$MD0GM@$MD0A@@detail@jm@@U?$_ki@$0A@$0HCOOBKMMOCNAJOD@@23@U?$_ki@$00$0FKDPGHKFFPBNFHMM@@23@@jm@@QEAAXXZ 000000014000d000 f i main.obj
 0001:0000c060       ?_copy@?$xor_string@U?$tstring_@$MD0HH@$MD0HD@$MD0DC@$MD0FP@$MD0DD@$MD0DC@$MD0CO@$MD0GE@$MD0GM@$MD0GM@$MD0A@@detail@jm@@U?$_ki@$0A@$0HCOOBKMMOCNAJOD@@23@U?$_ki@$00$0FKDPGHKFFPBNFHMM@@23@@jm@@AEAAXXZ 000000014000d060 f i main.obj
 0001:0000c0a0       ?crypt@?$xor_string@U?$tstring_@$MD0HF@$MD0HD@$MD0GF@$MD0HC@$MD0DD@$MD0DC@$MD0CO@$MD0GE@$MD0GM@$MD0GM@$MD0A@@detail@jm@@U?$_ki@$0A@$0HCOOBKMMOCNAJOD@@23@U?$_ki@$00$0FKDPGHKFFPBNFHMM@@23@@jm@@QEAAXXZ 000000014000d0a0 f i main.obj
 0001:0000c100       ?_copy@?$xor_string@U?$tstring_@$MD0HF@$MD0HD@$MD0GF@$MD0HC@$MD0DD@$MD0DC@$MD0CO@$MD0GE@$MD0GM@$MD0GM@$MD0A@@detail@jm@@U?$_ki@$0A@$0HCOOBKMMOCNAJOD@@23@U?$_ki@$00$0FKDPGHKFFPBNFHMM@@23@@jm@@AEAAXXZ 000000014000d100 f i main.obj
 0001:0000c140       ?crypt@?$xor_string@U?$tstring_@$MD0HE@$MD0GD@$MD0HB@$MD0FE@$MD0FB@$MD0GN@$MD0GL@$MD0FC@$MD0GK@$MD0EM@$MD0GC@$MD0EB@$MD0EL@$MD0GI@$MD0GM@$MD0HK@$MD0GE@$MD0EF@$MD0GN@$MD0EK@$MD0HC@$MD0EC@$MD0GL@$MD0FH@$MD0FI@$MD0GF@$MD0EI@$MD0HH@$MD0EN@$MD0GO@$MD0GC@$MD0GN@$MD0A@@detail@jm@@U?$_ki@$0A@$0HCOOBKMMOCNAJOD@@23@U?$_ki@$00$0FKDPGHKFFPBNFHMM@@23@U?$_ki@$01$0HFDDMAFOABHJPEIN@@23@U?$_ki@$02$0?OEGLEDIDDJDBFKC@@23@U?$_ki@$03$0?FJOKKNGHCGFMEEMJ@@23@U?$_ki@$04$0BOMKEJOBNILEEDAA@@23@@jm@@QEAAXXZ 000000014000d140 f i main.obj
 0001:0000c1d0       ?_copy@?$xor_string@U?$tstring_@$MD0HE@$MD0GD@$MD0HB@$MD0FE@$MD0FB@$MD0GN@$MD0GL@$MD0FC@$MD0GK@$MD0EM@$MD0GC@$MD0EB@$MD0EL@$MD0GI@$MD0GM@$MD0HK@$MD0GE@$MD0EF@$MD0GN@$MD0EK@$MD0HC@$MD0EC@$MD0GL@$MD0FH@$MD0FI@$MD0GF@$MD0EI@$MD0HH@$MD0EN@$MD0GO@$MD0GC@$MD0GN@$MD0A@@detail@jm@@U?$_ki@$0A@$0HCOOBKMMOCNAJOD@@23@U?$_ki@$00$0FKDPGHKFFPBNFHMM@@23@U?$_ki@$01$0HFDDMAFOABHJPEIN@@23@U?$_ki@$02$0?OEGLEDIDDJDBFKC@@23@U?$_ki@$03$0?FJOKKNGHCGFMEEMJ@@23@U?$_ki@$04$0BOMKEJOBNILEEDAA@@23@@jm@@AEAAXXZ 000000014000d1d0 f i main.obj
 0001:0000c240       ?crypt@?$xor_string@U?$tstring_@$MD0CD@$MD0CD@$MD0GN@$MD0GB@$MD0GJ@$MD0GO@$MD0GO@$MD0GP@$MD0HE@$MD0GJ@$MD0GG@$MD0HJ@$MD0A@@detail@jm@@U?$_ki@$0A@$0HCOOBKMMOCNAJOD@@23@U?$_ki@$00$0FKDPGHKFFPBNFHMM@@23@@jm@@QEAAXXZ 000000014000d240 f i main.obj
 0001:0000c2a0       ?_copy@?$xor_string@U?$tstring_@$MD0CD@$MD0CD@$MD0GN@$MD0GB@$MD0GJ@$MD0GO@$MD0GO@$MD0GP@$MD0HE@$MD0GJ@$MD0GG@$MD0HJ@$MD0A@@detail@jm@@U?$_ki@$0A@$0HCOOBKMMOCNAJOD@@23@U?$_ki@$00$0FKDPGHKFFPBNFHMM@@23@@jm@@AEAAXXZ 000000014000d2a0 f i main.obj
 0001:0000c2e0       ?crypt@?$xor_string@U?$tstring_@$MD0CD@$MD0CD@$MD0GO@$MD0GP@$MD0HE@$MD0GJ@$MD0GG@$MD0GJ@$MD0GD@$MD0GB@$MD0HE@$MD0GJ@$MD0GP@$MD0GO@$MD0GC@$MD0GB@$MD0GD@$MD0GL@$MD0GH@$MD0HC@$MD0GP@$MD0HF@$MD0GO@$MD0GE@$MD0A@@detail@jm@@U?$_ki@$0A@$0HCOOBKMMOCNAJOD@@23@U?$_ki@$00$0FKDPGHKFFPBNFHMM@@23@U?$_ki@$01$0HFDDMAFOABHJPEIN@@23@U?$_ki@$02$0?OEGLEDIDDJDBFKC@@23@@jm@@QEAAXXZ 000000014000d2e0 f i main.obj
 0001:0000c350       ?_copy@?$xor_string@U?$tstring_@$MD0CD@$MD0CD@$MD0GO@$MD0GP@$MD0HE@$MD0GJ@$MD0GG@$MD0GJ@$MD0GD@$MD0GB@$MD0HE@$MD0GJ@$MD0GP@$MD0GO@$MD0GC@$MD0GB@$MD0GD@$MD0GL@$MD0GH@$MD0HC@$MD0GP@$MD0HF@$MD0GO@$MD0GE@$MD0A@@detail@jm@@U?$_ki@$0A@$0HCOOBKMMOCNAJOD@@23@U?$_ki@$00$0FKDPGHKFFPBNFHMM@@23@U?$_ki@$01$0HFDDMAFOABHJPEIN@@23@U?$_ki@$02$0?OEGLEDIDDJDBFKC@@23@@jm@@AEAAXXZ 000000014000d350 f i main.obj
 0001:0000c3b0       ?crypt@?$xor_string@U?$tstring_@$MD0DA@$MD0CO@$MD0DA@$MD0DB@$MD0A@@detail@jm@@U?$_ki@$0A@$0HCOOBKMMOCNAJOD@@23@U?$_ki@$00$0FKDPGHKFFPBNFHMM@@23@@jm@@QEAAXXZ 000000014000d3b0 f i main.obj
 0001:0000c410       ?_copy@?$xor_string@U?$tstring_@$MD0DA@$MD0CO@$MD0DA@$MD0DB@$MD0A@@detail@jm@@U?$_ki@$0A@$0HCOOBKMMOCNAJOD@@23@U?$_ki@$00$0FKDPGHKFFPBNFHMM@@23@@jm@@AEAAXXZ 000000014000d410 f i main.obj
 0001:0000c450       ?crypt@?$xor_string@U?$tstring_@$MD0GI@$MD0GB@$MD0HC@$MD0HF@$MD0GO@$MD0GB@$MD0DH@$MD0DH@$MD0DH@$MD0DH@$MD0CO@$MD0GD@$MD0GP@$MD0GN@$MD0A@@detail@jm@@U?$_ki@$0A@$0HCOOBKMMOCNAJOD@@23@U?$_ki@$00$0FKDPGHKFFPBNFHMM@@23@@jm@@QEAAXXZ 000000014000d450 f i main.obj
 0001:0000c4b0       ?_copy@?$xor_string@U?$tstring_@$MD0GI@$MD0GB@$MD0HC@$MD0HF@$MD0GO@$MD0GB@$MD0DH@$MD0DH@$MD0DH@$MD0DH@$MD0CO@$MD0GD@$MD0GP@$MD0GN@$MD0A@@detail@jm@@U?$_ki@$0A@$0HCOOBKMMOCNAJOD@@23@U?$_ki@$00$0FKDPGHKFFPBNFHMM@@23@@jm@@AEAAXXZ 000000014000d4b0 f i main.obj
 0001:0000c4f0       ?_Eos@?$basic_string@DU?$char_traits@D@std@@V?$allocator@D@2@@std@@AEAAX_K@Z 000000014000d4f0 f i main.obj
 0001:0000c530       ?append@?$basic_string@DU?$char_traits@D@std@@V?$allocator@D@2@@std@@QEAAAEAV12@_KD@Z 000000014000d530 f i main.obj
 0001:0000c5c0       ??R<lambda_e1befb086ad3257e3f042a63030725f7>@@QEBAXQEADQEBD_K2D@Z 000000014000d5c0 f i main.obj
 0001:0000c620       ?assign@?$_Narrow_char_traits@DH@std@@SAPEADQEAD_KD@Z 000000014000d620 f i main.obj
 0001:0000c650       ??$duration_cast@V?$duration@_JU?$ratio@$00$0DOI@@std@@@chrono@std@@_JU?$ratio@$00$0JIJGIA@@3@$0A@@chrono@std@@YA?AV?$duration@_JU?$ratio@$00$0DOI@@std@@@01@AEBV?$duration@_JU?$ratio@$00$0JIJGIA@@std@@@01@@Z 000000014000d650 f i main.obj
 0001:0000c6a0       ??$get@P6APEAXKHPEBD@ZUunsafe_module_enumerator@detail@li@@@?$lazy_function@$0PEAHPKMD@P6APEAXKHPEBD@Z@detail@li@@SAP6APEAXKHPEBD@ZXZ 000000014000d6a0 f i main.obj
 0001:0000c740       ??$get@P6APEAXPEAU_SECURITY_ATTRIBUTES@@HPEBD@ZUunsafe_module_enumerator@detail@li@@@?$lazy_function@$0DLGONCJH@P6APEAXPEAU_SECURITY_ATTRIBUTES@@HPEBD@Z@detail@li@@SAP6APEAXPEAU_SECURITY_ATTRIBUTES@@HPEBD@ZXZ 000000014000d740 f i main.obj
 0001:0000c7e0       ??$get@P6APEAUHINSTANCE__@@PEBD@ZUunsafe_module_enumerator@detail@li@@@?$lazy_function@$0FDLCAHAP@P6APEAUHINSTANCE__@@PEBD@Z@detail@li@@SAP6APEAUHINSTANCE__@@PEBD@ZXZ 000000014000d7e0 f i main.obj
 0001:0000c880       ??$get@P6AHPEAUHWND__@@PEBD1I@ZUunsafe_module_enumerator@detail@li@@@?$lazy_function@$0CDKJHJOE@P6AHPEAUHWND__@@PEBD1I@Z@detail@li@@SAP6AHPEAUHWND__@@PEBD1I@ZXZ 000000014000d880 f i main.obj
 0001:0000c920       ??$?9DU?$char_traits@D@std@@V?$allocator@D@1@@std@@YA_NAEBV?$basic_string@DU?$char_traits@D@std@@V?$allocator@D@2@@0@QEBD@Z 000000014000d920 f i main.obj
 0001:0000c930       ??$?8DU?$char_traits@D@std@@V?$allocator@D@1@@std@@YA_NAEBV?$basic_string@DU?$char_traits@D@std@@V?$allocator@D@2@@0@QEBD@Z 000000014000d930 f i main.obj
 0001:0000c940       ??$_crypt_128@$0A@$00$01$02@?$xor_string@U?$tstring_@$MD0DA@$MD0DB@$MD0DC@$MD0DD@$MD0DE@$MD0DF@$MD0DG@$MD0DH@$MD0DI@$MD0DJ@$MD0GB@$MD0GC@$MD0GD@$MD0GE@$MD0GF@$MD0GG@$MD0GH@$MD0GI@$MD0GJ@$MD0GK@$MD0GL@$MD0GM@$MD0GN@$MD0GO@$MD0GP@$MD0HA@$MD0HB@$MD0HC@$MD0HD@$MD0HE@$MD0HF@$MD0HG@$MD0HH@$MD0HI@$MD0HJ@$MD0HK@$MD0EB@$MD0EC@$MD0ED@$MD0EE@$MD0EF@$MD0EG@$MD0EH@$MD0EI@$MD0EJ@$MD0EK@$MD0EL@$MD0EM@$MD0EN@$MD0EO@$MD0EP@$MD0FA@$MD0FB@$MD0FC@$MD0FD@$MD0FE@$MD0FF@$MD0FG@$MD0FH@$MD0FI@$MD0FJ@$MD0FK@$MD0A@@detail@jm@@U?$_ki@$0A@$0FGELNIIFGEDAJMMF@@23@U?$_ki@$00$0DIILFICEGDJAMKJO@@23@U?$_ki@$01$0HDEJOBALFGABNLNP@@23@U?$_ki@$02$0DIHBIPDCOBOGOMAA@@23@U?$_ki@$03$0?FMGNNDKGMCFHANHH@@23@U?$_ki@$04$0FGMEFHEIHNMGKDLC@@23@U?$_ki@$05$0FIJLAGBPDFGNAJHD@@23@U?$_ki@$06$0BDEFKKNGEFMCLNFE@@23@@jm@@AEAAXPEB_KU?$integer_sequence@_K$0A@$00$01$02@std@@@Z 000000014000d940 f i utilities.obj
 0001:0000c940       ??$_crypt_128@$0A@$00$01$02@?$xor_string@U?$tstring_@$MD0ED@$MD0GI@$MD0GF@$MD0GB@$MD0HE@$MD0CA@$MD0GJ@$MD0HD@$MD0CA@$MD0GD@$MD0HF@$MD0HC@$MD0HC@$MD0GF@$MD0GO@$MD0HE@$MD0GM@$MD0HJ@$MD0CA@$MD0GP@$MD0GO@$MD0CA@$MD0HF@$MD0HA@$MD0GE@$MD0GB@$MD0HE@$MD0GF@$MD0CM@$MD0CA@$MD0HD@$MD0GP@$MD0HC@$MD0HC@$MD0HJ@$MD0CA@$MD0GG@$MD0GP@$MD0HC@$MD0CA@$MD0HE@$MD0GI@$MD0GF@$MD0CA@$MD0GJ@$MD0GO@$MD0GD@$MD0GP@$MD0GO@$MD0HG@$MD0GF@$MD0GO@$MD0GJ@$MD0GF@$MD0GO@$MD0GD@$MD0GF@$MD0A@@detail@jm@@U?$_ki@$0A@$0HCOOBKMMOCNAJOD@@23@U?$_ki@$00$0FKDPGHKFFPBNFHMM@@23@U?$_ki@$01$0HFDDMAFOABHJPEIN@@23@U?$_ki@$02$0?OEGLEDIDDJDBFKC@@23@U?$_ki@$03$0?FJOKKNGHCGFMEEMJ@@23@U?$_ki@$04$0BOMKEJOBNILEEDAA@@23@U?$_ki@$05$0DMFPPHGKMCGLCLEB@@23@U?$_ki@$06$0GDCAEGMDDHFPNBHC@@23@@jm@@AEAAXPEB_KU?$integer_sequence@_K$0A@$00$01$02@std@@@Z 000000014000d940 f i main.obj
 0001:0000c940       ??$_crypt_128@$0A@$00$01$02@?$xor_string@U?$tstring_@$MD0EM@$MD0GP@$MD0GB@$MD0GE@$MD0GF@$MD0HC@$MD0CA@$MD0GJ@$MD0HD@$MD0CA@$MD0GD@$MD0HF@$MD0HC@$MD0HC@$MD0GF@$MD0GO@$MD0HE@$MD0GM@$MD0HJ@$MD0CA@$MD0GJ@$MD0HD@$MD0CA@$MD0GE@$MD0GJ@$MD0HD@$MD0GB@$MD0GC@$MD0GM@$MD0GF@$MD0GE@$MD0CM@$MD0CA@$MD0HD@$MD0GP@$MD0HC@$MD0HC@$MD0HJ@$MD0CA@$MD0GG@$MD0GP@$MD0HC@$MD0CA@$MD0HE@$MD0GI@$MD0GF@$MD0CA@$MD0GJ@$MD0GO@$MD0GD@$MD0GP@$MD0GO@$MD0HG@$MD0GF@$MD0GO@$MD0GJ@$MD0GF@$MD0GO@$MD0GD@$MD0GF@$MD0A@@detail@jm@@U?$_ki@$0A@$0HCOOBKMMOCNAJOD@@23@U?$_ki@$00$0FKDPGHKFFPBNFHMM@@23@U?$_ki@$01$0HFDDMAFOABHJPEIN@@23@U?$_ki@$02$0?OEGLEDIDDJDBFKC@@23@U?$_ki@$03$0?FJOKKNGHCGFMEEMJ@@23@U?$_ki@$04$0BOMKEJOBNILEEDAA@@23@U?$_ki@$05$0DMFPPHGKMCGLCLEB@@23@U?$_ki@$06$0GDCAEGMDDHFPNBHC@@23@@jm@@AEAAXPEB_KU?$integer_sequence@_K$0A@$00$01$02@std@@@Z 000000014000d940 f i main.obj
 0001:0000c940       ??$_crypt_128@$0A@$00$01$02@?$xor_string@U?$tstring_@$MD0FG@$MD0GF@$MD0HC@$MD0HD@$MD0GJ@$MD0GP@$MD0GO@$MD0CA@$MD0GM@$MD0GP@$MD0GB@$MD0GE@$MD0GF@$MD0HC@$MD0CA@$MD0GJ@$MD0GO@$MD0HG@$MD0GB@$MD0GM@$MD0GJ@$MD0GE@$MD0CO@$MD0CA@$MD0EH@$MD0GF@$MD0HE@$MD0CA@$MD0GO@$MD0GF@$MD0HH@$MD0CA@$MD0HG@$MD0GF@$MD0HC@$MD0HD@$MD0GJ@$MD0GP@$MD0GO@$MD0CA@$MD0GG@$MD0HC@$MD0GP@$MD0GN@$MD0CA@$MD0HJ@$MD0GP@$MD0HF@$MD0CA@$MD0HD@$MD0GF@$MD0GM@$MD0GM@$MD0GF@$MD0HC@$MD0A@@detail@jm@@U?$_ki@$0A@$0HCOOBKMMOCNAJOD@@23@U?$_ki@$00$0FKDPGHKFFPBNFHMM@@23@U?$_ki@$01$0HFDDMAFOABHJPEIN@@23@U?$_ki@$02$0?OEGLEDIDDJDBFKC@@23@U?$_ki@$03$0?FJOKKNGHCGFMEEMJ@@23@U?$_ki@$04$0BOMKEJOBNILEEDAA@@23@U?$_ki@$05$0DMFPPHGKMCGLCLEB@@23@U?$_ki@$06$0GDCAEGMDDHFPNBHC@@23@@jm@@AEAAXPEB_KU?$integer_sequence@_K$0A@$00$01$02@std@@@Z 000000014000d940 f i main.obj
 0001:0000c940       ??$_crypt_128@$0A@$00$01$02@?$xor_string@U?$tstring_@$MD0ED@$MD0GI@$MD0GF@$MD0GB@$MD0HE@$MD0CA@$MD0GJ@$MD0HD@$MD0CA@$MD0GD@$MD0HF@$MD0HC@$MD0HC@$MD0GF@$MD0GO@$MD0HE@$MD0GM@$MD0HJ@$MD0CA@$MD0GE@$MD0GJ@$MD0HD@$MD0GB@$MD0GC@$MD0GM@$MD0GF@$MD0GE@$MD0CM@$MD0CA@$MD0HD@$MD0GP@$MD0HC@$MD0HC@$MD0HJ@$MD0CA@$MD0GG@$MD0GP@$MD0HC@$MD0CA@$MD0HE@$MD0GI@$MD0GF@$MD0CA@$MD0GJ@$MD0GO@$MD0GD@$MD0GP@$MD0GO@$MD0HG@$MD0GF@$MD0GO@$MD0GJ@$MD0GF@$MD0GO@$MD0GD@$MD0GF@$MD0A@@detail@jm@@U?$_ki@$0A@$0HCOOBKMMOCNAJOD@@23@U?$_ki@$00$0FKDPGHKFFPBNFHMM@@23@U?$_ki@$01$0HFDDMAFOABHJPEIN@@23@U?$_ki@$02$0?OEGLEDIDDJDBFKC@@23@U?$_ki@$03$0?FJOKKNGHCGFMEEMJ@@23@U?$_ki@$04$0BOMKEJOBNILEEDAA@@23@U?$_ki@$05$0DMFPPHGKMCGLCLEB@@23@U?$_ki@$06$0GDCAEGMDDHFPNBHC@@23@@jm@@AEAAXPEB_KU?$integer_sequence@_K$0A@$00$01$02@std@@@Z 000000014000d940 f i main.obj
 0001:0000c980       ??$_crypt_128@$0A@$00$01$02$03@?$xor_string@U?$tstring_@$MD0EM@$MD0GP@$MD0GB@$MD0GE@$MD0GF@$MD0HC@$MD0CA@$MD0GJ@$MD0HD@$MD0CA@$MD0GD@$MD0HF@$MD0HC@$MD0HC@$MD0GF@$MD0GO@$MD0HE@$MD0GM@$MD0HJ@$MD0CA@$MD0GP@$MD0GO@$MD0CA@$MD0HE@$MD0GF@$MD0GD@$MD0GI@$MD0GO@$MD0GJ@$MD0GD@$MD0GB@$MD0GM@$MD0CA@$MD0HH@$MD0GP@$MD0HC@$MD0GL@$MD0CM@$MD0CA@$MD0HD@$MD0GP@$MD0HC@$MD0HC@$MD0HJ@$MD0CA@$MD0GG@$MD0GP@$MD0HC@$MD0CA@$MD0HE@$MD0GI@$MD0GF@$MD0CA@$MD0GJ@$MD0GO@$MD0GD@$MD0GP@$MD0GO@$MD0HG@$MD0GF@$MD0GO@$MD0GJ@$MD0GF@$MD0GO@$MD0GD@$MD0GF@$MD0A@@detail@jm@@U?$_ki@$0A@$0HCOOBKMMOCNAJOD@@23@U?$_ki@$00$0FKDPGHKFFPBNFHMM@@23@U?$_ki@$01$0HFDDMAFOABHJPEIN@@23@U?$_ki@$02$0?OEGLEDIDDJDBFKC@@23@U?$_ki@$03$0?FJOKKNGHCGFMEEMJ@@23@U?$_ki@$04$0BOMKEJOBNILEEDAA@@23@U?$_ki@$05$0DMFPPHGKMCGLCLEB@@23@U?$_ki@$06$0GDCAEGMDDHFPNBHC@@23@U?$_ki@$07$0?HJHOGBHLEIKOHIJF@@23@U?$_ki@$08$0FOKNMHFNOIFGMBLE@@23@@jm@@AEAAXPEB_KU?$integer_sequence@_K$0A@$00$01$02$03@std@@@Z 000000014000d980 f i main.obj
 0001:0000c9d0       ??$_Reallocate_grow_by@V<lambda_e1befb086ad3257e3f042a63030725f7>@@_KD@?$basic_string@DU?$char_traits@D@std@@V?$allocator@D@2@@std@@AEAAAEAV01@_KV<lambda_e1befb086ad3257e3f042a63030725f7>@@_KD@Z 000000014000d9d0 f i main.obj
 0001:0000caf0       ?_Equal@?$basic_string@DU?$char_traits@D@std@@V?$allocator@D@2@@std@@QEBA_NQEBD@Z 000000014000daf0 f i main.obj
 0001:0000cb40       wmemcpy                    000000014000db40 f i utilities.obj
 0001:0000cb60       ??Rrandom_device@std@@QEAAIXZ 000000014000db60 f i utilities.obj
 0001:0000cb70       ??0bad_cast@std@@QEAA@AEBV01@@Z 000000014000db70 f i utilities.obj
 0001:0000cd10       ?crypt_get@?$xor_string@U?$tstring_@$MD0EH@$MD0GF@$MD0HE@$MD0FE@$MD0GP@$MD0GL@$MD0GF@$MD0GO@$MD0EJ@$MD0GO@$MD0GG@$MD0GP@$MD0HC@$MD0GN@$MD0GB@$MD0HE@$MD0GJ@$MD0GP@$MD0GO@$MD0A@@detail@jm@@U?$_ki@$0A@$0FGELNIIFGEDAJMMF@@23@U?$_ki@$00$0DIILFICEGDJAMKJO@@23@U?$_ki@$01$0HDEJOBALFGABNLNP@@23@U?$_ki@$02$0DIHBIPDCOBOGOMAA@@23@@jm@@QEAAQEADXZ 000000014000dd10 f i utilities.obj
 0001:0000cd30       ??0?$xor_string@U?$tstring_@$MD0EH@$MD0GF@$MD0HE@$MD0FE@$MD0GP@$MD0GL@$MD0GF@$MD0GO@$MD0EJ@$MD0GO@$MD0GG@$MD0GP@$MD0HC@$MD0GN@$MD0GB@$MD0HE@$MD0GJ@$MD0GP@$MD0GO@$MD0A@@detail@jm@@U?$_ki@$0A@$0FGELNIIFGEDAJMMF@@23@U?$_ki@$00$0DIILFICEGDJAMKJO@@23@U?$_ki@$01$0HDEJOBALFGABNLNP@@23@U?$_ki@$02$0DIHBIPDCOBOGOMAA@@23@@jm@@QEAA@XZ 000000014000dd30 f i utilities.obj
 0001:0000cd50       ?crypt_get@?$xor_string@U?$tstring_@$MD0EP@$MD0HA@$MD0GF@$MD0GO@$MD0FA@$MD0HC@$MD0GP@$MD0GD@$MD0GF@$MD0HD@$MD0HD@$MD0FE@$MD0GP@$MD0GL@$MD0GF@$MD0GO@$MD0A@@detail@jm@@U?$_ki@$0A@$0FGELNIIFGEDAJMMF@@23@U?$_ki@$00$0DIILFICEGDJAMKJO@@23@U?$_ki@$01$0HDEJOBALFGABNLNP@@23@U?$_ki@$02$0DIHBIPDCOBOGOMAA@@23@@jm@@QEAAQEADXZ 000000014000dd50 f i utilities.obj
 0001:0000cd70       ??0?$xor_string@U?$tstring_@$MD0EP@$MD0HA@$MD0GF@$MD0GO@$MD0FA@$MD0HC@$MD0GP@$MD0GD@$MD0GF@$MD0HD@$MD0HD@$MD0FE@$MD0GP@$MD0GL@$MD0GF@$MD0GO@$MD0A@@detail@jm@@U?$_ki@$0A@$0FGELNIIFGEDAJMMF@@23@U?$_ki@$00$0DIILFICEGDJAMKJO@@23@U?$_ki@$01$0HDEJOBALFGABNLNP@@23@U?$_ki@$02$0DIHBIPDCOBOGOMAA@@23@@jm@@QEAA@XZ 000000014000dd70 f i utilities.obj
 0001:0000cd90       ?crypt_get@?$xor_string@U?$tstring_@$MD0GB@$MD0GE@$MD0HG@$MD0GB@$MD0HA@$MD0GJ@$MD0DD@$MD0DC@$MD0CO@$MD0GE@$MD0GM@$MD0GM@$MD0A@@detail@jm@@U?$_ki@$0A@$0FGELNIIFGEDAJMMF@@23@U?$_ki@$00$0DIILFICEGDJAMKJO@@23@@jm@@QEAAQEADXZ 000000014000dd90 f i utilities.obj
 0001:0000cdb0       ??0?$xor_string@U?$tstring_@$MD0GB@$MD0GE@$MD0HG@$MD0GB@$MD0HA@$MD0GJ@$MD0DD@$MD0DC@$MD0CO@$MD0GE@$MD0GM@$MD0GM@$MD0A@@detail@jm@@U?$_ki@$0A@$0FGELNIIFGEDAJMMF@@23@U?$_ki@$00$0DIILFICEGDJAMKJO@@23@@jm@@QEAA@XZ 000000014000ddb0 f i utilities.obj
 0001:0000cdd0       ?crypt_get@?$xor_string@U?$tstring_@$MD0FM@$MD0FM@$MD0CO@$MD0FM@$MD0FA@$MD0GI@$MD0HJ@$MD0HD@$MD0GJ@$MD0GD@$MD0GB@$MD0GM@$MD0EE@$MD0HC@$MD0GJ@$MD0HG@$MD0GF@$MD0DA@$MD0A@@detail@jm@@U?$_ki@$0A@$0FGELNIIFGEDAJMMF@@23@U?$_ki@$00$0DIILFICEGDJAMKJO@@23@U?$_ki@$01$0HDEJOBALFGABNLNP@@23@U?$_ki@$02$0DIHBIPDCOBOGOMAA@@23@@jm@@QEAAQEADXZ 000000014000ddd0 f i utilities.obj
 0001:0000cdf0       ??0?$xor_string@U?$tstring_@$MD0FM@$MD0FM@$MD0CO@$MD0FM@$MD0FA@$MD0GI@$MD0HJ@$MD0HD@$MD0GJ@$MD0GD@$MD0GB@$MD0GM@$MD0EE@$MD0HC@$MD0GJ@$MD0HG@$MD0GF@$MD0DA@$MD0A@@detail@jm@@U?$_ki@$0A@$0FGELNIIFGEDAJMMF@@23@U?$_ki@$00$0DIILFICEGDJAMKJO@@23@U?$_ki@$01$0HDEJOBALFGABNLNP@@23@U?$_ki@$02$0DIHBIPDCOBOGOMAA@@23@@jm@@QEAA@XZ 000000014000ddf0 f i utilities.obj
 0001:0000ce10       ?crypt_get@?$xor_string@U?$tstring_@$MD0A@@detail@jm@@U?$_ki@$0A@$0FGELNIIFGEDAJMMF@@23@U?$_ki@$00$0DIILFICEGDJAMKJO@@23@@jm@@QEAAQEADXZ 000000014000de10 f i utilities.obj
 0001:0000ce30       ??0?$xor_string@U?$tstring_@$MD0A@@detail@jm@@U?$_ki@$0A@$0FGELNIIFGEDAJMMF@@23@U?$_ki@$00$0DIILFICEGDJAMKJO@@23@@jm@@QEAA@XZ 000000014000de30 f i utilities.obj
 0001:0000ce50       ?crypt_get@?$xor_string@U?$tstring_@$M_W0FA@$M_W0EP@$M_W0FD@$M_W0FE@$M_W0A@@detail@jm@@U?$_ki@$0A@$0FGELNIIFGEDAJMMF@@23@U?$_ki@$00$0DIILFICEGDJAMKJO@@23@@jm@@QEAAQEA_WXZ 000000014000de50 f i utilities.obj
 0001:0000ce70       ??0?$xor_string@U?$tstring_@$M_W0FA@$M_W0EP@$M_W0FD@$M_W0FE@$M_W0A@@detail@jm@@U?$_ki@$0A@$0FGELNIIFGEDAJMMF@@23@U?$_ki@$00$0DIILFICEGDJAMKJO@@23@@jm@@QEAA@XZ 000000014000de70 f i utilities.obj
 0001:0000ce90       ?crypt_get@?$xor_string@U?$tstring_@$M_W0HE@$M_W0GF@$M_W0HI@$M_W0HE@$M_W0CP@$M_W0CK@$M_W0A@@detail@jm@@U?$_ki@$0A@$0FGELNIIFGEDAJMMF@@23@U?$_ki@$00$0DIILFICEGDJAMKJO@@23@@jm@@QEAAQEA_WXZ 000000014000de90 f i utilities.obj
 0001:0000ceb0       ??0?$xor_string@U?$tstring_@$M_W0HE@$M_W0GF@$M_W0HI@$M_W0HE@$M_W0CP@$M_W0CK@$M_W0A@@detail@jm@@U?$_ki@$0A@$0FGELNIIFGEDAJMMF@@23@U?$_ki@$00$0DIILFICEGDJAMKJO@@23@@jm@@QEAA@XZ 000000014000deb0 f i utilities.obj
 0001:0000ced0       ?crypt_get@?$xor_string@U?$tstring_@$MD0EM@$MD0GP@$MD0GB@$MD0GE@$MD0GF@$MD0HC@$MD0A@@detail@jm@@U?$_ki@$0A@$0FGELNIIFGEDAJMMF@@23@U?$_ki@$00$0DIILFICEGDJAMKJO@@23@@jm@@QEAAQEADXZ 000000014000ded0 f i utilities.obj
 0001:0000cef0       ??0?$xor_string@U?$tstring_@$MD0EM@$MD0GP@$MD0GB@$MD0GE@$MD0GF@$MD0HC@$MD0A@@detail@jm@@U?$_ki@$0A@$0FGELNIIFGEDAJMMF@@23@U?$_ki@$00$0DIILFICEGDJAMKJO@@23@@jm@@QEAA@XZ 000000014000def0 f i utilities.obj
 0001:0000cf10       ?crypt_get@?$xor_string@U?$tstring_@$MD0EF@$MD0HC@$MD0HC@$MD0GP@$MD0HC@$MD0CA@$MD0HD@$MD0GF@$MD0GO@$MD0GE@$MD0GJ@$MD0GO@$MD0GH@$MD0CA@$MD0GN@$MD0GF@$MD0HD@$MD0HD@$MD0GB@$MD0GH@$MD0GF@$MD0CA@$MD0HE@$MD0GP@$MD0CA@$MD0HD@$MD0GF@$MD0HC@$MD0HG@$MD0GF@$MD0HC@$MD0A@@detail@jm@@U?$_ki@$0A@$0FGELNIIFGEDAJMMF@@23@U?$_ki@$00$0DIILFICEGDJAMKJO@@23@U?$_ki@$01$0HDEJOBALFGABNLNP@@23@U?$_ki@$02$0DIHBIPDCOBOGOMAA@@23@@jm@@QEAAQEADXZ 000000014000df10 f i utilities.obj
 0001:0000cf30       ??0?$xor_string@U?$tstring_@$MD0EF@$MD0HC@$MD0HC@$MD0GP@$MD0HC@$MD0CA@$MD0HD@$MD0GF@$MD0GO@$MD0GE@$MD0GJ@$MD0GO@$MD0GH@$MD0CA@$MD0GN@$MD0GF@$MD0HD@$MD0HD@$MD0GB@$MD0GH@$MD0GF@$MD0CA@$MD0HE@$MD0GP@$MD0CA@$MD0HD@$MD0GF@$MD0HC@$MD0HG@$MD0GF@$MD0HC@$MD0A@@detail@jm@@U?$_ki@$0A@$0FGELNIIFGEDAJMMF@@23@U?$_ki@$00$0DIILFICEGDJAMKJO@@23@U?$_ki@$01$0HDEJOBALFGABNLNP@@23@U?$_ki@$02$0DIHBIPDCOBOGOMAA@@23@@jm@@QEAA@XZ 000000014000df30 f i utilities.obj
 0001:0000cf50       ?crypt_get@?$xor_string@U?$tstring_@$M_W0FF@$M_W0HD@$M_W0GF@$M_W0HC@$M_W0CN@$M_W0EB@$M_W0GH@$M_W0GF@$M_W0GO@$M_W0HE@$M_W0DK@$M_W0CA@$M_W0EN@$M_W0GP@$M_W0HK@$M_W0GJ@$M_W0GM@$M_W0GM@$M_W0GB@$M_W0CP@$M_W0DF@$M_W0CO@$M_W0DA@$M_W0CA@$M_W0CI@$M_W0FI@$M_W0DB@$M_W0DB@$M_W0DL@$M_W0CA@$M_W0EM@$M_W0GJ@$M_W0GO@$M_W0HF@$M_W0HI@$M_W0CA@$M_W0HI@$M_W0DI@$M_W0DG@$M_W0FP@$M_W0DG@$M_W0DE@$M_W0CJ@$M_W0CA@$M_W0EB@$M_W0HA@$M_W0HA@$M_W0GM@$M_W0GF@$M_W0FH@$M_W0GF@$M_W0GC@$M_W0EL@$M_W0GJ@$M_W0HE@$M_W0CP@$M_W0DF@$M_W0DD@$M_W0DH@$M_W0CO@$M_W0DD@$M_W0DG@$M_W0CA@$M_W0CI@$M_W0EL@$M_W0EI@$M_W0FE@$M_W0EN@$M_W0EM@$M_W0CM@$M_W0CA@$M_W0GM@$M_W0GJ@$M_W0GL@$M_W0GF@$M_W0CA@$M_W0EH@$M_W0GF@$M_W0GD@$M_W0GL@$M_W0GP@$M_W0CJ@$M_W0CA@$M_W0ED@$M_W0GI@$M_W0HC@$M_W0GP@$M_W0GN@$M_W0GF@$M_W0CP@$M_W0DF@$M_W0DB@$M_W0CO@$M_W0DA@$M_W0CO@$M_W0DC@$M_W0DH@$M_W0DA@$M_W0DE@$M_W0CO@$M_W0DB@$M_W0DA@$M_W0DD@$M_W0CA@$M_W0FD@$M_W0GB@$M_W0GG@$M_W0GB@$M_W0HC@$M_W0GJ@$M_W0CP@$M_W0DF@$M_W0DD@$M_W0DH@$M_W0CO@$M_W0DD@$M_W0DG@$M_W0A@@detail@jm@@U?$_ki@$0A@$0FGELNIIFGEDAJMMF@@23@U?$_ki@$00$0DIILFICEGDJAMKJO@@23@U?$_ki@$01$0HDEJOBALFGABNLNP@@23@U?$_ki@$02$0DIHBIPDCOBOGOMAA@@23@U?$_ki@$03$0?FMGNNDKGMCFHANHH@@23@U?$_ki@$04$0FGMEFHEIHNMGKDLC@@23@U?$_ki@$05$0FIJLAGBPDFGNAJHD@@23@U?$_ki@$06$0BDEFKKNGEFMCLNFE@@23@U?$_ki@$07$0?HOKKFLCCNJABNIPD@@23@U?$_ki@$08$0?BCEEAHODMONCEPLK@@23@U?$_ki@$09$0?GLEDPMPMJAEHFKFJ@@23@U?$_ki@$0L@$0?GPEBBKBFJCOPEHNI@@23@U?$_ki@$0M@$0?CMLGNBKOJMAJKICP@@23@U?$_ki@$0N@$0DBBLBKGALCPFPAJK@@23@U?$_ki@$0O@$0HOBLCAJHLDDGNKHL@@23@U?$_ki@$0P@$0HCCFHNCODDPMNIDM@@23@U?$_ki@$0BA@$0BOLCDODFNBHJAENF@@23@U?$_ki@$0BB@$0BHALGGFELOCNMOKO@@23@U?$_ki@$0BC@$0CFJALODLFJOOKKOP@@23@U?$_ki@$0BD@$0BFGGOJOCLOOIBLJA@@23@U?$_ki@$0BE@$0?DGMNFAPGEIILHDOH@@23@U?$_ki@$0BF@$0DFEEGFHILFJBLOEC@@23@U?$_ki@$0BG@$0?EDDBFHLAMFGEAFHN@@23@U?$_ki@$0BH@$0?PMEPKHJJBMICMJM@@23@U?$_ki@$0BI@$0DDJMICANENOLENJN@@23@U?$_ki@$0BJ@$0?GOHPJEDDJDHNMLCK@@23@U?$_ki@$0BK@$0EIEABELDFJBCCDLH@@23@U?$_ki@$0BL@$0EDAFMDBKNLICMBDI@@23@U?$_ki@$0BM@$0CDJICOIBHONMLHGB@@23@U?$_ki@$0BN@$0?BMJOAIGPCGBMOING@@23@@jm@@QEAAQEA_WXZ 000000014000df50 f i utilities.obj
 0001:0000cf70       ??0?$xor_string@U?$tstring_@$M_W0FF@$M_W0HD@$M_W0GF@$M_W0HC@$M_W0CN@$M_W0EB@$M_W0GH@$M_W0GF@$M_W0GO@$M_W0HE@$M_W0DK@$M_W0CA@$M_W0EN@$M_W0GP@$M_W0HK@$M_W0GJ@$M_W0GM@$M_W0GM@$M_W0GB@$M_W0CP@$M_W0DF@$M_W0CO@$M_W0DA@$M_W0CA@$M_W0CI@$M_W0FI@$M_W0DB@$M_W0DB@$M_W0DL@$M_W0CA@$M_W0EM@$M_W0GJ@$M_W0GO@$M_W0HF@$M_W0HI@$M_W0CA@$M_W0HI@$M_W0DI@$M_W0DG@$M_W0FP@$M_W0DG@$M_W0DE@$M_W0CJ@$M_W0CA@$M_W0EB@$M_W0HA@$M_W0HA@$M_W0GM@$M_W0GF@$M_W0FH@$M_W0GF@$M_W0GC@$M_W0EL@$M_W0GJ@$M_W0HE@$M_W0CP@$M_W0DF@$M_W0DD@$M_W0DH@$M_W0CO@$M_W0DD@$M_W0DG@$M_W0CA@$M_W0CI@$M_W0EL@$M_W0EI@$M_W0FE@$M_W0EN@$M_W0EM@$M_W0CM@$M_W0CA@$M_W0GM@$M_W0GJ@$M_W0GL@$M_W0GF@$M_W0CA@$M_W0EH@$M_W0GF@$M_W0GD@$M_W0GL@$M_W0GP@$M_W0CJ@$M_W0CA@$M_W0ED@$M_W0GI@$M_W0HC@$M_W0GP@$M_W0GN@$M_W0GF@$M_W0CP@$M_W0DF@$M_W0DB@$M_W0CO@$M_W0DA@$M_W0CO@$M_W0DC@$M_W0DH@$M_W0DA@$M_W0DE@$M_W0CO@$M_W0DB@$M_W0DA@$M_W0DD@$M_W0CA@$M_W0FD@$M_W0GB@$M_W0GG@$M_W0GB@$M_W0HC@$M_W0GJ@$M_W0CP@$M_W0DF@$M_W0DD@$M_W0DH@$M_W0CO@$M_W0DD@$M_W0DG@$M_W0A@@detail@jm@@U?$_ki@$0A@$0FGELNIIFGEDAJMMF@@23@U?$_ki@$00$0DIILFICEGDJAMKJO@@23@U?$_ki@$01$0HDEJOBALFGABNLNP@@23@U?$_ki@$02$0DIHBIPDCOBOGOMAA@@23@U?$_ki@$03$0?FMGNNDKGMCFHANHH@@23@U?$_ki@$04$0FGMEFHEIHNMGKDLC@@23@U?$_ki@$05$0FIJLAGBPDFGNAJHD@@23@U?$_ki@$06$0BDEFKKNGEFMCLNFE@@23@U?$_ki@$07$0?HOKKFLCCNJABNIPD@@23@U?$_ki@$08$0?BCEEAHODMONCEPLK@@23@U?$_ki@$09$0?GLEDPMPMJAEHFKFJ@@23@U?$_ki@$0L@$0?GPEBBKBFJCOPEHNI@@23@U?$_ki@$0M@$0?CMLGNBKOJMAJKICP@@23@U?$_ki@$0N@$0DBBLBKGALCPFPAJK@@23@U?$_ki@$0O@$0HOBLCAJHLDDGNKHL@@23@U?$_ki@$0P@$0HCCFHNCODDPMNIDM@@23@U?$_ki@$0BA@$0BOLCDODFNBHJAENF@@23@U?$_ki@$0BB@$0BHALGGFELOCNMOKO@@23@U?$_ki@$0BC@$0CFJALODLFJOOKKOP@@23@U?$_ki@$0BD@$0BFGGOJOCLOOIBLJA@@23@U?$_ki@$0BE@$0?DGMNFAPGEIILHDOH@@23@U?$_ki@$0BF@$0DFEEGFHILFJBLOEC@@23@U?$_ki@$0BG@$0?EDDBFHLAMFGEAFHN@@23@U?$_ki@$0BH@$0?PMEPKHJJBMICMJM@@23@U?$_ki@$0BI@$0DDJMICANENOLENJN@@23@U?$_ki@$0BJ@$0?GOHPJEDDJDHNMLCK@@23@U?$_ki@$0BK@$0EIEABELDFJBCCDLH@@23@U?$_ki@$0BL@$0EDAFMDBKNLICMBDI@@23@U?$_ki@$0BM@$0CDJICOIBHONMLHGB@@23@U?$_ki@$0BN@$0?BMJOAIGPCGBMOING@@23@@jm@@QEAA@XZ 000000014000df70 f i utilities.obj
 0001:0000cf90       ?push_back@?$vector@V?$basic_string@DU?$char_traits@D@std@@V?$allocator@D@2@@std@@V?$allocator@V?$basic_string@DU?$char_traits@D@std@@V?$allocator@D@2@@std@@@2@@std@@QEAAXAEBV?$basic_string@DU?$char_traits@D@std@@V?$allocator@D@2@@2@@Z 000000014000df90 f i utilities.obj
 0001:0000cfa0       ??$emplace_back@AEBV?$basic_string@DU?$char_traits@D@std@@V?$allocator@D@2@@std@@@?$vector@V?$basic_string@DU?$char_traits@D@std@@V?$allocator@D@2@@std@@V?$allocator@V?$basic_string@DU?$char_traits@D@std@@V?$allocator@D@2@@std@@@2@@std@@QEAAAEAV?$basic_string@DU?$char_traits@D@std@@V?$allocator@D@2@@1@AEBV21@@Z 000000014000dfa0 f i utilities.obj
 0001:0000cfe0       ??$_Emplace_back_with_unused_capacity@AEBV?$basic_string@DU?$char_traits@D@std@@V?$allocator@D@2@@std@@@?$vector@V?$basic_string@DU?$char_traits@D@std@@V?$allocator@D@2@@std@@V?$allocator@V?$basic_string@DU?$char_traits@D@std@@V?$allocator@D@2@@std@@@2@@std@@AEAAAEAV?$basic_string@DU?$char_traits@D@std@@V?$allocator@D@2@@1@AEBV21@@Z 000000014000dfe0 f i utilities.obj
 0001:0000d020       ??0?$uniform_int_distribution@_K@std@@QEAA@_K0@Z 000000014000e020 f i utilities.obj
 0001:0000d040       ??0?$mersenne_twister_engine@I$0CA@$0CHA@$0BIN@$0BP@$0JJAILANP@$0L@$0PPPPPPPP@$06$0JNCMFGIA@$0P@$0OPMGAAAA@$0BC@$0GMAHIJGF@@std@@QEAA@I@Z 000000014000e040 f i utilities.obj
 0001:0000d060       ?crypt_get@?$xor_string@U?$tstring_@$MD0DA@$MD0DB@$MD0DC@$MD0DD@$MD0DE@$MD0DF@$MD0DG@$MD0DH@$MD0DI@$MD0DJ@$MD0GB@$MD0GC@$MD0GD@$MD0GE@$MD0GF@$MD0GG@$MD0GH@$MD0GI@$MD0GJ@$MD0GK@$MD0GL@$MD0GM@$MD0GN@$MD0GO@$MD0GP@$MD0HA@$MD0HB@$MD0HC@$MD0HD@$MD0HE@$MD0HF@$MD0HG@$MD0HH@$MD0HI@$MD0HJ@$MD0HK@$MD0EB@$MD0EC@$MD0ED@$MD0EE@$MD0EF@$MD0EG@$MD0EH@$MD0EI@$MD0EJ@$MD0EK@$MD0EL@$MD0EM@$MD0EN@$MD0EO@$MD0EP@$MD0FA@$MD0FB@$MD0FC@$MD0FD@$MD0FE@$MD0FF@$MD0FG@$MD0FH@$MD0FI@$MD0FJ@$MD0FK@$MD0A@@detail@jm@@U?$_ki@$0A@$0FGELNIIFGEDAJMMF@@23@U?$_ki@$00$0DIILFICEGDJAMKJO@@23@U?$_ki@$01$0HDEJOBALFGABNLNP@@23@U?$_ki@$02$0DIHBIPDCOBOGOMAA@@23@U?$_ki@$03$0?FMGNNDKGMCFHANHH@@23@U?$_ki@$04$0FGMEFHEIHNMGKDLC@@23@U?$_ki@$05$0FIJLAGBPDFGNAJHD@@23@U?$_ki@$06$0BDEFKKNGEFMCLNFE@@23@@jm@@QEAAQEADXZ 000000014000e060 f i utilities.obj
 0001:0000d080       ??0?$xor_string@U?$tstring_@$MD0DA@$MD0DB@$MD0DC@$MD0DD@$MD0DE@$MD0DF@$MD0DG@$MD0DH@$MD0DI@$MD0DJ@$MD0GB@$MD0GC@$MD0GD@$MD0GE@$MD0GF@$MD0GG@$MD0GH@$MD0GI@$MD0GJ@$MD0GK@$MD0GL@$MD0GM@$MD0GN@$MD0GO@$MD0GP@$MD0HA@$MD0HB@$MD0HC@$MD0HD@$MD0HE@$MD0HF@$MD0HG@$MD0HH@$MD0HI@$MD0HJ@$MD0HK@$MD0EB@$MD0EC@$MD0ED@$MD0EE@$MD0EF@$MD0EG@$MD0EH@$MD0EI@$MD0EJ@$MD0EK@$MD0EL@$MD0EM@$MD0EN@$MD0EO@$MD0EP@$MD0FA@$MD0FB@$MD0FC@$MD0FD@$MD0FE@$MD0FF@$MD0FG@$MD0FH@$MD0FI@$MD0FJ@$MD0FK@$MD0A@@detail@jm@@U?$_ki@$0A@$0FGELNIIFGEDAJMMF@@23@U?$_ki@$00$0DIILFICEGDJAMKJO@@23@U?$_ki@$01$0HDEJOBALFGABNLNP@@23@U?$_ki@$02$0DIHBIPDCOBOGOMAA@@23@U?$_ki@$03$0?FMGNNDKGMCFHANHH@@23@U?$_ki@$04$0FGMEFHEIHNMGKDLC@@23@U?$_ki@$05$0FIJLAGBPDFGNAJHD@@23@U?$_ki@$06$0BDEFKKNGEFMCLNFE@@23@@jm@@QEAA@XZ 000000014000e080 f i utilities.obj
 0001:0000d0a0       ?c_str@?$basic_string@_WU?$char_traits@_W@std@@V?$allocator@_W@2@@std@@QEBAPEB_WXZ 000000014000e0a0 f i utilities.obj
 0001:0000d0b0       ??Y?$basic_string@_WU?$char_traits@_W@std@@V?$allocator@_W@2@@std@@QEAAAEAV01@_W@Z 000000014000e0b0 f i utilities.obj
 0001:0000d0d0       ??1?$basic_string@_WU?$char_traits@_W@std@@V?$allocator@_W@2@@std@@QEAA@XZ 000000014000e0d0 f i utilities.obj
 0001:0000d0e0       ??0?$basic_string@_WU?$char_traits@_W@std@@V?$allocator@_W@2@@std@@QEAA@XZ 000000014000e0e0 f i utilities.obj
 0001:0000d110       ?substr@?$basic_string@DU?$char_traits@D@std@@V?$allocator@D@2@@std@@QEBA?AV12@_K0@Z 000000014000e110 f i utilities.obj
 0001:0000d130       ?find@?$basic_string@DU?$char_traits@D@std@@V?$allocator@D@2@@std@@QEBA_KAEBV12@_K@Z 000000014000e130 f i utilities.obj
 0001:0000d190       ?empty@?$basic_string@DU?$char_traits@D@std@@V?$allocator@D@2@@std@@QEBA_NXZ 000000014000e190 f i utilities.obj
 0001:0000d1b0       ?erase@?$basic_string@DU?$char_traits@D@std@@V?$allocator@D@2@@std@@QEAA?AV?$_String_iterator@V?$_String_val@U?$_Simple_types@D@std@@@std@@@2@V?$_String_const_iterator@V?$_String_val@U?$_Simple_types@D@std@@@std@@@2@0@Z 000000014000e1b0 f i utilities.obj
 0001:0000d230       ??0?$basic_string@DU?$char_traits@D@std@@V?$allocator@D@2@@std@@QEAA@QEBD_K@Z 000000014000e230 f i utilities.obj
 0001:0000d280       ?crypt@?$xor_string@U?$tstring_@$MD0EH@$MD0GF@$MD0HE@$MD0FE@$MD0GP@$MD0GL@$MD0GF@$MD0GO@$MD0EJ@$MD0GO@$MD0GG@$MD0GP@$MD0HC@$MD0GN@$MD0GB@$MD0HE@$MD0GJ@$MD0GP@$MD0GO@$MD0A@@detail@jm@@U?$_ki@$0A@$0FGELNIIFGEDAJMMF@@23@U?$_ki@$00$0DIILFICEGDJAMKJO@@23@U?$_ki@$01$0HDEJOBALFGABNLNP@@23@U?$_ki@$02$0DIHBIPDCOBOGOMAA@@23@@jm@@QEAAXXZ 000000014000e280 f i utilities.obj
 0001:0000d2f0       ?_copy@?$xor_string@U?$tstring_@$MD0EH@$MD0GF@$MD0HE@$MD0FE@$MD0GP@$MD0GL@$MD0GF@$MD0GO@$MD0EJ@$MD0GO@$MD0GG@$MD0GP@$MD0HC@$MD0GN@$MD0GB@$MD0HE@$MD0GJ@$MD0GP@$MD0GO@$MD0A@@detail@jm@@U?$_ki@$0A@$0FGELNIIFGEDAJMMF@@23@U?$_ki@$00$0DIILFICEGDJAMKJO@@23@U?$_ki@$01$0HDEJOBALFGABNLNP@@23@U?$_ki@$02$0DIHBIPDCOBOGOMAA@@23@@jm@@AEAAXXZ 000000014000e2f0 f i utilities.obj
 0001:0000d350       ?crypt@?$xor_string@U?$tstring_@$MD0EP@$MD0HA@$MD0GF@$MD0GO@$MD0FA@$MD0HC@$MD0GP@$MD0GD@$MD0GF@$MD0HD@$MD0HD@$MD0FE@$MD0GP@$MD0GL@$MD0GF@$MD0GO@$MD0A@@detail@jm@@U?$_ki@$0A@$0FGELNIIFGEDAJMMF@@23@U?$_ki@$00$0DIILFICEGDJAMKJO@@23@U?$_ki@$01$0HDEJOBALFGABNLNP@@23@U?$_ki@$02$0DIHBIPDCOBOGOMAA@@23@@jm@@QEAAXXZ 000000014000e350 f i utilities.obj
 0001:0000d3c0       ?_copy@?$xor_string@U?$tstring_@$MD0EP@$MD0HA@$MD0GF@$MD0GO@$MD0FA@$MD0HC@$MD0GP@$MD0GD@$MD0GF@$MD0HD@$MD0HD@$MD0FE@$MD0GP@$MD0GL@$MD0GF@$MD0GO@$MD0A@@detail@jm@@U?$_ki@$0A@$0FGELNIIFGEDAJMMF@@23@U?$_ki@$00$0DIILFICEGDJAMKJO@@23@U?$_ki@$01$0HDEJOBALFGABNLNP@@23@U?$_ki@$02$0DIHBIPDCOBOGOMAA@@23@@jm@@AEAAXXZ 000000014000e3c0 f i utilities.obj
 0001:0000d420       ?crypt@?$xor_string@U?$tstring_@$MD0GB@$MD0GE@$MD0HG@$MD0GB@$MD0HA@$MD0GJ@$MD0DD@$MD0DC@$MD0CO@$MD0GE@$MD0GM@$MD0GM@$MD0A@@detail@jm@@U?$_ki@$0A@$0FGELNIIFGEDAJMMF@@23@U?$_ki@$00$0DIILFICEGDJAMKJO@@23@@jm@@QEAAXXZ 000000014000e420 f i utilities.obj
 0001:0000d480       ?_copy@?$xor_string@U?$tstring_@$MD0GB@$MD0GE@$MD0HG@$MD0GB@$MD0HA@$MD0GJ@$MD0DD@$MD0DC@$MD0CO@$MD0GE@$MD0GM@$MD0GM@$MD0A@@detail@jm@@U?$_ki@$0A@$0FGELNIIFGEDAJMMF@@23@U?$_ki@$00$0DIILFICEGDJAMKJO@@23@@jm@@AEAAXXZ 000000014000e480 f i utilities.obj
 0001:0000d4c0       ?crypt@?$xor_string@U?$tstring_@$MD0FM@$MD0FM@$MD0CO@$MD0FM@$MD0FA@$MD0GI@$MD0HJ@$MD0HD@$MD0GJ@$MD0GD@$MD0GB@$MD0GM@$MD0EE@$MD0HC@$MD0GJ@$MD0HG@$MD0GF@$MD0DA@$MD0A@@detail@jm@@U?$_ki@$0A@$0FGELNIIFGEDAJMMF@@23@U?$_ki@$00$0DIILFICEGDJAMKJO@@23@U?$_ki@$01$0HDEJOBALFGABNLNP@@23@U?$_ki@$02$0DIHBIPDCOBOGOMAA@@23@@jm@@QEAAXXZ 000000014000e4c0 f i utilities.obj
 0001:0000d530       ?_copy@?$xor_string@U?$tstring_@$MD0FM@$MD0FM@$MD0CO@$MD0FM@$MD0FA@$MD0GI@$MD0HJ@$MD0HD@$MD0GJ@$MD0GD@$MD0GB@$MD0GM@$MD0EE@$MD0HC@$MD0GJ@$MD0HG@$MD0GF@$MD0DA@$MD0A@@detail@jm@@U?$_ki@$0A@$0FGELNIIFGEDAJMMF@@23@U?$_ki@$00$0DIILFICEGDJAMKJO@@23@U?$_ki@$01$0HDEJOBALFGABNLNP@@23@U?$_ki@$02$0DIHBIPDCOBOGOMAA@@23@@jm@@AEAAXXZ 000000014000e530 f i utilities.obj
 0001:0000d590       ?crypt@?$xor_string@U?$tstring_@$MD0A@@detail@jm@@U?$_ki@$0A@$0FGELNIIFGEDAJMMF@@23@U?$_ki@$00$0DIILFICEGDJAMKJO@@23@@jm@@QEAAXXZ 000000014000e590 f i utilities.obj
 0001:0000d5f0       ?_copy@?$xor_string@U?$tstring_@$MD0A@@detail@jm@@U?$_ki@$0A@$0FGELNIIFGEDAJMMF@@23@U?$_ki@$00$0DIILFICEGDJAMKJO@@23@@jm@@AEAAXXZ 000000014000e5f0 f i utilities.obj
 0001:0000d630       ?crypt@?$xor_string@U?$tstring_@$M_W0FA@$M_W0EP@$M_W0FD@$M_W0FE@$M_W0A@@detail@jm@@U?$_ki@$0A@$0FGELNIIFGEDAJMMF@@23@U?$_ki@$00$0DIILFICEGDJAMKJO@@23@@jm@@QEAAXXZ 000000014000e630 f i utilities.obj
 0001:0000d690       ?_copy@?$xor_string@U?$tstring_@$M_W0FA@$M_W0EP@$M_W0FD@$M_W0FE@$M_W0A@@detail@jm@@U?$_ki@$0A@$0FGELNIIFGEDAJMMF@@23@U?$_ki@$00$0DIILFICEGDJAMKJO@@23@@jm@@AEAAXXZ 000000014000e690 f i utilities.obj
 0001:0000d6d0       ?crypt@?$xor_string@U?$tstring_@$M_W0HE@$M_W0GF@$M_W0HI@$M_W0HE@$M_W0CP@$M_W0CK@$M_W0A@@detail@jm@@U?$_ki@$0A@$0FGELNIIFGEDAJMMF@@23@U?$_ki@$00$0DIILFICEGDJAMKJO@@23@@jm@@QEAAXXZ 000000014000e6d0 f i utilities.obj
 0001:0000d730       ?_copy@?$xor_string@U?$tstring_@$M_W0HE@$M_W0GF@$M_W0HI@$M_W0HE@$M_W0CP@$M_W0CK@$M_W0A@@detail@jm@@U?$_ki@$0A@$0FGELNIIFGEDAJMMF@@23@U?$_ki@$00$0DIILFICEGDJAMKJO@@23@@jm@@AEAAXXZ 000000014000e730 f i utilities.obj
 0001:0000d770       ?crypt@?$xor_string@U?$tstring_@$MD0EM@$MD0GP@$MD0GB@$MD0GE@$MD0GF@$MD0HC@$MD0A@@detail@jm@@U?$_ki@$0A@$0FGELNIIFGEDAJMMF@@23@U?$_ki@$00$0DIILFICEGDJAMKJO@@23@@jm@@QEAAXXZ 000000014000e770 f i utilities.obj
 0001:0000d7d0       ?_copy@?$xor_string@U?$tstring_@$MD0EM@$MD0GP@$MD0GB@$MD0GE@$MD0GF@$MD0HC@$MD0A@@detail@jm@@U?$_ki@$0A@$0FGELNIIFGEDAJMMF@@23@U?$_ki@$00$0DIILFICEGDJAMKJO@@23@@jm@@AEAAXXZ 000000014000e7d0 f i utilities.obj
 0001:0000d810       ?crypt@?$xor_string@U?$tstring_@$MD0EF@$MD0HC@$MD0HC@$MD0GP@$MD0HC@$MD0CA@$MD0HD@$MD0GF@$MD0GO@$MD0GE@$MD0GJ@$MD0GO@$MD0GH@$MD0CA@$MD0GN@$MD0GF@$MD0HD@$MD0HD@$MD0GB@$MD0GH@$MD0GF@$MD0CA@$MD0HE@$MD0GP@$MD0CA@$MD0HD@$MD0GF@$MD0HC@$MD0HG@$MD0GF@$MD0HC@$MD0A@@detail@jm@@U?$_ki@$0A@$0FGELNIIFGEDAJMMF@@23@U?$_ki@$00$0DIILFICEGDJAMKJO@@23@U?$_ki@$01$0HDEJOBALFGABNLNP@@23@U?$_ki@$02$0DIHBIPDCOBOGOMAA@@23@@jm@@QEAAXXZ 000000014000e810 f i utilities.obj
 0001:0000d880       ?_copy@?$xor_string@U?$tstring_@$MD0EF@$MD0HC@$MD0HC@$MD0GP@$MD0HC@$MD0CA@$MD0HD@$MD0GF@$MD0GO@$MD0GE@$MD0GJ@$MD0GO@$MD0GH@$MD0CA@$MD0GN@$MD0GF@$MD0HD@$MD0HD@$MD0GB@$MD0GH@$MD0GF@$MD0CA@$MD0HE@$MD0GP@$MD0CA@$MD0HD@$MD0GF@$MD0HC@$MD0HG@$MD0GF@$MD0HC@$MD0A@@detail@jm@@U?$_ki@$0A@$0FGELNIIFGEDAJMMF@@23@U?$_ki@$00$0DIILFICEGDJAMKJO@@23@U?$_ki@$01$0HDEJOBALFGABNLNP@@23@U?$_ki@$02$0DIHBIPDCOBOGOMAA@@23@@jm@@AEAAXXZ 000000014000e880 f i utilities.obj
 0001:0000d8e0       ?crypt@?$xor_string@U?$tstring_@$M_W0FF@$M_W0HD@$M_W0GF@$M_W0HC@$M_W0CN@$M_W0EB@$M_W0GH@$M_W0GF@$M_W0GO@$M_W0HE@$M_W0DK@$M_W0CA@$M_W0EN@$M_W0GP@$M_W0HK@$M_W0GJ@$M_W0GM@$M_W0GM@$M_W0GB@$M_W0CP@$M_W0DF@$M_W0CO@$M_W0DA@$M_W0CA@$M_W0CI@$M_W0FI@$M_W0DB@$M_W0DB@$M_W0DL@$M_W0CA@$M_W0EM@$M_W0GJ@$M_W0GO@$M_W0HF@$M_W0HI@$M_W0CA@$M_W0HI@$M_W0DI@$M_W0DG@$M_W0FP@$M_W0DG@$M_W0DE@$M_W0CJ@$M_W0CA@$M_W0EB@$M_W0HA@$M_W0HA@$M_W0GM@$M_W0GF@$M_W0FH@$M_W0GF@$M_W0GC@$M_W0EL@$M_W0GJ@$M_W0HE@$M_W0CP@$M_W0DF@$M_W0DD@$M_W0DH@$M_W0CO@$M_W0DD@$M_W0DG@$M_W0CA@$M_W0CI@$M_W0EL@$M_W0EI@$M_W0FE@$M_W0EN@$M_W0EM@$M_W0CM@$M_W0CA@$M_W0GM@$M_W0GJ@$M_W0GL@$M_W0GF@$M_W0CA@$M_W0EH@$M_W0GF@$M_W0GD@$M_W0GL@$M_W0GP@$M_W0CJ@$M_W0CA@$M_W0ED@$M_W0GI@$M_W0HC@$M_W0GP@$M_W0GN@$M_W0GF@$M_W0CP@$M_W0DF@$M_W0DB@$M_W0CO@$M_W0DA@$M_W0CO@$M_W0DC@$M_W0DH@$M_W0DA@$M_W0DE@$M_W0CO@$M_W0DB@$M_W0DA@$M_W0DD@$M_W0CA@$M_W0FD@$M_W0GB@$M_W0GG@$M_W0GB@$M_W0HC@$M_W0GJ@$M_W0CP@$M_W0DF@$M_W0DD@$M_W0DH@$M_W0CO@$M_W0DD@$M_W0DG@$M_W0A@@detail@jm@@U?$_ki@$0A@$0FGELNIIFGEDAJMMF@@23@U?$_ki@$00$0DIILFICEGDJAMKJO@@23@U?$_ki@$01$0HDEJOBALFGABNLNP@@23@U?$_ki@$02$0DIHBIPDCOBOGOMAA@@23@U?$_ki@$03$0?FMGNNDKGMCFHANHH@@23@U?$_ki@$04$0FGMEFHEIHNMGKDLC@@23@U?$_ki@$05$0FIJLAGBPDFGNAJHD@@23@U?$_ki@$06$0BDEFKKNGEFMCLNFE@@23@U?$_ki@$07$0?HOKKFLCCNJABNIPD@@23@U?$_ki@$08$0?BCEEAHODMONCEPLK@@23@U?$_ki@$09$0?GLEDPMPMJAEHFKFJ@@23@U?$_ki@$0L@$0?GPEBBKBFJCOPEHNI@@23@U?$_ki@$0M@$0?CMLGNBKOJMAJKICP@@23@U?$_ki@$0N@$0DBBLBKGALCPFPAJK@@23@U?$_ki@$0O@$0HOBLCAJHLDDGNKHL@@23@U?$_ki@$0P@$0HCCFHNCODDPMNIDM@@23@U?$_ki@$0BA@$0BOLCDODFNBHJAENF@@23@U?$_ki@$0BB@$0BHALGGFELOCNMOKO@@23@U?$_ki@$0BC@$0CFJALODLFJOOKKOP@@23@U?$_ki@$0BD@$0BFGGOJOCLOOIBLJA@@23@U?$_ki@$0BE@$0?DGMNFAPGEIILHDOH@@23@U?$_ki@$0BF@$0DFEEGFHILFJBLOEC@@23@U?$_ki@$0BG@$0?EDDBFHLAMFGEAFHN@@23@U?$_ki@$0BH@$0?PMEPKHJJBMICMJM@@23@U?$_ki@$0BI@$0DDJMICANENOLENJN@@23@U?$_ki@$0BJ@$0?GOHPJEDDJDHNMLCK@@23@U?$_ki@$0BK@$0EIEABELDFJBCCDLH@@23@U?$_ki@$0BL@$0EDAFMDBKNLICMBDI@@23@U?$_ki@$0BM@$0CDJICOIBHONMLHGB@@23@U?$_ki@$0BN@$0?BMJOAIGPCGBMOING@@23@@jm@@QEAAXXZ 000000014000e8e0 f i utilities.obj
 0001:0000dae0       ?_copy@?$xor_string@U?$tstring_@$M_W0FF@$M_W0HD@$M_W0GF@$M_W0HC@$M_W0CN@$M_W0EB@$M_W0GH@$M_W0GF@$M_W0GO@$M_W0HE@$M_W0DK@$M_W0CA@$M_W0EN@$M_W0GP@$M_W0HK@$M_W0GJ@$M_W0GM@$M_W0GM@$M_W0GB@$M_W0CP@$M_W0DF@$M_W0CO@$M_W0DA@$M_W0CA@$M_W0CI@$M_W0FI@$M_W0DB@$M_W0DB@$M_W0DL@$M_W0CA@$M_W0EM@$M_W0GJ@$M_W0GO@$M_W0HF@$M_W0HI@$M_W0CA@$M_W0HI@$M_W0DI@$M_W0DG@$M_W0FP@$M_W0DG@$M_W0DE@$M_W0CJ@$M_W0CA@$M_W0EB@$M_W0HA@$M_W0HA@$M_W0GM@$M_W0GF@$M_W0FH@$M_W0GF@$M_W0GC@$M_W0EL@$M_W0GJ@$M_W0HE@$M_W0CP@$M_W0DF@$M_W0DD@$M_W0DH@$M_W0CO@$M_W0DD@$M_W0DG@$M_W0CA@$M_W0CI@$M_W0EL@$M_W0EI@$M_W0FE@$M_W0EN@$M_W0EM@$M_W0CM@$M_W0CA@$M_W0GM@$M_W0GJ@$M_W0GL@$M_W0GF@$M_W0CA@$M_W0EH@$M_W0GF@$M_W0GD@$M_W0GL@$M_W0GP@$M_W0CJ@$M_W0CA@$M_W0ED@$M_W0GI@$M_W0HC@$M_W0GP@$M_W0GN@$M_W0GF@$M_W0CP@$M_W0DF@$M_W0DB@$M_W0CO@$M_W0DA@$M_W0CO@$M_W0DC@$M_W0DH@$M_W0DA@$M_W0DE@$M_W0CO@$M_W0DB@$M_W0DA@$M_W0DD@$M_W0CA@$M_W0FD@$M_W0GB@$M_W0GG@$M_W0GB@$M_W0HC@$M_W0GJ@$M_W0CP@$M_W0DF@$M_W0DD@$M_W0DH@$M_W0CO@$M_W0DD@$M_W0DG@$M_W0A@@detail@jm@@U?$_ki@$0A@$0FGELNIIFGEDAJMMF@@23@U?$_ki@$00$0DIILFICEGDJAMKJO@@23@U?$_ki@$01$0HDEJOBALFGABNLNP@@23@U?$_ki@$02$0DIHBIPDCOBOGOMAA@@23@U?$_ki@$03$0?FMGNNDKGMCFHANHH@@23@U?$_ki@$04$0FGMEFHEIHNMGKDLC@@23@U?$_ki@$05$0FIJLAGBPDFGNAJHD@@23@U?$_ki@$06$0BDEFKKNGEFMCLNFE@@23@U?$_ki@$07$0?HOKKFLCCNJABNIPD@@23@U?$_ki@$08$0?BCEEAHODMONCEPLK@@23@U?$_ki@$09$0?GLEDPMPMJAEHFKFJ@@23@U?$_ki@$0L@$0?GPEBBKBFJCOPEHNI@@23@U?$_ki@$0M@$0?CMLGNBKOJMAJKICP@@23@U?$_ki@$0N@$0DBBLBKGALCPFPAJK@@23@U?$_ki@$0O@$0HOBLCAJHLDDGNKHL@@23@U?$_ki@$0P@$0HCCFHNCODDPMNIDM@@23@U?$_ki@$0BA@$0BOLCDODFNBHJAENF@@23@U?$_ki@$0BB@$0BHALGGFELOCNMOKO@@23@U?$_ki@$0BC@$0CFJALODLFJOOKKOP@@23@U?$_ki@$0BD@$0BFGGOJOCLOOIBLJA@@23@U?$_ki@$0BE@$0?DGMNFAPGEIILHDOH@@23@U?$_ki@$0BF@$0DFEEGFHILFJBLOEC@@23@U?$_ki@$0BG@$0?EDDBFHLAMFGEAFHN@@23@U?$_ki@$0BH@$0?PMEPKHJJBMICMJM@@23@U?$_ki@$0BI@$0DDJMICANENOLENJN@@23@U?$_ki@$0BJ@$0?GOHPJEDDJDHNMLCK@@23@U?$_ki@$0BK@$0EIEABELDFJBCCDLH@@23@U?$_ki@$0BL@$0EDAFMDBKNLICMBDI@@23@U?$_ki@$0BM@$0CDJICOIBHONMLHGB@@23@U?$_ki@$0BN@$0?BMJOAIGPCGBMOING@@23@@jm@@AEAAXXZ 000000014000eae0 f i utilities.obj
 0001:0000dd10       ??0?$uniform_int@_K@std@@QEAA@_K0@Z 000000014000ed10 f i utilities.obj
 0001:0000dd30       ??0?$mersenne_twister@I$0CA@$0CHA@$0BIN@$0BP@$0JJAILANP@$0L@$06$0JNCMFGIA@$0P@$0OPMGAAAA@$0BC@@std@@QEAA@III@Z 000000014000ed30 f i utilities.obj
 0001:0000dd50       ?crypt@?$xor_string@U?$tstring_@$MD0DA@$MD0DB@$MD0DC@$MD0DD@$MD0DE@$MD0DF@$MD0DG@$MD0DH@$MD0DI@$MD0DJ@$MD0GB@$MD0GC@$MD0GD@$MD0GE@$MD0GF@$MD0GG@$MD0GH@$MD0GI@$MD0GJ@$MD0GK@$MD0GL@$MD0GM@$MD0GN@$MD0GO@$MD0GP@$MD0HA@$MD0HB@$MD0HC@$MD0HD@$MD0HE@$MD0HF@$MD0HG@$MD0HH@$MD0HI@$MD0HJ@$MD0HK@$MD0EB@$MD0EC@$MD0ED@$MD0EE@$MD0EF@$MD0EG@$MD0EH@$MD0EI@$MD0EJ@$MD0EK@$MD0EL@$MD0EM@$MD0EN@$MD0EO@$MD0EP@$MD0FA@$MD0FB@$MD0FC@$MD0FD@$MD0FE@$MD0FF@$MD0FG@$MD0FH@$MD0FI@$MD0FJ@$MD0FK@$MD0A@@detail@jm@@U?$_ki@$0A@$0FGELNIIFGEDAJMMF@@23@U?$_ki@$00$0DIILFICEGDJAMKJO@@23@U?$_ki@$01$0HDEJOBALFGABNLNP@@23@U?$_ki@$02$0DIHBIPDCOBOGOMAA@@23@U?$_ki@$03$0?FMGNNDKGMCFHANHH@@23@U?$_ki@$04$0FGMEFHEIHNMGKDLC@@23@U?$_ki@$05$0FIJLAGBPDFGNAJHD@@23@U?$_ki@$06$0BDEFKKNGEFMCLNFE@@23@@jm@@QEAAXXZ 000000014000ed50 f i utilities.obj
 0001:0000de00       ?_copy@?$xor_string@U?$tstring_@$MD0DA@$MD0DB@$MD0DC@$MD0DD@$MD0DE@$MD0DF@$MD0DG@$MD0DH@$MD0DI@$MD0DJ@$MD0GB@$MD0GC@$MD0GD@$MD0GE@$MD0GF@$MD0GG@$MD0GH@$MD0GI@$MD0GJ@$MD0GK@$MD0GL@$MD0GM@$MD0GN@$MD0GO@$MD0GP@$MD0HA@$MD0HB@$MD0HC@$MD0HD@$MD0HE@$MD0HF@$MD0HG@$MD0HH@$MD0HI@$MD0HJ@$MD0HK@$MD0EB@$MD0EC@$MD0ED@$MD0EE@$MD0EF@$MD0EG@$MD0EH@$MD0EI@$MD0EJ@$MD0EK@$MD0EL@$MD0EM@$MD0EN@$MD0EO@$MD0EP@$MD0FA@$MD0FB@$MD0FC@$MD0FD@$MD0FE@$MD0FF@$MD0FG@$MD0FH@$MD0FI@$MD0FJ@$MD0FK@$MD0A@@detail@jm@@U?$_ki@$0A@$0FGELNIIFGEDAJMMF@@23@U?$_ki@$00$0DIILFICEGDJAMKJO@@23@U?$_ki@$01$0HDEJOBALFGABNLNP@@23@U?$_ki@$02$0DIHBIPDCOBOGOMAA@@23@U?$_ki@$03$0?FMGNNDKGMCFHANHH@@23@U?$_ki@$04$0FGMEFHEIHNMGKDLC@@23@U?$_ki@$05$0FIJLAGBPDFGNAJHD@@23@U?$_ki@$06$0BDEFKKNGEFMCLNFE@@23@@jm@@AEAAXXZ 000000014000ee00 f i utilities.obj
 0001:0000de90       ?_Tidy_deallocate@?$basic_string@_WU?$char_traits@_W@std@@V?$allocator@_W@2@@std@@AEAAXXZ 000000014000ee90 f i utilities.obj
 0001:0000def0       ?_Tidy_init@?$basic_string@_WU?$char_traits@_W@std@@V?$allocator@_W@2@@std@@AEAAXXZ 000000014000eef0 f i utilities.obj
 0001:0000df20       ?push_back@?$basic_string@_WU?$char_traits@_W@std@@V?$allocator@_W@2@@std@@QEAAX_W@Z 000000014000ef20 f i utilities.obj
 0001:0000df80       ??R<lambda_25953b27f3c43b57ba59f021c7f225c5>@@QEBAXQEA_WQEB_W_K_W@Z 000000014000ef80 f i utilities.obj
 0001:0000dfe0       ?_Myptr@?$_String_val@U?$_Simple_types@_W@std@@@std@@QEAAPEA_WXZ 000000014000efe0 f i utilities.obj
 0001:0000dfe0       ?_Myptr@?$_String_val@U?$_Simple_types@_W@std@@@std@@QEBAPEB_WXZ 000000014000efe0 f i utilities.obj
 0001:0000e010       ?erase@?$basic_string@DU?$char_traits@D@std@@V?$allocator@D@2@@std@@QEAAAEAV12@_K_K@Z 000000014000f010 f i utilities.obj
 0001:0000e080       ??0?$basic_string@DU?$char_traits@D@std@@V?$allocator@D@2@@std@@QEAA@AEBV01@_K1AEBV?$allocator@D@1@@Z 000000014000f080 f i utilities.obj
 0001:0000e0e0       ??0param_type@?$uniform_int@_K@std@@QEAA@_K0@Z 000000014000f0e0 f i utilities.obj
 0001:0000e100       ?seed@?$mersenne_twister@I$0CA@$0CHA@$0BIN@$0BP@$0JJAILANP@$0L@$06$0JNCMFGIA@$0P@$0OPMGAAAA@$0BC@@std@@QEAAXII@Z 000000014000f100 f i utilities.obj
 0001:0000e140       ?_Large_string_engaged@?$_String_val@U?$_Simple_types@_W@std@@@std@@QEBA_NXZ 000000014000f140 f i utilities.obj
 0001:0000e150       ?deallocate@?$allocator@_W@std@@QEAAXQEA_W_K@Z 000000014000f150 f i utilities.obj
 0001:0000e160       ?assign@?$basic_string@DU?$char_traits@D@std@@V?$allocator@D@2@@std@@QEAAAEAV12@AEBV12@_K_K@Z 000000014000f160 f i utilities.obj
 0001:0000e1d0       ?_Clamp_suffix_size@?$_String_val@U?$_Simple_types@D@std@@@std@@QEBA_K_K0@Z 000000014000f1d0 f i utilities.obj
 0001:0000e200       ?assign@?$_WChar_traits@_W@std@@SAXAEA_WAEB_W@Z 000000014000f200 f i utilities.obj
 0001:0000e210       ?copy@?$_WChar_traits@_W@std@@SAPEA_WQEA_WQEB_W_K@Z 000000014000f210 f i utilities.obj
 0001:0000e220       ?_Init@param_type@?$uniform_int@_K@std@@QEAAX_K0@Z 000000014000f220 f i utilities.obj
 0001:0000e230       ??$?RV?$mersenne_twister_engine@I$0CA@$0CHA@$0BIN@$0BP@$0JJAILANP@$0L@$0PPPPPPPP@$06$0JNCMFGIA@$0P@$0OPMGAAAA@$0BC@$0GMAHIJGF@@std@@@?$uniform_int@_K@std@@QEBA_KAEAV?$mersenne_twister_engine@I$0CA@$0CHA@$0BIN@$0BP@$0JJAILANP@$0L@$0PPPPPPPP@$06$0JNCMFGIA@$0P@$0OPMGAAAA@$0BC@$0GMAHIJGF@@1@@Z 000000014000f230 f i utilities.obj
 0001:0000e2f0       ??$_Get_unwrapped@AEAV?$_String_iterator@V?$_String_val@U?$_Simple_types@D@std@@@std@@@std@@@std@@YAPEADAEAV?$_String_iterator@V?$_String_val@U?$_Simple_types@D@std@@@std@@@0@@Z 000000014000f2f0 f i utilities.obj
 0001:0000e2f0       ??$_Get_unwrapped@AEBV?$_String_iterator@V?$_String_val@U?$_Simple_types@D@std@@@std@@@std@@@std@@YAPEADAEBV?$_String_iterator@V?$_String_val@U?$_Simple_types@D@std@@@std@@@0@@Z 000000014000f2f0 f i utilities.obj
 0001:0000e300       ??$get@P6APEAXPEAXPEB_WG11KK_K@ZUunsafe_module_enumerator@detail@li@@@?$lazy_function@$0KOBOMPBP@P6APEAXPEAXPEB_WG11KK_K@Z@detail@li@@SAP6APEAXPEAXPEB_WG11KK_K@ZXZ 000000014000f300 f i utilities.obj
 0001:0000e3a0       ??$get@P6APEAXPEAXPEB_W111PEAPEB_WK_K@ZUunsafe_module_enumerator@detail@li@@@?$lazy_function@$0HIAAEODL@P6APEAXPEAXPEB_W111PEAPEB_WK_K@Z@detail@li@@SAP6APEAXPEAXPEB_W111PEAPEB_WK_K@ZXZ 000000014000f3a0 f i utilities.obj
 0001:0000e440       ??$get@P6AHPEAXPEB_WK0K@ZUunsafe_module_enumerator@detail@li@@@?$lazy_function@$0LANIJLGF@P6AHPEAXPEB_WK0K@Z@detail@li@@SAP6AHPEAXPEB_WK0K@ZXZ 000000014000f440 f i utilities.obj
 0001:0000e4e0       ??$get@P6AHPEAX0KPEAK@ZUunsafe_module_enumerator@detail@li@@@?$lazy_function@$0JGAMLEMG@P6AHPEAX0KPEAK@Z@detail@li@@SAP6AHPEAX0KPEAK@ZXZ 000000014000f4e0 f i utilities.obj
 0001:0000e580       ??$get@P6APEAXPEBDKKPEAU_SECURITY_ATTRIBUTES@@KKPEAX@ZUunsafe_module_enumerator@detail@li@@@?$lazy_function@$0LNMKMJMO@P6APEAXPEBDKKPEAU_SECURITY_ATTRIBUTES@@KKPEAX@Z@detail@li@@SAP6APEAXPEBDKKPEAU_SECURITY_ATTRIBUTES@@KKPEAX@ZXZ 000000014000f580 f i utilities.obj
 0001:0000e620       ??$get@P6AHPEAXK0K0KPEAKPEAU_OVERLAPPED@@@ZUunsafe_module_enumerator@detail@li@@@?$lazy_function@$0LAEMMOJE@P6AHPEAXK0K0KPEAKPEAU_OVERLAPPED@@@Z@detail@li@@SAP6AHPEAXK0K0KPEAKPEAU_OVERLAPPED@@@ZXZ 000000014000f620 f i utilities.obj
 0001:0000e6c0       ??$get@P6AHPEAX@ZUunsafe_module_enumerator@detail@li@@@?$lazy_function@$0PKLKAAGF@P6AHPEAX@Z@detail@li@@SAP6AHPEAX@ZXZ 000000014000f6c0 f i utilities.obj
 0001:0000e760       ??$get_export@P6AHPEAXW4_TOKEN_INFORMATION_CLASS@@0KPEAK@Z@utilities@@YAP6AHPEAXW4_TOKEN_INFORMATION_CLASS@@0KPEAK@ZAEBV?$basic_string@DU?$char_traits@D@std@@V?$allocator@D@2@@std@@3@Z 000000014000f760 f i utilities.obj
 0001:0000e760       ??$get_export@P6AHPEAXKPEAPEAX@Z@utilities@@YAP6AHPEAXKPEAPEAX@ZAEBV?$basic_string@DU?$char_traits@D@std@@V?$allocator@D@2@@std@@2@Z 000000014000f760 f i utilities.obj
 0001:0000e7d0       ??$get@P6APEAXXZUunsafe_module_enumerator@detail@li@@@?$lazy_function@$0GNNIKIEF@P6APEAXXZ@detail@li@@SAP6APEAXXZXZ 000000014000f7d0 f i utilities.obj
 0001:0000e870       ??$construct@V?$basic_string@DU?$char_traits@D@std@@V?$allocator@D@2@@std@@AEBV12@@?$_Default_allocator_traits@V?$allocator@V?$basic_string@DU?$char_traits@D@std@@V?$allocator@D@2@@std@@@std@@@std@@SAXAEAV?$allocator@V?$basic_string@DU?$char_traits@D@std@@V?$allocator@D@2@@std@@@1@QEAV?$basic_string@DU?$char_traits@D@std@@V?$allocator@D@2@@1@AEBV31@@Z 000000014000f870 f i utilities.obj
 0001:0000e8a0       ??$_Emplace_reallocate@AEBV?$basic_string@DU?$char_traits@D@std@@V?$allocator@D@2@@std@@@?$vector@V?$basic_string@DU?$char_traits@D@std@@V?$allocator@D@2@@std@@V?$allocator@V?$basic_string@DU?$char_traits@D@std@@V?$allocator@D@2@@std@@@2@@std@@QEAAPEAV?$basic_string@DU?$char_traits@D@std@@V?$allocator@D@2@@1@QEAV21@AEBV21@@Z 000000014000f8a0 f i utilities.obj
 0001:0000e9a0       ??$_Traits_find@U?$char_traits@D@std@@@std@@YA_KQEBD_K101@Z 000000014000f9a0 f i utilities.obj
 0001:0000ea60       ??$_crypt_128@$0A@$00$01$02$03$04$05$06$07$08$09$0L@$0M@$0N@$0O@@?$xor_string@U?$tstring_@$M_W0FF@$M_W0HD@$M_W0GF@$M_W0HC@$M_W0CN@$M_W0EB@$M_W0GH@$M_W0GF@$M_W0GO@$M_W0HE@$M_W0DK@$M_W0CA@$M_W0EN@$M_W0GP@$M_W0HK@$M_W0GJ@$M_W0GM@$M_W0GM@$M_W0GB@$M_W0CP@$M_W0DF@$M_W0CO@$M_W0DA@$M_W0CA@$M_W0CI@$M_W0FI@$M_W0DB@$M_W0DB@$M_W0DL@$M_W0CA@$M_W0EM@$M_W0GJ@$M_W0GO@$M_W0HF@$M_W0HI@$M_W0CA@$M_W0HI@$M_W0DI@$M_W0DG@$M_W0FP@$M_W0DG@$M_W0DE@$M_W0CJ@$M_W0CA@$M_W0EB@$M_W0HA@$M_W0HA@$M_W0GM@$M_W0GF@$M_W0FH@$M_W0GF@$M_W0GC@$M_W0EL@$M_W0GJ@$M_W0HE@$M_W0CP@$M_W0DF@$M_W0DD@$M_W0DH@$M_W0CO@$M_W0DD@$M_W0DG@$M_W0CA@$M_W0CI@$M_W0EL@$M_W0EI@$M_W0FE@$M_W0EN@$M_W0EM@$M_W0CM@$M_W0CA@$M_W0GM@$M_W0GJ@$M_W0GL@$M_W0GF@$M_W0CA@$M_W0EH@$M_W0GF@$M_W0GD@$M_W0GL@$M_W0GP@$M_W0CJ@$M_W0CA@$M_W0ED@$M_W0GI@$M_W0HC@$M_W0GP@$M_W0GN@$M_W0GF@$M_W0CP@$M_W0DF@$M_W0DB@$M_W0CO@$M_W0DA@$M_W0CO@$M_W0DC@$M_W0DH@$M_W0DA@$M_W0DE@$M_W0CO@$M_W0DB@$M_W0DA@$M_W0DD@$M_W0CA@$M_W0FD@$M_W0GB@$M_W0GG@$M_W0GB@$M_W0HC@$M_W0GJ@$M_W0CP@$M_W0DF@$M_W0DD@$M_W0DH@$M_W0CO@$M_W0DD@$M_W0DG@$M_W0A@@detail@jm@@U?$_ki@$0A@$0FGELNIIFGEDAJMMF@@23@U?$_ki@$00$0DIILFICEGDJAMKJO@@23@U?$_ki@$01$0HDEJOBALFGABNLNP@@23@U?$_ki@$02$0DIHBIPDCOBOGOMAA@@23@U?$_ki@$03$0?FMGNNDKGMCFHANHH@@23@U?$_ki@$04$0FGMEFHEIHNMGKDLC@@23@U?$_ki@$05$0FIJLAGBPDFGNAJHD@@23@U?$_ki@$06$0BDEFKKNGEFMCLNFE@@23@U?$_ki@$07$0?HOKKFLCCNJABNIPD@@23@U?$_ki@$08$0?BCEEAHODMONCEPLK@@23@U?$_ki@$09$0?GLEDPMPMJAEHFKFJ@@23@U?$_ki@$0L@$0?GPEBBKBFJCOPEHNI@@23@U?$_ki@$0M@$0?CMLGNBKOJMAJKICP@@23@U?$_ki@$0N@$0DBBLBKGALCPFPAJK@@23@U?$_ki@$0O@$0HOBLCAJHLDDGNKHL@@23@U?$_ki@$0P@$0HCCFHNCODDPMNIDM@@23@U?$_ki@$0BA@$0BOLCDODFNBHJAENF@@23@U?$_ki@$0BB@$0BHALGGFELOCNMOKO@@23@U?$_ki@$0BC@$0CFJALODLFJOOKKOP@@23@U?$_ki@$0BD@$0BFGGOJOCLOOIBLJA@@23@U?$_ki@$0BE@$0?DGMNFAPGEIILHDOH@@23@U?$_ki@$0BF@$0DFEEGFHILFJBLOEC@@23@U?$_ki@$0BG@$0?EDDBFHLAMFGEAFHN@@23@U?$_ki@$0BH@$0?PMEPKHJJBMICMJM@@23@U?$_ki@$0BI@$0DDJMICANENOLENJN@@23@U?$_ki@$0BJ@$0?GOHPJEDDJDHNMLCK@@23@U?$_ki@$0BK@$0EIEABELDFJBCCDLH@@23@U?$_ki@$0BL@$0EDAFMDBKNLICMBDI@@23@U?$_ki@$0BM@$0CDJICOIBHONMLHGB@@23@U?$_ki@$0BN@$0?BMJOAIGPCGBMOING@@23@@jm@@AEAAXPEB_KU?$integer_sequence@_K$0A@$00$01$02$03$04$05$06$07$08$09$0L@$0M@$0N@$0O@@std@@@Z 000000014000fa60 f i utilities.obj
 0001:0000eb60       ??$_Reallocate_grow_by@V<lambda_25953b27f3c43b57ba59f021c7f225c5>@@_W@?$basic_string@_WU?$char_traits@_W@std@@V?$allocator@_W@2@@std@@AEAAAEAV01@_KV<lambda_25953b27f3c43b57ba59f021c7f225c5>@@_W@Z 000000014000fb60 f i utilities.obj
 0001:0000ec70       ?_Unwrapped@?$_String_iterator@V?$_String_val@U?$_Simple_types@D@std@@@std@@@std@@QEBAPEADXZ 000000014000fc70 f i utilities.obj
 0001:0000ec80       ?_Calculate_growth@?$basic_string@_WU?$char_traits@_W@std@@V?$allocator@_W@2@@std@@AEBA_K_K@Z 000000014000fc80 f i utilities.obj
 0001:0000ecb0       ?max_size@?$basic_string@_WU?$char_traits@_W@std@@V?$allocator@_W@2@@std@@QEBA_KXZ 000000014000fcb0 f i utilities.obj
 0001:0000ed10       ?allocate@?$allocator@_W@std@@QEAAPEA_W_K@Z 000000014000fd10 f i utilities.obj
 0001:0000ed30       ?_Calculate_growth@?$basic_string@_WU?$char_traits@_W@std@@V?$allocator@_W@2@@std@@CA_K_K00@Z 000000014000fd30 f i utilities.obj
 0001:0000ed80       ??$_Eval@V?$mersenne_twister_engine@I$0CA@$0CHA@$0BIN@$0BP@$0JJAILANP@$0L@$0PPPPPPPP@$06$0JNCMFGIA@$0P@$0OPMGAAAA@$0BC@$0GMAHIJGF@@std@@@?$uniform_int@_K@std@@AEBA_KAEAV?$mersenne_twister_engine@I$0CA@$0CHA@$0BIN@$0BP@$0JJAILANP@$0L@$0PPPPPPPP@$06$0JNCMFGIA@$0P@$0OPMGAAAA@$0BC@$0GMAHIJGF@@1@_K1@Z 000000014000fd80 f i utilities.obj
 0001:0000ee50       ??$_Seek_wrapped@V?$_String_iterator@V?$_String_val@U?$_Simple_types@D@std@@@std@@@std@@AEAPEAD@std@@YAXAEAV?$_String_iterator@V?$_String_val@U?$_Simple_types@D@std@@@std@@@0@AEAPEAD@Z 000000014000fe50 f i utilities.obj
 0001:0000ee60       ??$get@P6AP6A_JXZPEAUHINSTANCE__@@PEBD@ZUunsafe_module_enumerator@detail@li@@@?$lazy_function@$0PIPEFHCF@P6AP6A_JXZPEAUHINSTANCE__@@PEBD@Z@detail@li@@SAP6AP6A_JXZPEAUHINSTANCE__@@PEBD@ZXZ 000000014000fe60 f i utilities.obj
 0001:0000ef00       ??$get@P6APEAUHINSTANCE__@@PEBD@ZUunsafe_module_enumerator@detail@li@@@?$lazy_function@$0OEGDNKDM@P6APEAUHINSTANCE__@@PEBD@Z@detail@li@@SAP6APEAUHINSTANCE__@@PEBD@ZXZ 000000014000ff00 f i utilities.obj
 0001:0000efa0       ??$_Get_size_of_n@$01@std@@YA_K_K@Z 000000014000ffa0 f i utilities.obj
 0001:0000efd0       ?_Get_all_bits@?$_Rng_from_urng@_KV?$mersenne_twister_engine@I$0CA@$0CHA@$0BIN@$0BP@$0JJAILANP@$0L@$0PPPPPPPP@$06$0JNCMFGIA@$0P@$0OPMGAAAA@$0BC@$0GMAHIJGF@@std@@@std@@QEAA_KXZ 000000014000ffd0 f i utilities.obj
 0001:0000f030       ??R?$_Rng_from_urng@_KV?$mersenne_twister_engine@I$0CA@$0CHA@$0BIN@$0BP@$0JJAILANP@$0L@$0PPPPPPPP@$06$0JNCMFGIA@$0P@$0OPMGAAAA@$0BC@$0GMAHIJGF@@std@@@std@@QEAA_K_K@Z 0000000140010030 f i utilities.obj
 0001:0000f0e0       ??0?$_Rng_from_urng@_KV?$mersenne_twister_engine@I$0CA@$0CHA@$0BIN@$0BP@$0JJAILANP@$0L@$0PPPPPPPP@$06$0JNCMFGIA@$0P@$0OPMGAAAA@$0BC@$0GMAHIJGF@@std@@@std@@QEAA@AEAV?$mersenne_twister_engine@I$0CA@$0CHA@$0BIN@$0BP@$0JJAILANP@$0L@$0PPPPPPPP@$06$0JNCMFGIA@$0P@$0OPMGAAAA@$0BC@$0GMAHIJGF@@1@@Z 00000001400100e0 f i utilities.obj
 0001:0000f120       ?_Seek_to@?$_String_const_iterator@V?$_String_val@U?$_Simple_types@D@std@@@std@@@std@@QEAAXPEBD@Z 0000000140010120 f i utilities.obj
 0001:0000f140       ?_Get_bits@?$_Rng_from_urng@_KV?$mersenne_twister_engine@I$0CA@$0CHA@$0BIN@$0BP@$0JJAILANP@$0L@$0PPPPPPPP@$06$0JNCMFGIA@$0P@$0OPMGAAAA@$0BC@$0GMAHIJGF@@std@@@std@@AEAA_KXZ 0000000140010140 f i utilities.obj
 0001:0000f170       ?max@?$mersenne_twister_engine@I$0CA@$0CHA@$0BIN@$0BP@$0JJAILANP@$0L@$0PPPPPPPP@$06$0JNCMFGIA@$0P@$0OPMGAAAA@$0BC@$0GMAHIJGF@@std@@SAIXZ 0000000140010170 f i utilities.obj
 0001:0000f180       ??R?$mersenne_twister@I$0CA@$0CHA@$0BIN@$0BP@$0JJAILANP@$0L@$06$0JNCMFGIA@$0P@$0OPMGAAAA@$0BC@@std@@QEAAIXZ 0000000140010180 f i utilities.obj
 0001:0000f1f0       ?_Refill_upper@?$mersenne_twister@I$0CA@$0CHA@$0BIN@$0BP@$0JJAILANP@$0L@$06$0JNCMFGIA@$0P@$0OPMGAAAA@$0BC@@std@@IEAAXXZ 00000001400101f0 f i utilities.obj
 0001:0000f240       ?_Refill_lower@?$mersenne_twister@I$0CA@$0CHA@$0BIN@$0BP@$0JJAILANP@$0L@$06$0JNCMFGIA@$0P@$0OPMGAAAA@$0BC@@std@@IEAAXXZ 0000000140010240 f i utilities.obj
 0001:0000f330       ??$_Seek_wrapped@PEADAEAPEAD@std@@YAXAEAPEAD0@Z 0000000140010330 f i utilities.obj
 0001:0000f338       ??0bad_alloc@std@@QEAA@XZ  0000000140010338 f i libcpmt:xthrow.obj
 0001:0000f358       ??0length_error@std@@QEAA@AEBV01@@Z 0000000140010358 f i libcpmt:xthrow.obj
 0001:0000f394       ??0length_error@std@@QEAA@PEBD@Z 0000000140010394 f i libcpmt:xthrow.obj
 0001:0000f3dc       ??0logic_error@std@@QEAA@AEBV01@@Z 00000001400103dc f i libcpmt:xthrow.obj
 0001:0000f418       ??0out_of_range@std@@QEAA@AEBV01@@Z 0000000140010418 f i libcpmt:xthrow.obj
 0001:0000f454       ??0out_of_range@std@@QEAA@PEBD@Z 0000000140010454 f i libcpmt:xthrow.obj
 0001:0000f49c       ??_Gbad_typeid@std@@UEAAPEAXI@Z 000000014001049c f i libvcruntime:rtti.obj
 0001:0000f49c       ??_Eout_of_range@std@@UEAAPEAXI@Z 000000014001049c f i libcpmt:xthrow.obj
 0001:0000f49c       ??_Elength_error@std@@UEAAPEAXI@Z 000000014001049c f i libcpmt:xthrow.obj
 0001:0000f49c       ??_E__non_rtti_object@std@@UEAAPEAXI@Z 000000014001049c f i libvcruntime:rtti.obj
 0001:0000f49c       ??_Gout_of_range@std@@UEAAPEAXI@Z 000000014001049c f i libcpmt:xthrow.obj
 0001:0000f49c       ??_Elogic_error@std@@UEAAPEAXI@Z 000000014001049c f i libcpmt:xthrow.obj
 0001:0000f49c       ??_Gbad_exception@std@@UEAAPEAXI@Z 000000014001049c f i libvcruntime:frame.obj
 0001:0000f49c       ??_G__non_rtti_object@std@@UEAAPEAXI@Z 000000014001049c f i libvcruntime:rtti.obj
 0001:0000f49c       ??_Ebad_exception@std@@UEAAPEAXI@Z 000000014001049c f i libvcruntime:frame.obj
 0001:0000f49c       ??_Glength_error@std@@UEAAPEAXI@Z 000000014001049c f i libcpmt:xthrow.obj
 0001:0000f49c       ??_Ebad_typeid@std@@UEAAPEAXI@Z 000000014001049c f i libvcruntime:rtti.obj
 0001:0000f49c       ??_Glogic_error@std@@UEAAPEAXI@Z 000000014001049c f i libcpmt:xthrow.obj
 0001:0000f4e0       ?_Xlength_error@std@@YAXPEBD@Z 00000001400104e0 f   libcpmt:xthrow.obj
 0001:0000f504       ?_Xout_of_range@std@@YAXPEBD@Z 0000000140010504 f   libcpmt:xthrow.obj
 0001:0000f528       ?uncaught_exceptions@std@@YAHXZ 0000000140010528 f   libcpmt:uncaught_exceptions.obj
 0001:0000f530       _Xtime_get_ticks           0000000140010530 f   libcpmt:xtime.obj
 0001:0000f560       ??0_Init_locks@std@@QEAA@XZ 0000000140010560 f   libcpmt:xlock.obj
 0001:0000f5a4       ??0_Lockit@std@@QEAA@H@Z   00000001400105a4 f   libcpmt:xlock.obj
 0001:0000f5e0       ??1_Init_locks@std@@QEAA@XZ 00000001400105e0 f   libcpmt:xlock.obj
 0001:0000f61c       ??1_Lockit@std@@QEAA@XZ    000000014001061c f   libcpmt:xlock.obj
 0001:0000f650       ?_Random_device@std@@YAIXZ 0000000140010650 f   libcpmt:xrngdev.obj
 0001:0000fa30       __crtGetSystemTimePreciseAsFileTime 0000000140010a30 f   libcpmt:winapisupp.obj
 0001:0000fa4c       __crtInitializeCriticalSectionEx 0000000140010a4c f   libcpmt:winapisupp.obj
 0001:0000fa78       _Mtxdst                    0000000140010a78 f   libcpmt:xmtx.obj
 0001:0000fa78       ??1_NonReentrantBlockingLock@details@Concurrency@@QEAA@XZ 0000000140010a78 f   libconcrt:rtlocks.obj
 0001:0000fa80       _Mtxinit                   0000000140010a80 f   libcpmt:xmtx.obj
 0001:0000fa90       _Mtxlock                   0000000140010a90 f   libcpmt:xmtx.obj
 0001:0000fa98       _Mtxunlock                 0000000140010a98 f   libcpmt:xmtx.obj
 0001:0000faa0       sprintf_s                  0000000140010aa0 f i libcpmt:locale.obj
 0001:0000fb00       ?CipherResynchronize@CFB_ModePolicy@CryptoPP@@MEAAXPEBE_K@Z 0000000140010b00 f   cryptlib:modes.obj
 0001:0000fba0       ?GetRegisterBegin@CFB_ModePolicy@CryptoPP@@MEAAPEAEXZ 0000000140010ba0 f   cryptlib:modes.obj
 0001:0000fbb0       ?Iterate@CFB_ModePolicy@CryptoPP@@MEAAXPEAEPEBEW4CipherDir@2@_K@Z 0000000140010bb0 f   cryptlib:modes.obj
 0001:0000fcd0       ?ResizeBuffers@CFB_ModePolicy@CryptoPP@@MEAAXXZ 0000000140010cd0 f   cryptlib:modes.obj
 0001:0000fd10       ?SetFeedbackSize@CFB_ModePolicy@CryptoPP@@MEAAXI@Z 0000000140010d10 f   cryptlib:modes.obj
 0001:0000fd90       ?TransformRegister@CFB_ModePolicy@CryptoPP@@MEAAXXZ 0000000140010d90 f   cryptlib:modes.obj
 0001:0000fea0       ??$?HDU?$char_traits@D@std@@V?$allocator@D@1@@std@@YA?AV?$basic_string@DU?$char_traits@D@std@@V?$allocator@D@2@@0@$$QEAV10@0@Z 0000000140010ea0 f i cryptlib:dll.obj
 0001:0000ff30       ??$?HDU?$char_traits@D@std@@V?$allocator@D@1@@std@@YA?AV?$basic_string@DU?$char_traits@D@std@@V?$allocator@D@2@@0@QEBD$$QEAV10@@Z 0000000140010f30 f i cryptlib:dll.obj
 0001:0000ff90       ??0BERDecodeErr@CryptoPP@@QEAA@AEBV01@@Z 0000000140010f90 f i cryptlib:dll.obj
 0001:0000ffc0       ??0BERDecodeErr@CryptoPP@@QEAA@XZ 0000000140010fc0 f i cryptlib:dll.obj
 0001:00010170       ??0InvalidDataFormat@CryptoPP@@QEAA@AEBV01@@Z 0000000140011170 f i cryptlib:dll.obj
 0001:000101e0       ??0SelfTestFailure@CryptoPP@@QEAA@AEBV01@@Z 00000001400111e0 f i cryptlib:dll.obj
 0001:00010250       ??0SelfTestFailure@CryptoPP@@QEAA@AEBV?$basic_string@DU?$char_traits@D@std@@V?$allocator@D@2@@std@@@Z 0000000140011250 f i cryptlib:dll.obj
 0001:000102a0       ??1EC2NPoint@CryptoPP@@UEAA@XZ 00000001400112a0 f i cryptlib:dll.obj
 0001:00010330       ??1ECPPoint@CryptoPP@@UEAA@XZ 0000000140011330 f i cryptlib:dll.obj
 0001:000103c0       ??1Integer@CryptoPP@@UEAA@XZ 00000001400113c0 f i cryptlib:dll.obj
 0001:00010410       ??1PolynomialMod2@CryptoPP@@QEAA@XZ 0000000140011410 f i cryptlib:dll.obj
 0001:00010460       ??_GEC2NPoint@CryptoPP@@UEAAPEAXI@Z 0000000140011460 f i cryptlib:dll.obj
 0001:00010460       ??_EEC2NPoint@CryptoPP@@UEAAPEAXI@Z 0000000140011460 f i cryptlib:dll.obj
 0001:000104a0       ??_GECPPoint@CryptoPP@@UEAAPEAXI@Z 00000001400114a0 f i cryptlib:dll.obj
 0001:000104a0       ??_EECPPoint@CryptoPP@@UEAAPEAXI@Z 00000001400114a0 f i cryptlib:dll.obj
 0001:000104e0       ?AnyRetrievable@ByteQueue@CryptoPP@@UEBA_NXZ 00000001400114e0 f i cryptlib:dll.obj
 0001:00010500       ?BERDecodeError@CryptoPP@@YAXXZ 0000000140011500 f i cryptlib:dll.obj
 0001:00010530       ?BEREncode@ASN1Object@CryptoPP@@UEBAXAEAVBufferedTransformation@2@@Z 0000000140011530 f i cryptlib:dll.obj
 0001:00010540       ?CheckSize@?$AllocatorBase@_K@CryptoPP@@KAX_K@Z 0000000140011540 f i cryptlib:dll.obj
 0001:000105c0       ?CombineMessageAndShiftRegister@?$CFB_DecryptionTemplate@V?$AbstractPolicyHolder@VCFB_CipherAbstractPolicy@CryptoPP@@VCFB_ModePolicy@2@@CryptoPP@@@CryptoPP@@EEAAXPEAE0PEBE_K@Z 00000001400115c0 f i cryptlib:dll.obj
 0001:00010750       ?CombineMessageAndShiftRegister@?$CFB_EncryptionTemplate@V?$AbstractPolicyHolder@VCFB_CipherAbstractPolicy@CryptoPP@@VCFB_ModePolicy@2@@CryptoPP@@@CryptoPP@@EEAAXPEAE0PEBE_K@Z 0000000140011750 f i cryptlib:dll.obj
 0001:00010790       ?MaxRetrievable@ByteQueue@CryptoPP@@UEBA_KXZ 0000000140011790 f i cryptlib:dll.obj
 0001:000107a0       ?ProcessData@?$CFB_CipherTemplate@V?$AbstractPolicyHolder@VCFB_CipherAbstractPolicy@CryptoPP@@VCFB_ModePolicy@2@@CryptoPP@@@CryptoPP@@UEAAXPEAEPEBE_K@Z 00000001400117a0 f i cryptlib:dll.obj
 0001:00010a10       ?Resynchronize@?$CFB_CipherTemplate@V?$AbstractPolicyHolder@VCFB_CipherAbstractPolicy@CryptoPP@@VCFB_ModePolicy@2@@CryptoPP@@@CryptoPP@@UEAAXPEBEH@Z 0000000140011a10 f i cryptlib:dll.obj
 0001:00010a90       ?UncheckedSetKey@?$CFB_CipherTemplate@V?$AbstractPolicyHolder@VCFB_CipherAbstractPolicy@CryptoPP@@VCFB_ModePolicy@2@@CryptoPP@@@CryptoPP@@MEAAXPEBEIAEBVNameValuePairs@2@@Z 0000000140011a90 f i cryptlib:dll.obj
 0001:00010b20       ?allocate@?$AllocatorWithCleanup@_K$0A@@CryptoPP@@QEAAPEA_K_KPEBX@Z 0000000140011b20 f i cryptlib:dll.obj
 0001:00010b50       ??_GNullNameValuePairs@CryptoPP@@UEAAPEAXI@Z 0000000140011b50 f i cryptlib:cryptlib.obj
 0001:00010b50       ??_ENullNameValuePairs@CryptoPP@@UEAAPEAXI@Z 0000000140011b50 f i cryptlib:cryptlib.obj
 0001:00010b80       ??$IntToString@H@CryptoPP@@YA?AV?$basic_string@DU?$char_traits@D@std@@V?$allocator@D@2@@std@@HI@Z 0000000140011b80 f i cryptlib:cryptlib.obj
 0001:00010f20       ??$IntToString@I@CryptoPP@@YA?AV?$basic_string@DU?$char_traits@D@std@@V?$allocator@D@2@@std@@II@Z 0000000140011f20 f i cryptlib:cryptlib.obj
 0001:00011150       ??0Algorithm@CryptoPP@@QEAA@_N@Z 0000000140012150 f   cryptlib:cryptlib.obj
 0001:00011220       ??0InvalidCiphertext@CryptoPP@@QEAA@AEBV01@@Z 0000000140012220 f i cryptlib:cryptlib.obj
 0001:00011290       ??0InvalidCiphertext@CryptoPP@@QEAA@AEBV?$basic_string@DU?$char_traits@D@std@@V?$allocator@D@2@@std@@@Z 0000000140012290 f i cryptlib:cryptlib.obj
 0001:000112e0       ??0InvalidKeyLength@CryptoPP@@QEAA@AEBV01@@Z 00000001400122e0 f i cryptlib:cryptlib.obj
 0001:00011310       ??0InvalidKeyLength@CryptoPP@@QEAA@AEBV?$basic_string@DU?$char_traits@D@std@@V?$allocator@D@2@@std@@_K@Z 0000000140012310 f i cryptlib:cryptlib.obj
 0001:000116e0       ??0NoChannelSupport@BufferedTransformation@CryptoPP@@QEAA@AEBU012@@Z 00000001400126e0 f i cryptlib:cryptlib.obj
 0001:00011710       ??0NoChannelSupport@BufferedTransformation@CryptoPP@@QEAA@AEBV?$basic_string@DU?$char_traits@D@std@@V?$allocator@D@2@@std@@@Z 0000000140012710 f i cryptlib:cryptlib.obj
 0001:000118f0       ??1ArraySink@CryptoPP@@UEAA@XZ 00000001400128f0 f i cryptlib:cryptlib.obj
 0001:00011908       ??_EArraySink@CryptoPP@@W7EAAPEAXI@Z 0000000140012908 f i cryptlib:cryptlib.obj
 0001:00011914       ??_EBitBucket@CryptoPP@@W7EAAPEAXI@Z 0000000140012914 f i cryptlib:cryptlib.obj
 0001:00011920       ??_GArraySink@CryptoPP@@UEAAPEAXI@Z 0000000140012920 f i cryptlib:cryptlib.obj
 0001:00011920       ??_EArraySink@CryptoPP@@UEAAPEAXI@Z 0000000140012920 f i cryptlib:cryptlib.obj
 0001:00011960       ??_EBitBucket@CryptoPP@@UEAAPEAXI@Z 0000000140012960 f i cryptlib:cryptlib.obj
 0001:00011960       ??_GBitBucket@CryptoPP@@UEAAPEAXI@Z 0000000140012960 f i cryptlib:cryptlib.obj
 0001:00011990       ?AdvancedProcessBlocks@BlockTransformation@CryptoPP@@UEBA_KPEBE0PEAE_KI@Z 0000000140012990 f   cryptlib:cryptlib.obj
 0001:00011ae0       ?AlgorithmName@BitBucket@CryptoPP@@UEBA?AV?$basic_string@DU?$char_traits@D@std@@V?$allocator@D@2@@std@@XZ 0000000140012ae0 f i cryptlib:cryptlib.obj
 0001:00011b20       ?AnyMessages@BufferedTransformation@CryptoPP@@UEBA_NXZ 0000000140012b20 f   cryptlib:cryptlib.obj
 0001:00011b70       ?AnyRetrievable@BufferedTransformation@CryptoPP@@UEBA_NXZ 0000000140012b70 f   cryptlib:cryptlib.obj
 0001:00011bc0       ?Attach@BufferedTransformation@CryptoPP@@UEAAXPEAV12@@Z 0000000140012bc0 f   cryptlib:cryptlib.obj
 0001:00011c40       ?ChannelCreatePutSpace@BufferedTransformation@CryptoPP@@UEAAPEAEAEBV?$basic_string@DU?$char_traits@D@std@@V?$allocator@D@2@@std@@AEA_K@Z 0000000140012c40 f   cryptlib:cryptlib.obj
 0001:00011cb0       ?ChannelFlush@BufferedTransformation@CryptoPP@@UEAA_NAEBV?$basic_string@DU?$char_traits@D@std@@V?$allocator@D@2@@std@@_NH1@Z 0000000140012cb0 f   cryptlib:cryptlib.obj
 0001:00011d30       ?ChannelMessageSeriesEnd@BufferedTransformation@CryptoPP@@UEAA_NAEBV?$basic_string@DU?$char_traits@D@std@@V?$allocator@D@2@@std@@H_N@Z 0000000140012d30 f   cryptlib:cryptlib.obj
 0001:00011db0       ?ChannelPut2@BufferedTransformation@CryptoPP@@UEAA_KAEBV?$basic_string@DU?$char_traits@D@std@@V?$allocator@D@2@@std@@PEBE_KH_N@Z 0000000140012db0 f   cryptlib:cryptlib.obj
 0001:00011e40       ?ChannelPutModifiable2@BufferedTransformation@CryptoPP@@UEAA_KAEBV?$basic_string@DU?$char_traits@D@std@@V?$allocator@D@2@@std@@PEAE_KH_N@Z 0000000140012e40 f   cryptlib:cryptlib.obj
 0001:00011e80       ?CopyMessagesTo@BufferedTransformation@CryptoPP@@QEBAIAEAV12@IAEBV?$basic_string@DU?$char_traits@D@std@@V?$allocator@D@2@@std@@@Z 0000000140012e80 f   cryptlib:cryptlib.obj
 0001:00011ee0       ?Flush@BufferedTransformation@CryptoPP@@UEAA_N_NH0@Z 0000000140012ee0 f   cryptlib:cryptlib.obj
 0001:00011ef0       ?Get@BufferedTransformation@CryptoPP@@UEAA_KAEAE@Z 0000000140012ef0 f   cryptlib:cryptlib.obj
 0001:00011f50       ?Get@BufferedTransformation@CryptoPP@@UEAA_KPEAE_K@Z 0000000140012f50 f   cryptlib:cryptlib.obj
 0001:00012010       ?GetIVAndThrowIfInvalid@SimpleKeyingInterface@CryptoPP@@IEAAPEBEAEBVNameValuePairs@2@AEA_K@Z 0000000140013010 f   cryptlib:cryptlib.obj
 0001:000122c0       ?GetMaxWaitObjectCount@BufferedTransformation@CryptoPP@@UEBAIXZ 00000001400132c0 f   cryptlib:cryptlib.obj
 0001:000122f0       ?GetNextIV@SimpleKeyingInterface@CryptoPP@@UEAAXAEAVRandomNumberGenerator@2@PEAE@Z 00000001400132f0 f   cryptlib:cryptlib.obj
 0001:00012330       ?GetNextMessage@BufferedTransformation@CryptoPP@@UEAA_NXZ 0000000140013330 f   cryptlib:cryptlib.obj
 0001:00012370       ?GetWaitObjects@BufferedTransformation@CryptoPP@@UEAAXAEAVWaitObjectContainer@2@AEBVCallStack@2@@Z 0000000140013370 f   cryptlib:cryptlib.obj
 0001:000123b0       ?GetWord16@BufferedTransformation@CryptoPP@@QEAA_KAEAGW4ByteOrder@2@@Z 00000001400133b0 f   cryptlib:cryptlib.obj
 0001:00012440       ?MaxRetrievable@BufferedTransformation@CryptoPP@@UEBA_KXZ 0000000140013440 f   cryptlib:cryptlib.obj
 0001:000124c0       ?MessageSeriesEnd@BufferedTransformation@CryptoPP@@UEAA_NH_N@Z 00000001400134c0 f   cryptlib:cryptlib.obj
 0001:000124d0       ?NumberOfMessages@BufferedTransformation@CryptoPP@@UEBAIXZ 00000001400134d0 f   cryptlib:cryptlib.obj
 0001:00012570       ?Peek@BufferedTransformation@CryptoPP@@UEBA_KAEAE@Z 0000000140013570 f   cryptlib:cryptlib.obj
 0001:000125d0       ?Peek@BufferedTransformation@CryptoPP@@UEBA_KPEAE_K@Z 00000001400135d0 f   cryptlib:cryptlib.obj
 0001:000126a0       ?ProcessLastBlock@StreamTransformation@CryptoPP@@UEAA_KPEAE_KPEBE1@Z 00000001400136a0 f   cryptlib:cryptlib.obj
 0001:00012770       ?SetKey@SimpleKeyingInterface@CryptoPP@@UEAAXPEBE_KAEBVNameValuePairs@2@@Z 0000000140013770 f   cryptlib:cryptlib.obj
 0001:00012810       ?SetRetrievalChannel@BufferedTransformation@CryptoPP@@UEAAXAEBV?$basic_string@DU?$char_traits@D@std@@V?$allocator@D@2@@std@@@Z 0000000140013810 f   cryptlib:cryptlib.obj
 0001:00012860       ?Skip@BufferedTransformation@CryptoPP@@UEAA_K_K@Z 0000000140013860 f   cryptlib:cryptlib.obj
 0001:000128e0       ?SkipAll@BufferedTransformation@CryptoPP@@UEAAXXZ 00000001400138e0 f   cryptlib:cryptlib.obj
 0001:00012950       ?SkipMessages@BufferedTransformation@CryptoPP@@UEAAII@Z 0000000140013950 f   cryptlib:cryptlib.obj
 0001:000129d0       ?TheBitBucket@CryptoPP@@YAAEAVBufferedTransformation@1@XZ 00000001400139d0 f   cryptlib:cryptlib.obj
 0001:00012a40       ?ThrowIfInvalidIVLength@SimpleKeyingInterface@CryptoPP@@IEAA_KH@Z 0000000140013a40 f   cryptlib:cryptlib.obj
 0001:00012c50       ?TotalBytesRetrievable@BufferedTransformation@CryptoPP@@UEBA_KXZ 0000000140013c50 f   cryptlib:cryptlib.obj
 0001:00012ca0       ?TransferAllTo2@BufferedTransformation@CryptoPP@@QEAA_KAEAV12@AEBV?$basic_string@DU?$char_traits@D@std@@V?$allocator@D@2@@std@@_N@Z 0000000140013ca0 f   cryptlib:cryptlib.obj
 0001:00012e70       ?TransferMessagesTo2@BufferedTransformation@CryptoPP@@QEAA_KAEAV12@AEAIAEBV?$basic_string@DU?$char_traits@D@std@@V?$allocator@D@2@@std@@_N@Z 0000000140013e70 f   cryptlib:cryptlib.obj
 0001:00012fb0       ??_G?$AlgorithmParametersTemplate@W4BlockPaddingScheme@BlockPaddingSchemeDef@CryptoPP@@@CryptoPP@@UEAAPEAXI@Z 0000000140013fb0 f i cryptlib:filters.obj
 0001:00012fb0       ??_E?$AlgorithmParametersTemplate@E@CryptoPP@@UEAAPEAXI@Z 0000000140013fb0 f i cryptlib:base64.obj
 0001:00012fb0       ??_G?$AlgorithmParametersTemplate@E@CryptoPP@@UEAAPEAXI@Z 0000000140013fb0 f i cryptlib:base64.obj
 0001:00012fb0       ??_E?$AlgorithmParametersTemplate@W4BlockPaddingScheme@BlockPaddingSchemeDef@CryptoPP@@@CryptoPP@@UEAAPEAXI@Z 0000000140013fb0 f i cryptlib:filters.obj
 0001:00012fb0       ??_G?$AlgorithmParametersTemplate@PEBE@CryptoPP@@UEAAPEAXI@Z 0000000140013fb0 f i cryptlib:base64.obj
 0001:00012fb0       ??_E?$AlgorithmParametersTemplate@PEBE@CryptoPP@@UEAAPEAXI@Z 0000000140013fb0 f i cryptlib:base64.obj
 0001:00012ff0       ??_GCombinedNameValuePairs@CryptoPP@@UEAAPEAXI@Z 0000000140013ff0 f i cryptlib:base64.obj
 0001:00012ff0       ??_ECombinedNameValuePairs@CryptoPP@@UEAAPEAXI@Z 0000000140013ff0 f i cryptlib:base64.obj
 0001:00013020       ?AssignValue@?$AlgorithmParametersTemplate@E@CryptoPP@@UEBAXPEBDAEBVtype_info@@PEAX@Z 0000000140014020 f i cryptlib:base64.obj
 0001:000130a0       ?AssignValue@?$AlgorithmParametersTemplate@PEBE@CryptoPP@@UEBAXPEBDAEBVtype_info@@PEAX@Z 00000001400140a0 f i cryptlib:base64.obj
 0001:00013120       ?GetDecodingLookupArray@Base64Decoder@CryptoPP@@CAPEBHXZ 0000000140014120 f   cryptlib:base64.obj
 0001:00013130       ?IsolatedInitialize@Base64Decoder@CryptoPP@@UEAAXAEBVNameValuePairs@2@@Z 0000000140014130 f   cryptlib:base64.obj
 0001:00013320       ?IsolatedInitialize@Base64Encoder@CryptoPP@@UEAAXAEBVNameValuePairs@2@@Z 0000000140014320 f   cryptlib:base64.obj
 0001:00013750       ?MoveInto@?$AlgorithmParametersTemplate@E@CryptoPP@@UEBAXPEAX@Z 0000000140014750 f i cryptlib:base64.obj
 0001:00013790       ?MoveInto@?$AlgorithmParametersTemplate@PEBE@CryptoPP@@UEBAXPEAX@Z 0000000140014790 f i cryptlib:base64.obj
 0001:000137d0       ??$MakeParameters@W4BlockPaddingScheme@BlockPaddingSchemeDef@CryptoPP@@@CryptoPP@@YA?AVAlgorithmParameters@0@PEBDAEBW4BlockPaddingScheme@BlockPaddingSchemeDef@0@_N@Z 00000001400147d0 f i cryptlib:filters.obj
 0001:000138d0       ??0BlockingInputOnly@BufferedTransformation@CryptoPP@@QEAA@AEBU012@@Z 00000001400148d0 f i cryptlib:filters.obj
 0001:00013900       ??0BlockingInputOnly@BufferedTransformation@CryptoPP@@QEAA@AEBV?$basic_string@DU?$char_traits@D@std@@V?$allocator@D@2@@std@@@Z 0000000140014900 f i cryptlib:filters.obj
 0001:00013ae0       ??0Filter@CryptoPP@@QEAA@PEAVBufferedTransformation@1@@Z 0000000140014ae0 f   cryptlib:filters.obj
 0001:00013b20       ??0FilterWithBufferedInput@CryptoPP@@QEAA@PEAVBufferedTransformation@1@@Z 0000000140014b20 f   cryptlib:filters.obj
 0001:00013ba0       ??0InvalidDataFormat@CryptoPP@@QEAA@AEBV?$basic_string@DU?$char_traits@D@std@@V?$allocator@D@2@@std@@@Z 0000000140014ba0 f i cryptlib:filters.obj
 0001:00013bf0       ??0ProxyFilter@CryptoPP@@QEAA@PEAVBufferedTransformation@1@_K10@Z 0000000140014bf0 f   cryptlib:filters.obj
 0001:00013d90       ??0StreamTransformationFilter@CryptoPP@@QEAA@AEAVStreamTransformation@1@PEAVBufferedTransformation@1@W4BlockPaddingScheme@BlockPaddingSchemeDef@1@@Z 0000000140014d90 f   cryptlib:filters.obj
 0001:00013f40       ??1FilterPutSpaceHelper@CryptoPP@@UEAA@XZ 0000000140014f40 f i cryptlib:filters.obj
 0001:00013f90       ??1StreamTransformationFilter@CryptoPP@@UEAA@XZ 0000000140014f90 f i cryptlib:filters.obj
 0001:00014014       ??_EOutputProxy@CryptoPP@@W7EAAPEAXI@Z 0000000140015014 f i cryptlib:filters.obj
 0001:00014020       ??_EStreamTransformationFilter@CryptoPP@@W7EAAPEAXI@Z 0000000140015020 f i cryptlib:filters.obj
 0001:0001402c       ??_EStreamTransformationFilter@CryptoPP@@WJA@EAAPEAXI@Z 000000014001502c f i cryptlib:filters.obj
 0001:00014040       ??_GFilterPutSpaceHelper@CryptoPP@@UEAAPEAXI@Z 0000000140015040 f i cryptlib:filters.obj
 0001:00014040       ??_EFilterPutSpaceHelper@CryptoPP@@UEAAPEAXI@Z 0000000140015040 f i cryptlib:filters.obj
 0001:000140c0       ??_EOutputProxy@CryptoPP@@UEAAPEAXI@Z 00000001400150c0 f i cryptlib:filters.obj
 0001:000140c0       ??_GOutputProxy@CryptoPP@@UEAAPEAXI@Z 00000001400150c0 f i cryptlib:filters.obj
 0001:00014100       ??_EStreamTransformationFilter@CryptoPP@@UEAAPEAXI@Z 0000000140015100 f i cryptlib:filters.obj
 0001:00014100       ??_GStreamTransformationFilter@CryptoPP@@UEAAPEAXI@Z 0000000140015100 f i cryptlib:filters.obj
 0001:00014140       ?AlgorithmName@StreamTransformationFilter@CryptoPP@@UEBA?AV?$basic_string@DU?$char_traits@D@std@@V?$allocator@D@2@@std@@XZ 0000000140015140 f i cryptlib:filters.obj
 0001:00014160       ?AssignValue@?$AlgorithmParametersTemplate@W4BlockPaddingScheme@BlockPaddingSchemeDef@CryptoPP@@@CryptoPP@@UEBAXPEBDAEBVtype_info@@PEAX@Z 0000000140015160 f i cryptlib:filters.obj
 0001:000141e0       ?AttachedTransformation@Filter@CryptoPP@@UEBAPEBVBufferedTransformation@2@XZ 00000001400151e0 f   cryptlib:filters.obj
 0001:000141e0       ?AttachedTransformation@Filter@CryptoPP@@UEAAPEAVBufferedTransformation@2@XZ 00000001400151e0 f   cryptlib:filters.obj
 0001:00014230       ?ChannelCreatePutSpace@OutputProxy@CryptoPP@@UEAAPEAEAEBV?$basic_string@DU?$char_traits@D@std@@V?$allocator@D@2@@std@@AEA_K@Z 0000000140015230 f i cryptlib:filters.obj
 0001:00014270       ?ChannelFlush@OutputProxy@CryptoPP@@UEAA_NAEBV?$basic_string@DU?$char_traits@D@std@@V?$allocator@D@2@@std@@_NH1@Z 0000000140015270 f i cryptlib:filters.obj
 0001:000142e0       ?ChannelMessageSeriesEnd@OutputProxy@CryptoPP@@UEAA_NAEBV?$basic_string@DU?$char_traits@D@std@@V?$allocator@D@2@@std@@H_N@Z 00000001400152e0 f i cryptlib:filters.obj
 0001:00014350       ?ChannelPut2@OutputProxy@CryptoPP@@UEAA_KAEBV?$basic_string@DU?$char_traits@D@std@@V?$allocator@D@2@@std@@PEBE_KH_N@Z 0000000140015350 f i cryptlib:filters.obj
 0001:000143d0       ?ChannelPutModifiable2@OutputProxy@CryptoPP@@UEAA_KAEBV?$basic_string@DU?$char_traits@D@std@@V?$allocator@D@2@@std@@PEAE_KH_N@Z 00000001400153d0 f i cryptlib:filters.obj
 0001:00014450       ?CopyRangeTo2@Filter@CryptoPP@@UEBA_KAEAVBufferedTransformation@2@AEA_K_KAEBV?$basic_string@DU?$char_traits@D@std@@V?$allocator@D@2@@std@@_N@Z 0000000140015450 f   cryptlib:filters.obj
 0001:000144a0       ?CopyRangeTo2@StringStore@CryptoPP@@UEBA_KAEAVBufferedTransformation@2@AEA_K_KAEBV?$basic_string@DU?$char_traits@D@std@@V?$allocator@D@2@@std@@_N@Z 00000001400154a0 f   cryptlib:filters.obj
 0001:00014520       ?CreatePutSpace@ArraySink@CryptoPP@@UEAAPEAEAEA_K@Z 0000000140015520 f   cryptlib:filters.obj
 0001:00014550       ?CreatePutSpace@OutputProxy@CryptoPP@@UEAAPEAEAEA_K@Z 0000000140015550 f i cryptlib:filters.obj
 0001:00014580       ?Detach@Filter@CryptoPP@@UEAAXPEAVBufferedTransformation@2@@Z 0000000140015580 f   cryptlib:filters.obj
 0001:000145c0       ?FirstPut@StreamTransformationFilter@CryptoPP@@MEAAXPEBE@Z 00000001400155c0 f   cryptlib:filters.obj
 0001:00014630       ?Flush@Filter@CryptoPP@@UEAA_N_NH0@Z 0000000140015630 f   cryptlib:filters.obj
 0001:000146e0       ?Flush@OutputProxy@CryptoPP@@UEAA_N_NH0@Z 00000001400156e0 f i cryptlib:filters.obj
 0001:00014750       ?ForceNextPut@FilterWithBufferedInput@CryptoPP@@QEAAXXZ 0000000140015750 f   cryptlib:filters.obj
 0001:00014880       ?GetContigousBlocks@BlockQueue@FilterWithBufferedInput@CryptoPP@@QEAAPEAEAEA_K@Z 0000000140015880 f   cryptlib:filters.obj
 0001:000148f0       ?GetNextMessage@Store@CryptoPP@@UEAA_NXZ 00000001400158f0 f   cryptlib:filters.obj
 0001:00014920       ?HelpCreatePutSpace@FilterPutSpaceHelper@CryptoPP@@QEAAPEAEAEAVBufferedTransformation@2@AEBV?$basic_string@DU?$char_traits@D@std@@V?$allocator@D@2@@std@@_K2@Z 0000000140015920 f i cryptlib:filters.obj
 0001:00014980       ?HelpCreatePutSpace@FilterPutSpaceHelper@CryptoPP@@QEAAPEAEAEAVBufferedTransformation@2@AEBV?$basic_string@DU?$char_traits@D@std@@V?$allocator@D@2@@std@@_K@Z 0000000140015980 f i cryptlib:filters.obj
 0001:000149e0       ?Initialize@Filter@CryptoPP@@UEAAXAEBVNameValuePairs@2@H@Z 00000001400159e0 f   cryptlib:filters.obj
 0001:00014a40       ?Initialize@OutputProxy@CryptoPP@@UEAAXAEBVNameValuePairs@2@H@Z 0000000140015a40 f i cryptlib:filters.obj
 0001:00014a80       ?InitializeDerivedAndReturnNewSizes@StreamTransformationFilter@CryptoPP@@MEAAXAEBVNameValuePairs@2@AEA_K11@Z 0000000140015a80 f   cryptlib:filters.obj
 0001:00014c80       ?IsolatedFlush@FilterWithBufferedInput@CryptoPP@@UEAA_N_N0@Z 0000000140015c80 f   cryptlib:filters.obj
 0001:00014d10       ?IsolatedFlush@ProxyFilter@CryptoPP@@UEAA_N_N0@Z 0000000140015d10 f   cryptlib:filters.obj
 0001:00014d30       ?IsolatedInitialize@ArraySink@CryptoPP@@UEAAXAEBVNameValuePairs@2@@Z 0000000140015d30 f   cryptlib:filters.obj
 0001:00014de0       ?IsolatedInitialize@FilterWithBufferedInput@CryptoPP@@UEAAXAEBVNameValuePairs@2@@Z 0000000140015de0 f   cryptlib:filters.obj
 0001:00014ea0       ?LastPut@StreamTransformationFilter@CryptoPP@@MEAAXPEBE_K@Z 0000000140015ea0 f   cryptlib:filters.obj
 0001:00015420       ?MessageSeriesEnd@Filter@CryptoPP@@UEAA_NH_N@Z 0000000140016420 f   cryptlib:filters.obj
 0001:000154e0       ?MessageSeriesEnd@OutputProxy@CryptoPP@@UEAA_NH_N@Z 00000001400164e0 f i cryptlib:filters.obj
 0001:00015530       ?MoveInto@?$AlgorithmParametersTemplate@W4BlockPaddingScheme@BlockPaddingSchemeDef@CryptoPP@@@CryptoPP@@UEBAXPEAX@Z 0000000140016530 f i cryptlib:filters.obj
 0001:00015570       ?NewDefaultAttachment@Filter@CryptoPP@@MEBAPEAVBufferedTransformation@2@XZ 0000000140016570 f   cryptlib:filters.obj
 0001:000155b0       ?NextPutModifiable@ProxyFilter@CryptoPP@@UEAAXPEAE_K@Z 00000001400165b0 f   cryptlib:filters.obj
 0001:000155e0       ?NextPutModifiable@StreamTransformationFilter@CryptoPP@@MEAAXPEAE_K@Z 00000001400165e0 f   cryptlib:filters.obj
 0001:00015640       ?NextPutMultiple@FilterWithBufferedInput@CryptoPP@@MEAAXPEBE_K@Z 0000000140016640 f   cryptlib:filters.obj
 0001:00015690       ?NextPutMultiple@ProxyFilter@CryptoPP@@UEAAXPEBE_K@Z 0000000140016690 f   cryptlib:filters.obj
 0001:000156c0       ?NextPutMultiple@StreamTransformationFilter@CryptoPP@@MEAAXPEBE_K@Z 00000001400166c0 f   cryptlib:filters.obj
 0001:00015830       ?Output@Filter@CryptoPP@@IEAA_KHPEBE_KH_NAEBV?$basic_string@DU?$char_traits@D@std@@V?$allocator@D@2@@std@@@Z 0000000140016830 f   cryptlib:filters.obj
 0001:000158c0       ?Put2@ArraySink@CryptoPP@@UEAA_KPEBE_KH_N@Z 00000001400168c0 f   cryptlib:filters.obj
 0001:00015930       ?Put2@OutputProxy@CryptoPP@@UEAA_KPEBE_KH_N@Z 0000000140016930 f i cryptlib:filters.obj
 0001:000159a0       ?Put@BlockQueue@FilterWithBufferedInput@CryptoPP@@QEAAXPEBE_K@Z 00000001400169a0 f   cryptlib:filters.obj
 0001:00015a40       ?PutMaybeModifiable@FilterWithBufferedInput@CryptoPP@@IEAA_KPEAE_KH_N2@Z 0000000140016a40 f   cryptlib:filters.obj
 0001:00016010       ?PutModifiable2@OutputProxy@CryptoPP@@UEAA_KPEAE_KH_N@Z 0000000140017010 f i cryptlib:filters.obj
 0001:00016080       ?ResetQueue@BlockQueue@FilterWithBufferedInput@CryptoPP@@QEAAX_K0@Z 0000000140017080 f   cryptlib:filters.obj
 0001:000160d0       ?StoreInitialize@StringStore@CryptoPP@@EEAAXAEBVNameValuePairs@2@@Z 00000001400170d0 f   cryptlib:filters.obj
 0001:000161f0       ?TransferTo2@Filter@CryptoPP@@UEAA_KAEAVBufferedTransformation@2@AEA_KAEBV?$basic_string@DU?$char_traits@D@std@@V?$allocator@D@2@@std@@_N@Z 00000001400171f0 f   cryptlib:filters.obj
 0001:00016240       ?TransferTo2@StringStore@CryptoPP@@UEAA_KAEAVBufferedTransformation@2@AEA_KAEBV?$basic_string@DU?$char_traits@D@std@@V?$allocator@D@2@@std@@_N@Z 0000000140017240 f   cryptlib:filters.obj
 0001:00016290       ??0AlgorithmParameters@CryptoPP@@QEAA@AEBV01@@Z 0000000140017290 f   cryptlib:algparam.obj
 0001:000162f0       ??0AlgorithmParameters@CryptoPP@@QEAA@XZ 00000001400172f0 f   cryptlib:algparam.obj
 0001:00016310       ??_GAlgorithmParameters@CryptoPP@@UEAAPEAXI@Z 0000000140017310 f i cryptlib:algparam.obj
 0001:00016310       ??_EAlgorithmParameters@CryptoPP@@UEAAPEAXI@Z 0000000140017310 f i cryptlib:algparam.obj
 0001:00016360       ?GetVoidValue@AlgorithmParameters@CryptoPP@@UEBA_NPEBDAEBVtype_info@@PEAX@Z 0000000140017360 f   cryptlib:algparam.obj
 0001:00016370       ?GetVoidValue@AlgorithmParametersBase@CryptoPP@@QEBA_NPEBDAEBVtype_info@@PEAX@Z 0000000140017370 f   cryptlib:algparam.obj
 0001:000164a0       ?GetVoidValue@CombinedNameValuePairs@CryptoPP@@UEBA_NPEBDAEBVtype_info@@PEAX@Z 00000001400174a0 f   cryptlib:algparam.obj
 0001:00016548       ??$?RI@?$GetBlock@IU?$EnumToType@W4ByteOrder@CryptoPP@@$0A@@CryptoPP@@$0A@@CryptoPP@@QEAAAEAV01@AEAI@Z 0000000140017548 f i cryptlib:rijndael.obj
 0001:000165c8       ??$?RI@?$PutBlock@IU?$EnumToType@W4ByteOrder@CryptoPP@@$0A@@CryptoPP@@$0A@@CryptoPP@@QEAAAEAV01@I@Z 00000001400175c8 f i cryptlib:rijndael.obj
 0001:00016698       ??$ByteReverse@I@CryptoPP@@YAXPEAIPEBI_K@Z 0000000140017698 f i cryptlib:rijndael.obj
 0001:0001670c       ??$GetUserKey@I@CryptoPP@@YAXW4ByteOrder@0@PEAI_KPEBE2@Z 000000014001770c f i cryptlib:rijndael.obj
 0001:000167d8       ??$RoundDownToMultipleOf@_K_K@CryptoPP@@YA_KAEB_K0@Z 00000001400177d8 f i cryptlib:rijndael.obj
 0001:000168ac       ??$RoundUpToMultipleOf@_K_K@CryptoPP@@YA_KAEB_K0@Z 00000001400178ac f i cryptlib:rijndael.obj
 0001:00016988       ??$StandardReallocate@IV?$AllocatorWithCleanup@I$00@CryptoPP@@@CryptoPP@@YAPEAIAEAV?$AllocatorWithCleanup@I$00@0@PEAI_K2_N@Z 0000000140017988 f i cryptlib:rijndael.obj
 0001:00016bd0       ?AdvancedProcessBlocks@Enc@Rijndael@CryptoPP@@UEBA_KPEBE0PEAE_KI@Z 0000000140017bd0 f   cryptlib:rijndael.obj
 0001:00017080       ?AlgorithmProvider@Base@Rijndael@CryptoPP@@UEBA?AV?$basic_string@DU?$char_traits@D@std@@V?$allocator@D@2@@std@@XZ 0000000140018080 f   cryptlib:rijndael.obj
 0001:00017200       ?ByteReverse@CryptoPP@@YAII@Z 0000000140018200 f i cryptlib:rijndael.obj
 0001:00017208       ?FillDecTable@Base@Rijndael@CryptoPP@@KAXXZ 0000000140018208 f   cryptlib:rijndael.obj
 0001:00017434       ?FillEncTable@Base@Rijndael@CryptoPP@@KAXXZ 0000000140018434 f   cryptlib:rijndael.obj
 0001:00017530       ?GetCacheLineSize@CryptoPP@@YAHXZ 0000000140018530 f i cryptlib:rijndael.obj
 0001:00017550       ?HasAESNI@CryptoPP@@YA_NXZ 0000000140018550 f i cryptlib:rijndael.obj
 0001:00017570       ?HasSSE41@CryptoPP@@YA_NXZ 0000000140018570 f i cryptlib:rijndael.obj
 0001:00017590       ?NativeByteOrderIs@CryptoPP@@YA_NW4ByteOrder@1@@Z 0000000140018590 f i cryptlib:rijndael.obj
 0001:00017598       ?New@?$SecBlock@IV?$AllocatorWithCleanup@I$00@CryptoPP@@@CryptoPP@@QEAAX_K@Z 0000000140018598 f i cryptlib:rijndael.obj
 0001:00017614       ?OptimalDataAlignment@Base@Rijndael@CryptoPP@@UEBAIXZ 0000000140018614 f   cryptlib:rijndael.obj
 0001:00017644       ?ProcessAndXorBlock@Enc@Rijndael@CryptoPP@@UEBAXPEBE0PEAE@Z 0000000140018644 f   cryptlib:rijndael.obj
 0001:000185c4       ?UncheckedSetKey@Base@Rijndael@CryptoPP@@UEAAXPEBEIAEBVNameValuePairs@3@@Z 00000001400195c4 f   cryptlib:rijndael.obj
 0001:00019c00       ?memset_z@CryptoPP@@YAPEAXPEAXH_K@Z 000000014001ac00 f i cryptlib:rijndael.obj
 0001:00019cd0       ?AlignedAllocate@CryptoPP@@YAPEAX_K@Z 000000014001acd0 f   cryptlib:allocate.obj
 0001:00019d50       ?AlignedDeallocate@CryptoPP@@YAXPEAX@Z 000000014001ad50 f   cryptlib:allocate.obj
 0001:00019d60       ?UnalignedAllocate@CryptoPP@@YAPEAX_K@Z 000000014001ad60 f   cryptlib:allocate.obj
 0001:00019dd0       ??3@YAXPEAX@Z              000000014001add0 f   LIBCMT:delete_scalar.obj
 0001:00019dd0       ?UnalignedDeallocate@CryptoPP@@YAXPEAX@Z 000000014001add0 f   cryptlib:allocate.obj
 0001:00019de0       ?GetRequiredIntParameter@NameValuePairs@CryptoPP@@QEBAXPEBD0AEAH@Z 000000014001ade0 f i cryptlib:basecode.obj
 0001:00019eb0       ?IsolatedInitialize@BaseN_Decoder@CryptoPP@@UEAAXAEBVNameValuePairs@2@@Z 000000014001aeb0 f   cryptlib:basecode.obj
 0001:0001a040       ?IsolatedInitialize@BaseN_Encoder@CryptoPP@@UEAAXAEBVNameValuePairs@2@@Z 000000014001b040 f   cryptlib:basecode.obj
 0001:0001a210       ?IsolatedInitialize@Grouper@CryptoPP@@UEAAXAEBVNameValuePairs@2@@Z 000000014001b210 f   cryptlib:basecode.obj
 0001:0001a4c0       ?Put2@BaseN_Decoder@CryptoPP@@UEAA_KPEBE_KH_N@Z 000000014001b4c0 f   cryptlib:basecode.obj
 0001:0001a6a0       ?Put2@BaseN_Encoder@CryptoPP@@UEAA_KPEBE_KH_N@Z 000000014001b6a0 f   cryptlib:basecode.obj
 0001:0001a900       ?Put2@Grouper@CryptoPP@@UEAA_KPEBE_KH_N@Z 000000014001b900 f   cryptlib:basecode.obj
 0001:0001aaf0       ??$IntToString@_K@CryptoPP@@YA?AV?$basic_string@DU?$char_traits@D@std@@V?$allocator@D@2@@std@@_KI@Z 000000014001baf0 f   cryptlib:integer.obj
 0001:0001ad20       ??0Integer@CryptoPP@@AEAA@_K0@Z 000000014001bd20 f   cryptlib:integer.obj
 0001:0001adc0       ??0Integer@CryptoPP@@QEAA@AEBV01@@Z 000000014001bdc0 f   cryptlib:integer.obj
 0001:0001aec0       ??0Integer@CryptoPP@@QEAA@XZ 000000014001bec0 f   cryptlib:integer.obj
 0001:0001af40       ??_GInteger@CryptoPP@@UEAAPEAXI@Z 000000014001bf40 f i cryptlib:integer.obj
 0001:0001af40       ??_EInteger@CryptoPP@@UEAAPEAXI@Z 000000014001bf40 f i cryptlib:integer.obj
 0001:0001afb0       ?AssignIntToInteger@CryptoPP@@YA_NAEBVtype_info@@PEAXPEBX@Z 000000014001bfb0 f   cryptlib:integer.obj
 0001:0001b0f0       ?BERDecode@Integer@CryptoPP@@UEAAXAEAVBufferedTransformation@2@@Z 000000014001c0f0 f   cryptlib:integer.obj
 0001:0001b190       ?Baseline_Multiply16@CryptoPP@@YAXPEA_KPEB_K1@Z 000000014001c190 f   cryptlib:integer.obj
 0001:0001d950       ?Baseline_Multiply2@CryptoPP@@YAXPEA_KPEB_K1@Z 000000014001e950 f   cryptlib:integer.obj
 0001:0001d9d0       ?Baseline_Multiply4@CryptoPP@@YAXPEA_KPEB_K1@Z 000000014001e9d0 f   cryptlib:integer.obj
 0001:0001dc10       ?Baseline_Multiply8@CryptoPP@@YAXPEA_KPEB_K1@Z 000000014001ec10 f   cryptlib:integer.obj
 0001:0001e590       ?Baseline_MultiplyBottom16@CryptoPP@@YAXPEA_KPEB_K1@Z 000000014001f590 f   cryptlib:integer.obj
 0001:0001f920       ?Baseline_MultiplyBottom2@CryptoPP@@YAXPEA_KPEB_K1@Z 0000000140020920 f   cryptlib:integer.obj
 0001:0001f950       ?Baseline_MultiplyBottom4@CryptoPP@@YAXPEA_KPEB_K1@Z 0000000140020950 f   cryptlib:integer.obj
 0001:0001fa40       ?Baseline_MultiplyBottom8@CryptoPP@@YAXPEA_KPEB_K1@Z 0000000140020a40 f   cryptlib:integer.obj
 0001:0001fe90       ?Baseline_MultiplyTop16@CryptoPP@@YAXPEA_KPEB_K1_K@Z 0000000140020e90 f   cryptlib:integer.obj
 0001:00021590       ?Baseline_MultiplyTop2@CryptoPP@@YAXPEA_KPEB_K1_K@Z 0000000140022590 f   cryptlib:integer.obj
 0001:00021620       ?Baseline_MultiplyTop4@CryptoPP@@YAXPEA_KPEB_K1_K@Z 0000000140022620 f   cryptlib:integer.obj
 0001:00021810       ?Baseline_MultiplyTop8@CryptoPP@@YAXPEA_KPEB_K1_K@Z 0000000140022810 f   cryptlib:integer.obj
 0001:00021e30       ?Baseline_Square16@CryptoPP@@YAXPEA_KPEB_K@Z 0000000140022e30 f   cryptlib:integer.obj
 0001:00023300       ?Baseline_Square2@CryptoPP@@YAXPEA_KPEB_K@Z 0000000140024300 f   cryptlib:integer.obj
 0001:00023370       ?Baseline_Square4@CryptoPP@@YAXPEA_KPEB_K@Z 0000000140024370 f   cryptlib:integer.obj
 0001:00023510       ?Baseline_Square8@CryptoPP@@YAXPEA_KPEB_K@Z 0000000140024510 f   cryptlib:integer.obj
 0001:00023a70       ?ByteCount@Integer@CryptoPP@@QEBAIXZ 0000000140024a70 f   cryptlib:integer.obj
 0001:00023af0       ?CleanGrow@?$SecBlock@_KV?$AllocatorWithCleanup@_K$00@CryptoPP@@@CryptoPP@@QEAAX_K@Z 0000000140024af0 f i cryptlib:integer.obj
 0001:00023bc0       ?DEREncode@Integer@CryptoPP@@UEBAXAEAVBufferedTransformation@2@@Z 0000000140024bc0 f   cryptlib:integer.obj
 0001:00023c40       ?Decode@Integer@CryptoPP@@QEAAXAEAVBufferedTransformation@2@_KW4Signedness@12@@Z 0000000140024c40 f   cryptlib:integer.obj
 0001:00023ea0       ?Encode@Integer@CryptoPP@@QEBAXAEAVBufferedTransformation@2@_KW4Signedness@12@@Z 0000000140024ea0 f   cryptlib:integer.obj
 0001:000240b0       ?MinEncodedSize@Integer@CryptoPP@@QEBA_KW4Signedness@12@@Z 00000001400250b0 f   cryptlib:integer.obj
 0001:00024280       ?New@?$SecBlock@_KV?$AllocatorWithCleanup@_K$00@CryptoPP@@@CryptoPP@@QEAAX_K@Z 0000000140025280 f i cryptlib:integer.obj
 0001:000242f0       ?Plus@Integer@CryptoPP@@QEBA?AV12@AEBV12@@Z 00000001400252f0 f   cryptlib:integer.obj
 0001:000243b0       ?PositiveAdd@CryptoPP@@YAXAEAVInteger@1@AEBV21@1@Z 00000001400253b0 f   cryptlib:integer.obj
 0001:00024590       ?PositiveCompare@Integer@CryptoPP@@AEBAHAEBV12@@Z 0000000140025590 f   cryptlib:integer.obj
 0001:00024640       ?PositiveSubtract@CryptoPP@@YAXAEAVInteger@1@AEBV21@1@Z 0000000140025640 f   cryptlib:integer.obj
 0001:00024890       ?Power2@Integer@CryptoPP@@SA?AV12@_K@Z 0000000140025890 f   cryptlib:integer.obj
 0001:00024b70       ?allocate@?$AllocatorWithCleanup@_K$00@CryptoPP@@QEAAPEA_K_KPEBX@Z 0000000140025b70 f i cryptlib:integer.obj
 0001:00024c10       ?xorbuf@CryptoPP@@YAXPEAEPEBE1_K@Z 0000000140025c10 f   cryptlib:misc.obj
 0001:00024fc0       ?xorbuf@CryptoPP@@YAXPEAEPEBE_K@Z 0000000140025fc0 f   cryptlib:misc.obj
 0001:000252b0       ??0ByteQueue@CryptoPP@@QEAA@_K@Z 00000001400262b0 f   cryptlib:queue.obj
 0001:00025390       ??1ByteQueue@CryptoPP@@UEAA@XZ 0000000140026390 f   cryptlib:queue.obj
 0001:000253b4       ??_EByteQueue@CryptoPP@@W7EAAPEAXI@Z 00000001400263b4 f i cryptlib:queue.obj
 0001:000253c0       ??_EWalker@ByteQueue@CryptoPP@@W7EAAPEAXI@Z 00000001400263c0 f i cryptlib:queue.obj
 0001:000253d0       ??_GByteQueue@CryptoPP@@UEAAPEAXI@Z 00000001400263d0 f i cryptlib:queue.obj
 0001:000253d0       ??_EByteQueue@CryptoPP@@UEAAPEAXI@Z 00000001400263d0 f i cryptlib:queue.obj
 0001:00025420       ??_EWalker@ByteQueue@CryptoPP@@UEAAPEAXI@Z 0000000140026420 f i cryptlib:queue.obj
 0001:00025420       ??_GWalker@ByteQueue@CryptoPP@@UEAAPEAXI@Z 0000000140026420 f i cryptlib:queue.obj
 0001:00025450       ?CleanupUsedNodes@ByteQueue@CryptoPP@@AEAAXXZ 0000000140026450 f   cryptlib:queue.obj
 0001:00025510       ?Clear@ByteQueue@CryptoPP@@QEAAXXZ 0000000140026510 f   cryptlib:queue.obj
 0001:000255c0       ?CopyRangeTo2@ByteQueue@CryptoPP@@UEBA_KAEAVBufferedTransformation@2@AEA_K_KAEBV?$basic_string@DU?$char_traits@D@std@@V?$allocator@D@2@@std@@_N@Z 00000001400265c0 f   cryptlib:queue.obj
 0001:00025790       ?CopyRangeTo2@Walker@ByteQueue@CryptoPP@@UEBA_KAEAVBufferedTransformation@3@AEA_K_KAEBV?$basic_string@DU?$char_traits@D@std@@V?$allocator@D@2@@std@@_N@Z 0000000140026790 f   cryptlib:queue.obj
 0001:00025880       ?CreatePutSpace@ByteQueue@CryptoPP@@UEAAPEAEAEA_K@Z 0000000140026880 f   cryptlib:queue.obj
 0001:00025970       ?CurrentSize@ByteQueue@CryptoPP@@QEBA_KXZ 0000000140026970 f   cryptlib:queue.obj
 0001:000259a0       ?Destroy@ByteQueue@CryptoPP@@AEAAXXZ 00000001400269a0 f   cryptlib:queue.obj
 0001:00025a30       ?Get@ByteQueue@CryptoPP@@UEAA_KAEAE@Z 0000000140026a30 f   cryptlib:queue.obj
 0001:00025ac0       ?Get@ByteQueue@CryptoPP@@UEAA_KPEAE_K@Z 0000000140026ac0 f   cryptlib:queue.obj
 0001:00025ac0       ?Get@Walker@ByteQueue@CryptoPP@@UEAA_KPEAE_K@Z 0000000140026ac0 f   cryptlib:queue.obj
 0001:00025b70       ?Get@Walker@ByteQueue@CryptoPP@@UEAA_KAEAE@Z 0000000140026b70 f   cryptlib:queue.obj
 0001:00025c20       ?IsEmpty@ByteQueue@CryptoPP@@QEBA_NXZ 0000000140026c20 f   cryptlib:queue.obj
 0001:00025c50       ?IsolatedInitialize@ByteQueue@CryptoPP@@UEAAXAEBVNameValuePairs@2@@Z 0000000140026c50 f   cryptlib:queue.obj
 0001:00025ca0       ?IsolatedInitialize@Walker@ByteQueue@CryptoPP@@UEAAXAEBVNameValuePairs@3@@Z 0000000140026ca0 f   cryptlib:queue.obj
 0001:00025cd0       ?MaxRetrievable@Walker@ByteQueue@CryptoPP@@UEBA_KXZ 0000000140026cd0 f i cryptlib:queue.obj
 0001:00025d00       ?Peek@ByteQueue@CryptoPP@@UEBA_KAEAE@Z 0000000140026d00 f   cryptlib:queue.obj
 0001:00025d40       ?Peek@ByteQueue@CryptoPP@@UEBA_KPEAE_K@Z 0000000140026d40 f   cryptlib:queue.obj
 0001:00025d40       ?Peek@Walker@ByteQueue@CryptoPP@@UEBA_KPEAE_K@Z 0000000140026d40 f   cryptlib:queue.obj
 0001:00025df0       ?Peek@Walker@ByteQueue@CryptoPP@@UEBA_KAEAE@Z 0000000140026df0 f   cryptlib:queue.obj
 0001:00025ea0       ?Put2@ByteQueue@CryptoPP@@UEAA_KPEBE_KH_N@Z 0000000140026ea0 f   cryptlib:queue.obj
 0001:00026000       ?TransferTo2@ByteQueue@CryptoPP@@UEAA_KAEAVBufferedTransformation@2@AEA_KAEBV?$basic_string@DU?$char_traits@D@std@@V?$allocator@D@2@@std@@_N@Z 0000000140027000 f   cryptlib:queue.obj
 0001:00026290       ?TransferTo2@Walker@ByteQueue@CryptoPP@@UEAA_KAEAVBufferedTransformation@3@AEA_KAEBV?$basic_string@DU?$char_traits@D@std@@V?$allocator@D@2@@std@@_N@Z 0000000140027290 f   cryptlib:queue.obj
 0001:000263d0       ??0BERGeneralDecoder@CryptoPP@@QEAA@AEAVBufferedTransformation@1@E@Z 00000001400273d0 f   cryptlib:asn.obj
 0001:00026440       ??0DERGeneralEncoder@CryptoPP@@QEAA@AEAVBufferedTransformation@1@E@Z 0000000140027440 f   cryptlib:asn.obj
 0001:000264a0       ??1BERGeneralDecoder@CryptoPP@@UEAA@XZ 00000001400274a0 f   cryptlib:asn.obj
 0001:00026510       ??1DERGeneralEncoder@CryptoPP@@UEAA@XZ 0000000140027510 f   cryptlib:asn.obj
 0001:00026554       ??_EBERGeneralDecoder@CryptoPP@@W7EAAPEAXI@Z 0000000140027554 f i cryptlib:asn.obj
 0001:00026560       ??_EDERGeneralEncoder@CryptoPP@@W7EAAPEAXI@Z 0000000140027560 f i cryptlib:asn.obj
 0001:00026570       ??_GBERGeneralDecoder@CryptoPP@@UEAAPEAXI@Z 0000000140027570 f i cryptlib:asn.obj
 0001:00026570       ??_EBERGeneralDecoder@CryptoPP@@UEAAPEAXI@Z 0000000140027570 f i cryptlib:asn.obj
 0001:000265b0       ??_EDERGeneralEncoder@CryptoPP@@UEAAPEAXI@Z 00000001400275b0 f i cryptlib:asn.obj
 0001:000265b0       ??_GDERGeneralEncoder@CryptoPP@@UEAAPEAXI@Z 00000001400275b0 f i cryptlib:asn.obj
 0001:000265f0       ?BERLengthDecode@CryptoPP@@YA_NAEAVBufferedTransformation@1@AEA_KAEA_N@Z 00000001400275f0 f   cryptlib:asn.obj
 0001:000266b0       ?CopyRangeTo2@BERGeneralDecoder@CryptoPP@@UEBA_KAEAVBufferedTransformation@2@AEA_K_KAEBV?$basic_string@DU?$char_traits@D@std@@V?$allocator@D@2@@std@@_N@Z 00000001400276b0 f   cryptlib:asn.obj
 0001:000266e0       ?DERLengthEncode@CryptoPP@@YA_KAEAVBufferedTransformation@1@_K@Z 00000001400276e0 f   cryptlib:asn.obj
 0001:00026820       ?Init@BERGeneralDecoder@CryptoPP@@AEAAXE@Z 0000000140027820 f   cryptlib:asn.obj
 0001:00026890       ?MessageEnd@BERGeneralDecoder@CryptoPP@@QEAAXXZ 0000000140027890 f   cryptlib:asn.obj
 0001:000268e0       ?MessageEnd@DERGeneralEncoder@CryptoPP@@QEAAXXZ 00000001400278e0 f   cryptlib:asn.obj
 0001:00026960       ?TransferTo2@BERGeneralDecoder@CryptoPP@@UEAA_KAEAVBufferedTransformation@2@AEA_KAEBV?$basic_string@DU?$char_traits@D@std@@V?$allocator@D@2@@std@@_N@Z 0000000140027960 f   cryptlib:asn.obj
 0001:000269d0       ?GetPowerUpSelfTestStatus@CryptoPP@@YA?AW4PowerUpSelfTestStatus@1@XZ 00000001400279d0 f   cryptlib:fips140.obj
 0001:000269e0       ??0PolynomialMod2@CryptoPP@@QEAA@XZ 00000001400279e0 f   cryptlib:gf2n.obj
 0001:00026a20       ??0MessageQueue@CryptoPP@@QEAA@I@Z 0000000140027a20 f   cryptlib:mqueue.obj
 0001:00026c20       ??1?$_Container_proxy_ptr12@V?$allocator@U_Container_proxy@std@@@std@@@std@@QEAA@XZ 0000000140027c20 f i cryptlib:mqueue.obj
 0001:00026c40       ??1?$_Tidy_guard@V?$deque@_KV?$allocator@_K@std@@@std@@@std@@QEAA@XZ 0000000140027c40 f i cryptlib:mqueue.obj
 0001:00026c40       ??1?$_Tidy_guard@V?$deque@IV?$allocator@I@std@@@std@@@std@@QEAA@XZ 0000000140027c40 f i cryptlib:mqueue.obj
 0001:00026c50       ??1?$deque@_KV?$allocator@_K@std@@@std@@QEAA@XZ 0000000140027c50 f i cryptlib:mqueue.obj
 0001:00026c80       ??1MessageQueue@CryptoPP@@UEAA@XZ 0000000140027c80 f i cryptlib:mqueue.obj
 0001:00026ce8       ??_EMessageQueue@CryptoPP@@W7EAAPEAXI@Z 0000000140027ce8 f i cryptlib:mqueue.obj
 0001:00026d00       ??_GMessageQueue@CryptoPP@@UEAAPEAXI@Z 0000000140027d00 f i cryptlib:mqueue.obj
 0001:00026d00       ??_EMessageQueue@CryptoPP@@UEAAPEAXI@Z 0000000140027d00 f i cryptlib:mqueue.obj
 0001:00026d40       ?AnyRetrievable@MessageQueue@CryptoPP@@UEBA_NXZ 0000000140027d40 f i cryptlib:mqueue.obj
 0001:00026d70       ?CopyRangeTo2@MessageQueue@CryptoPP@@UEBA_KAEAVBufferedTransformation@2@AEA_K_KAEBV?$basic_string@DU?$char_traits@D@std@@V?$allocator@D@2@@std@@_N@Z 0000000140027d70 f   cryptlib:mqueue.obj
 0001:00026e00       ?GetNextMessage@MessageQueue@CryptoPP@@UEAA_NXZ 0000000140027e00 f   cryptlib:mqueue.obj
 0001:00026ec0       ?IsolatedInitialize@MessageQueue@CryptoPP@@UEAAXAEBVNameValuePairs@2@@Z 0000000140027ec0 f i cryptlib:mqueue.obj
 0001:00027160       ?IsolatedMessageSeriesEnd@MessageQueue@CryptoPP@@UEAA_N_N@Z 0000000140028160 f i cryptlib:mqueue.obj
 0001:00027220       ?MaxRetrievable@MessageQueue@CryptoPP@@UEBA_KXZ 0000000140028220 f i cryptlib:mqueue.obj
 0001:00027250       ?NumberOfMessageSeries@MessageQueue@CryptoPP@@UEBAIXZ 0000000140028250 f i cryptlib:mqueue.obj
 0001:00027260       ?NumberOfMessages@MessageQueue@CryptoPP@@UEBAIXZ 0000000140028260 f i cryptlib:mqueue.obj
 0001:00027270       ?NumberOfMessagesInThisSeries@MessageQueue@CryptoPP@@UEBAIXZ 0000000140028270 f i cryptlib:mqueue.obj
 0001:000272a0       ?Put2@MessageQueue@CryptoPP@@UEAA_KPEBE_KH_N@Z 00000001400282a0 f i cryptlib:mqueue.obj
 0001:00027410       ?TotalBytesRetrievable@MessageQueue@CryptoPP@@UEBA_KXZ 0000000140028410 f i cryptlib:mqueue.obj
 0001:00027420       ?TransferTo2@MessageQueue@CryptoPP@@UEAA_KAEAVBufferedTransformation@2@AEA_KAEBV?$basic_string@DU?$char_traits@D@std@@V?$allocator@D@2@@std@@_N@Z 0000000140028420 f   cryptlib:mqueue.obj
 0001:000274c0       ?_Growmap@?$deque@IV?$allocator@I@std@@@std@@AEAAX_K@Z 00000001400284c0 f i cryptlib:mqueue.obj
 0001:000276a0       ?_Growmap@?$deque@_KV?$allocator@_K@std@@@std@@AEAAX_K@Z 00000001400286a0 f i cryptlib:mqueue.obj
 0001:00027880       ?_Tidy@?$deque@_KV?$allocator@_K@std@@@std@@AEAAXXZ 0000000140028880 f i cryptlib:mqueue.obj
 0001:00027880       ?_Tidy@?$deque@IV?$allocator@I@std@@@std@@AEAAXXZ 0000000140028880 f i cryptlib:mqueue.obj
 0001:00027940       ?_Xlen@?$deque@IV?$allocator@I@std@@@std@@AEBAXXZ 0000000140028940 f i cryptlib:mqueue.obj
 0001:00027940       ?_Xlen@?$deque@_KV?$allocator@_K@std@@@std@@AEBAXXZ 0000000140028940 f i cryptlib:mqueue.obj
 0001:00027960       ?DetectX86Features@CryptoPP@@YAXXZ 0000000140028960 f   cryptlib:cpu.obj
 0001:00027ce0       ??$AdvancedProcessBlocks128_4x1_SSE@P6AXAEAT__m128i@@PEBII@ZP6AX00001I@ZI@CryptoPP@@YA_KP6AXAEAT__m128i@@PEBII@ZP6AX00001I@Z1_KPEBE5PEAE4I@Z 0000000140028ce0 f i cryptlib:rijndael_simd.obj
 0001:00028160       ?Rijndael_Enc_AdvancedProcessBlocks_AESNI@CryptoPP@@YA_KPEBI_KPEBE2PEAE1I@Z 0000000140029160 f   cryptlib:rijndael_simd.obj
 0001:000281c0       ?Rijndael_UncheckedSetKeyRev_AESNI@CryptoPP@@YAXPEAII@Z 00000001400291c0 f   cryptlib:rijndael_simd.obj
 0001:00028230       ?Rijndael_UncheckedSetKey_SSE4_AESNI@CryptoPP@@YAXPEBE_KPEAI@Z 0000000140029230 f   cryptlib:rijndael_simd.obj
 0001:000283a0       Baseline_Add               00000001400293a0 f   cryptlib:x64dll.obj
 0001:000283f0       Baseline_Sub               00000001400293f0 f   cryptlib:x64dll.obj
 0001:00028440       Rijndael_Enc_AdvancedProcessBlocks_SSE2 0000000140029440 f   cryptlib:x64dll.obj
 0001:00028a98       GCM_AuthenticateBlocks_2K_SSE2 0000000140029a98 f   cryptlib:x64dll.obj
 0001:00028d18       GCM_AuthenticateBlocks_64K_SSE2 0000000140029d18 f   cryptlib:x64dll.obj
 0001:00028e60       SHA256_HashMultipleBlocks_SSE2 0000000140029e60 f   cryptlib:x64dll.obj
 0001:00029d08       XGETBV64                   000000014002ad08 f   cryptlib:x64dll.obj
 0001:00029d18       ??2@YAPEAX_K@Z             000000014002ad18 f   LIBCMT:new_scalar.obj
 0001:00029d54       ??3@YAXPEAX_K@Z            000000014002ad54 f   LIBCMT:delete_scalar_size.obj
 0001:00029d54       ??_V@YAXPEAX@Z             000000014002ad54 f   LIBCMT:delete_array.obj
 0001:00029d5c       ??_Etype_info@@UEAAPEAXI@Z 000000014002ad5c f i LIBCMT:std_type_info_static.obj
 0001:00029d5c       ??_Gtype_info@@UEAAPEAXI@Z 000000014002ad5c f i LIBCMT:std_type_info_static.obj
 0001:00029d88       ?__scrt_initialize_type_info@@YAXXZ 000000014002ad88 f   LIBCMT:tncleanup.obj
 0001:00029e90       _Init_thread_abort         000000014002ae90 f   LIBCMT:thread_safe_statics.obj
 0001:00029ec0       _Init_thread_footer        000000014002aec0 f   LIBCMT:thread_safe_statics.obj
 0001:00029f20       _Init_thread_header        000000014002af20 f   LIBCMT:thread_safe_statics.obj
 0001:00029f88       _Init_thread_notify        000000014002af88 f   LIBCMT:thread_safe_statics.obj
 0001:00029fcc       _Init_thread_wait          000000014002afcc f   LIBCMT:thread_safe_statics.obj
 0001:0002a030       ??_M@YAXPEAX_K1P6AX0@Z@Z   000000014002b030 f   LIBCMT:ehvecdtr.obj
 0001:0002a09c       ?__ArrayUnwind@@YAXPEAX_K1P6AX0@Z@Z 000000014002b09c f   LIBCMT:ehvecdtr.obj
 0001:0002a100       __scrt_acquire_startup_lock 000000014002b100 f   LIBCMT:utility.obj
 0001:0002a13c       __scrt_initialize_crt      000000014002b13c f   LIBCMT:utility.obj
 0001:0002a188       __scrt_initialize_onexit_tables 000000014002b188 f   LIBCMT:utility.obj
 0001:0002a214       __scrt_is_nonwritable_in_current_image 000000014002b214 f   LIBCMT:utility.obj
 0001:0002a2ac       __scrt_release_startup_lock 000000014002b2ac f   LIBCMT:utility.obj
 0001:0002a2d0       __scrt_uninitialize_crt    000000014002b2d0 f   LIBCMT:utility.obj
 0001:0002a2fc       _onexit                    000000014002b2fc f   LIBCMT:utility.obj
 0001:0002a338       atexit                     000000014002b338 f   LIBCMT:utility.obj
 0001:0002a350       ??_L@YAXPEAX_K1P6AX0@Z2@Z  000000014002b350 f   LIBCMT:ehvecctr.obj
 0001:0002a618       WinMainCRTStartup          000000014002b618 f   LIBCMT:exe_winmain.obj
 0001:0002a62c       __GSHandlerCheck           000000014002b62c f   LIBCMT:gshandler.obj
 0001:0002a64c       __GSHandlerCheckCommon     000000014002b64c f   LIBCMT:gshandler.obj
 0001:0002a6c0       __security_check_cookie    000000014002b6c0 f   LIBCMT:amdsecgs.obj
 0001:0002a6e4       __GSHandlerCheck_EH4       000000014002b6e4 f   LIBCMT:gshandlereh4.obj
 0001:0002a780       _alloca_probe              000000014002b780 f   LIBCMT:chkstk.obj
 0001:0002a780       __chkstk                   000000014002b780 f   LIBCMT:chkstk.obj
 0001:0002a7d4       __isa_available_init       000000014002b7d4 f   LIBCMT:cpu_disp.obj
 0001:0002a978       ?__scrt_throw_std_bad_alloc@@YAXXZ 000000014002b978 f   LIBCMT:throw_bad_alloc.obj
 0001:0002a998       __crt_debugger_hook        000000014002b998 f   LIBCMT:utility_desktop.obj
 0001:0002a9a0       __scrt_fastfail            000000014002b9a0 f   LIBCMT:utility_desktop.obj
 0001:0002aaec       __scrt_get_show_window_mode 000000014002baec f   LIBCMT:utility_desktop.obj
 0001:0002ab28       __scrt_initialize_mta      000000014002bb28 f   LIBCMT:utility_desktop.obj
 0001:0002ab30       __scrt_is_managed_app      000000014002bb30 f   LIBCMT:utility_desktop.obj
 0001:0002ab84       __scrt_set_unhandled_exception_filter 000000014002bb84 f   LIBCMT:utility_desktop.obj
 0001:0002ab94       __scrt_unhandled_exception_filter 000000014002bb94 f   LIBCMT:utility_desktop.obj
 0001:0002abf0       __scrt_is_ucrt_dll_in_use  000000014002bbf0 f   LIBCMT:ucrt_detection.obj
 0001:0002abfc       __security_init_cookie     000000014002bbfc f   LIBCMT:gs_support.obj
 0001:0002aca8       _get_startup_file_mode     000000014002bca8 f   LIBCMT:file_mode.obj
 0001:0002acb0       __scrt_initialize_default_local_stdio_options 000000014002bcb0 f   LIBCMT:default_local_stdio_options.obj
 0001:0002accc       __scrt_is_user_matherr_present 000000014002bccc f   LIBCMT:matherr_detection.obj
 0001:0002acd8       __scrt_get_dyn_tls_init_callback 000000014002bcd8 f   LIBCMT:dyn_tls_init.obj
 0001:0002ace0       __scrt_get_dyn_tls_dtor_callback 000000014002bce0 f   LIBCMT:dyn_tls_dtor.obj
 0001:0002ace8       _RTC_Initialize            000000014002bce8 f   LIBCMT:initsect.obj
 0001:0002ad24       _RTC_Terminate             000000014002bd24 f   LIBCMT:initsect.obj
 0001:0002ad60       __raise_securityfailure    000000014002bd60 f   LIBCMT:gs_report.obj
 0001:0002ad94       __report_gsfailure         000000014002bd94 f   LIBCMT:gs_report.obj
 0001:0002ae68       __report_rangecheckfailure 000000014002be68 f   LIBCMT:gs_report.obj
 0001:0002ae7c       __report_securityfailure   000000014002be7c f   LIBCMT:gs_report.obj
 0001:0002b000       ??$_CallSETranslator@V__FrameHandler4@@@@YAHPEAUEHExceptionRecord@@PEA_KPEAU_CONTEXT@@PEAU_xDISPATCHER_CONTEXT@@PEAUFuncInfo4@FH4@@K1@Z 000000014002c000 f i libvcruntime:risctrnsctrl.obj
 0001:0002b054       ?DecompFuncInfo@FH4@@YA_JPEAEAEAUFuncInfo4@1@_KH_N@Z 000000014002c054 f i libvcruntime:risctrnsctrl.obj
 0001:0002b178       ?ExecutionInCatch@__FrameHandler4@@SA_NPEAU_xDISPATCHER_CONTEXT@@PEAUFuncInfo4@FH4@@@Z 000000014002c178 f   libvcruntime:risctrnsctrl.obj
 0001:0002b180       ?FrameUnwindToEmptyState@__FrameHandler4@@SAXPEA_KPEAU_xDISPATCHER_CONTEXT@@PEAUFuncInfo4@FH4@@@Z 000000014002c180 f   libvcruntime:risctrnsctrl.obj
 0001:0002b1b4       ?GetEstablisherFrame@__FrameHandler4@@SAPEA_KPEA_KPEAU_xDISPATCHER_CONTEXT@@PEAUFuncInfo4@FH4@@0@Z 000000014002c1b4 f   libvcruntime:risctrnsctrl.obj
 0001:0002b1d8       ?GetRangeOfTrysToCheck@__FrameHandler4@@SA?AU?$pair@Viterator@TryBlockMap4@FH4@@V123@@std@@AEAVTryBlockMap4@FH4@@HPEAU_xDISPATCHER_CONTEXT@@PEAUFuncInfo4@5@H@Z 000000014002c1d8 f   libvcruntime:risctrnsctrl.obj
 0001:0002b334       ?UnwindNestedFrames@__FrameHandler4@@SAXPEA_KPEAUEHExceptionRecord@@PEAU_CONTEXT@@0PEAXPEAUFuncInfo4@FH4@@HHPEAUHandlerType4@5@PEAU_xDISPATCHER_CONTEXT@@E@Z 000000014002c334 f   libvcruntime:risctrnsctrl.obj
 0001:0002b454       ?setBuffer@TryBlockMap4@FH4@@QEAAXViterator@12@@Z 000000014002c454 f i libvcruntime:risctrnsctrl.obj
 0001:0002b618       _CreateFrameInfo           000000014002c618 f   libvcruntime:risctrnsctrl.obj
 0001:0002b654       _FindAndUnlinkFrame        000000014002c654 f   libvcruntime:risctrnsctrl.obj
 0001:0002b6a8       _GetImageBase              000000014002c6a8 f   libvcruntime:risctrnsctrl.obj
 0001:0002b6bc       _GetThrowImageBase         000000014002c6bc f   libvcruntime:risctrnsctrl.obj
 0001:0002b6d0       _SetImageBase              000000014002c6d0 f   libvcruntime:risctrnsctrl.obj
 0001:0002b6e8       _SetThrowImageBase         000000014002c6e8 f   libvcruntime:risctrnsctrl.obj
 0001:0002b700       __CxxFrameHandler4         000000014002c700 f   libvcruntime:risctrnsctrl.obj
 0001:0002b7c0       __std_exception_copy       000000014002c7c0 f   libvcruntime:std_exception.obj
 0001:0002b850       __std_exception_destroy    000000014002c850 f   libvcruntime:std_exception.obj
 0001:0002b878       __DestructExceptionObject  000000014002c878 f   libvcruntime:ehhelpers.obj
 0001:0002b8e8       ?_CallMemberFunction0@@YAXQEAX0@Z 000000014002c8e8 f i libvcruntime:ehhelpers.obj
 0001:0002b8ec       _IsExceptionObjectToBeDestroyed 000000014002c8ec f   libvcruntime:ehhelpers.obj
 0001:0002b91c       __AdjustPointer            000000014002c91c f   libvcruntime:ehhelpers.obj
 0001:0002b940       __FrameUnwindFilter        000000014002c940 f   libvcruntime:ehhelpers.obj
 0001:0002b9a8       __current_exception        000000014002c9a8 f   libvcruntime:ehhelpers.obj
 0001:0002b9bc       __current_exception_context 000000014002c9bc f   libvcruntime:ehhelpers.obj
 0001:0002b9d0       __std_terminate            000000014002c9d0 f   libvcruntime:ehhelpers.obj
 0001:0002b9e4       __std_type_info_compare    000000014002c9e4 f   libvcruntime:std_type_info.obj
 0001:0002ba0c       __std_type_info_name       000000014002ca0c f   libvcruntime:std_type_info.obj
 0001:0002bb24       _get_purecall_handler      000000014002cb24 f   libvcruntime:purevirt.obj
 0001:0002bb2c       _purecall                  000000014002cb2c f   libvcruntime:purevirt.obj
 0001:0002bb48       strstr                     000000014002cb48 f   libvcruntime:strstr.obj
 0001:0002bd44       strchr                     000000014002cd44 f   libvcruntime:strchr.obj
 0001:0002bdc4       _CxxThrowException         000000014002cdc4 f   libvcruntime:throw.obj
 0001:0002be64       __uncaught_exceptions      000000014002ce64 f   libvcruntime:uncaught_exceptions.obj
 0001:0002be90       memcpy_repmovs             000000014002ce90 f   libvcruntime:memcpy.obj
 0001:0002beb0       memmove                    000000014002ceb0 f   libvcruntime:memcpy.obj
 0001:0002beb0       memcpy                     000000014002ceb0 f   libvcruntime:memcpy.obj
 0001:0002c2a0       memset_repmovs             000000014002d2a0 f   libvcruntime:memset.obj
 0001:0002c2c0       memset                     000000014002d2c0 f   libvcruntime:memset.obj
 0001:0002c460       memchr                     000000014002d460 f   libvcruntime:memchr.obj
 0001:0002c4e0       memcmp                     000000014002d4e0 f   libvcruntime:memcmp.obj
 0001:0002c5a8       ??0__non_rtti_object@std@@QEAA@AEBV01@@Z 000000014002d5a8 f i libvcruntime:rtti.obj
 0001:0002c5e4       ??0bad_typeid@std@@QEAA@AEBV01@@Z 000000014002d5e4 f i libvcruntime:rtti.obj
 0001:0002cafc       ?__construct_from_string_literal@__non_rtti_object@std@@SA?AV12@QEBD@Z 000000014002dafc f i libvcruntime:rtti.obj
 0001:0002cb14       ?__construct_from_string_literal@bad_cast@std@@SA?AV12@QEBD@Z 000000014002db14 f i libvcruntime:rtti.obj
 0001:0002cb2c       __RTDynamicCast            000000014002db2c f   libvcruntime:rtti.obj
 0001:0002cc94       __C_specific_handler       000000014002dc94 f   libvcruntime:riscchandler.obj
 0001:0002cea0       __vcrt_initialize          000000014002dea0 f   libvcruntime:initialization.obj
 0001:0002cec8       __vcrt_uninitialize        000000014002dec8 f   libvcruntime:initialization.obj
 0001:0002cee4       __vcrt_freefls             000000014002dee4 f   libvcruntime:per_thread_data.obj
 0001:0002cf04       __vcrt_getptd              000000014002df04 f   libvcruntime:per_thread_data.obj
 0001:0002cf20       __vcrt_getptd_noexit       000000014002df20 f   libvcruntime:per_thread_data.obj
 0001:0002cfe0       __vcrt_getptd_noinit       000000014002dfe0 f   libvcruntime:per_thread_data.obj
 0001:0002d030       __vcrt_initialize_ptd      000000014002e030 f   libvcruntime:per_thread_data.obj
 0001:0002d078       __vcrt_uninitialize_ptd    000000014002e078 f   libvcruntime:per_thread_data.obj
 0001:0002d09c       ?StateFromControlPc@__FrameHandler4@@SAHPEAUFuncInfo4@FH4@@PEAU_xDISPATCHER_CONTEXT@@@Z 000000014002e09c f   libvcruntime:ehstate.obj
 0001:0002d0a4       ?StateFromIp@__FrameHandler4@@SAHPEAUFuncInfo4@FH4@@PEAU_xDISPATCHER_CONTEXT@@_K@Z 000000014002e0a4 f   libvcruntime:ehstate.obj
 0001:0002dd14       ??$TypeMatchHelper@V__FrameHandler3@@@@YAHPEBU_s_HandlerType@@PEBU_s_CatchableType@@PEBU_s_ThrowInfo@@@Z 000000014002ed14 f i libvcruntime:frame.obj
 0001:0002de54       ??$TypeMatchHelper@V__FrameHandler4@@@@YAHPEAUHandlerType4@FH4@@PEBU_s_CatchableType@@PEBU_s_ThrowInfo@@@Z 000000014002ee54 f i libvcruntime:frame.obj
 0001:0002df98       ??$__InternalCxxFrameHandler@V__FrameHandler4@@@@YA?AW4_EXCEPTION_DISPOSITION@@PEAUEHExceptionRecord@@PEA_KPEAU_CONTEXT@@PEAU_xDISPATCHER_CONTEXT@@PEAUFuncInfo4@FH4@@H1E@Z 000000014002ef98 f i libvcruntime:frame.obj
 0001:0002e22c       ??0HandlerMap4@FH4@@QEAA@PEBUTryBlockMapEntry4@1@_KH@Z 000000014002f22c f i libvcruntime:frame.obj
 0001:0002e2a8       ??0TryBlockMap4@FH4@@QEAA@PEBUFuncInfo4@1@_K@Z 000000014002f2a8 f i libvcruntime:frame.obj
 0001:0002e380       ??0bad_exception@std@@QEAA@AEBV01@@Z 000000014002f380 f i libvcruntime:frame.obj
 0001:0002e3bc       ??0bad_exception@std@@QEAA@XZ 000000014002f3bc f i libvcruntime:frame.obj
 0001:0002e3dc       ?CxxCallCatchBlock@__FrameHandler4@@SAPEAXPEAU_EXCEPTION_RECORD@@@Z 000000014002f3dc f   libvcruntime:frame.obj
 0001:0002e62c       ?DecompHandler@HandlerMap4@FH4@@AEAAXXZ 000000014002f62c f i libvcruntime:frame.obj
 0001:0002e86c       ?FrameUnwindToState@__FrameHandler4@@SAXPEA_KPEAU_xDISPATCHER_CONTEXT@@PEAUFuncInfo4@FH4@@H@Z 000000014002f86c f   libvcruntime:frame.obj
 0001:0002ecb4       ?ReadEntry@UWMap4@FH4@@AEAAXPEAPEAE@Z 000000014002fcb4 f i libvcruntime:frame.obj
 0001:0002ed54       ?_CallMemberFunction1@@YAXQEAX00@Z 000000014002fd54 f i libvcruntime:frame.obj
 0001:0002ed60       ?_CallMemberFunction2@@YAXQEAX00H@Z 000000014002fd60 f i libvcruntime:frame.obj
 0001:0002ed70       ?getStartStop@UWMap4@FH4@@QEAAXHHAEAViterator@12@0@Z 000000014002fd70 f i libvcruntime:frame.obj
 0001:0002ee40       ?getStateFromIterators@UWMap4@FH4@@SAHAEBViterator@12@H0H0@Z 000000014002fe40 f i libvcruntime:frame.obj
 0001:0002ef08       ??$?0$00@DName@@QEAA@PEBDU?$StringLifeSelector@$00@@@Z 000000014002ff08 f i libvcruntime:undname.obj
 0001:0002ef48       ??$?0$0A@@DName@@QEAA@PEBDU?$StringLifeSelector@$0A@@@@Z 000000014002ff48 f i libvcruntime:undname.obj
 0001:0002ef48       ??$?0$01@DName@@QEAA@PEBDU?$StringLifeSelector@$01@@@Z 000000014002ff48 f i libvcruntime:undname.obj
 0001:0002ef88       ??$?0$01@pcharNode@@QEAA@PEBDHU?$StringLifeSelector@$01@@@Z 000000014002ff88 f i libvcruntime:undname.obj
 0001:0002ef88       ??$?0$0A@@pcharNode@@QEAA@PEBDHU?$StringLifeSelector@$0A@@@@Z 000000014002ff88 f i libvcruntime:undname.obj
 0001:0002effc       ??$append@VpcharNode@@@DName@@AEAAXPEBVpcharNode@@@Z 000000014002fffc f i libvcruntime:undname.obj
 0001:0002effc       ??$append@VDNameStatusNode@@@DName@@AEAAXPEBVDNameStatusNode@@@Z 000000014002fffc f i libvcruntime:undname.obj
 0001:0002effc       ??$append@VcharNode@@@DName@@AEAAXPEBVcharNode@@@Z 000000014002fffc f i libvcruntime:undname.obj
 0001:0002effc       ??$append@VDNameNode@@@DName@@AEAAXPEBVDNameNode@@@Z 000000014002fffc f i libvcruntime:undname.obj
 0001:0002f060       ??$doPchar@$00@DName@@AEAAXPEBDH@Z 0000000140030060 f i libvcruntime:undname.obj
 0001:0002f104       ??$doPchar@$0A@@DName@@AEAAXPEBDH@Z 0000000140030104 f i libvcruntime:undname.obj
 0001:0002f104       ??$doPchar@$01@DName@@AEAAXPEBDH@Z 0000000140030104 f i libvcruntime:undname.obj
 0001:0002f19c       ??0DName@@QEAA@AEAPEBDD@Z  000000014003019c f   libvcruntime:undname.obj
 0001:0002f24c       ??0DName@@QEAA@AEBUStringLiteral@@@Z 000000014003024c f   libvcruntime:undname.obj
 0001:0002f278       ??0DName@@QEAA@PEAV0@@Z    0000000140030278 f   libvcruntime:undname.obj
 0001:0002f2fc       ??0DName@@QEAA@_J@Z        00000001400302fc f   libvcruntime:undname.obj
 0001:0002f3a4       ??0DName@@QEAA@_K@Z        00000001400303a4 f   libvcruntime:undname.obj
 0001:0002f434       ??2@YAPEAX_KAEAV_HeapManager@@H@Z 0000000140030434 f   libvcruntime:undname.obj
 0001:0002f460       ??AReplicator@@QEBA?AVDName@@H@Z 0000000140030460 f   libvcruntime:undname.obj
 0001:0002f4a0       ??HDName@@QEBA?AV0@AEBUStringLiteral@@@Z 00000001400304a0 f   libvcruntime:undname.obj
 0001:0002f4cc       ??HDName@@QEBA?AV0@AEBV0@@Z 00000001400304cc f   libvcruntime:undname.obj
 0001:0002f4f8       ??HDName@@QEBA?AV0@D@Z     00000001400304f8 f   libvcruntime:undname.obj
 0001:0002f524       ??HDName@@QEBA?AV0@W4DNameStatus@@@Z 0000000140030524 f   libvcruntime:undname.obj
 0001:0002f550       ??YDName@@QEAAAEAV0@AEBUStringLiteral@@@Z 0000000140030550 f   libvcruntime:undname.obj
 0001:0002f5d0       ??YDName@@QEAAAEAV0@AEBV0@@Z 00000001400305d0 f   libvcruntime:undname.obj
 0001:0002f684       ??YDName@@QEAAAEAV0@D@Z    0000000140030684 f   libvcruntime:undname.obj
 0001:0002f6f0       ??YDName@@QEAAAEAV0@W4DNameStatus@@@Z 00000001400306f0 f   libvcruntime:undname.obj
 0001:0002f75c       ??YReplicator@@QEAAAEAV0@AEBVDName@@@Z 000000014003075c f   libvcruntime:undname.obj
 0001:0002f7b4       ?UScore@UnDecorator@@SA?AUStringLiteral@@W4Tokens@@@Z 00000001400307b4 f   libvcruntime:undname.obj
 0001:0002f800       ?composeDeclaration@UnDecorator@@CA?AVDName@@AEBV2@@Z 0000000140030800 f i libvcruntime:undname.obj
 0001:000306a8       ?doPchar@DName@@AEAAXD@Z   00000001400316a8 f   libvcruntime:undname.obj
 0001:000306f8       ?getArgumentList@UnDecorator@@CA?AVDName@@XZ 00000001400316f8 f   libvcruntime:undname.obj
 0001:0003088c       ?getArgumentTypes@UnDecorator@@CA?AVDName@@XZ 000000014003188c f   libvcruntime:undname.obj
 0001:000309e8       ?getArrayType@UnDecorator@@CA?AVDName@@AEBV2@@Z 00000001400319e8 f i libvcruntime:undname.obj
 0001:00030c30       ?getBasedType@UnDecorator@@CA?AVDName@@XZ 0000000140031c30 f   libvcruntime:undname.obj
 0001:00030d28       ?getBasicDataType@UnDecorator@@CA?AVDName@@AEBV2@@Z 0000000140031d28 f   libvcruntime:undname.obj
 0001:0003126c       ?getCallingConvention@UnDecorator@@CA?AVDName@@XZ 000000014003226c f   libvcruntime:undname.obj
 0001:000313ac       ?getDataIndirectType@UnDecorator@@CA?AVDName@@AEBV2@W4IndirectionKind@@0H@Z 00000001400323ac f   libvcruntime:undname.obj
 0001:00031c44       ?getDataType@UnDecorator@@CA?AVDName@@PEAV2@@Z 0000000140032c44 f   libvcruntime:undname.obj
 0001:00031d58       ?getDecoratedName@UnDecorator@@CA?AVDName@@XZ 0000000140032d58 f   libvcruntime:undname.obj
 0001:0003203c       ?getDimension@UnDecorator@@CA?AVDName@@_N@Z 000000014003303c f   libvcruntime:undname.obj
 0001:000321b8       ?getDispatchTarget@UnDecorator@@CA?AVDName@@XZ 00000001400331b8 f   libvcruntime:undname.obj
 0001:00032204       ?getECSUDataType@UnDecorator@@CA?AVDName@@XZ 0000000140033204 f   libvcruntime:undname.obj
 0001:000323e4       ?getEnumType@UnDecorator@@CA?AVDName@@XZ 00000001400333e4 f i libvcruntime:undname.obj
 0001:0003250c       ?getExtendedDataIndirectType@UnDecorator@@CA?AVDName@@AEAW4IndirectionKind@@AEA_NH@Z 000000014003350c f   libvcruntime:undname.obj
 0001:00032714       ?getExternalDataType@UnDecorator@@CA?AVDName@@AEBV2@@Z 0000000140033714 f i libvcruntime:undname.obj
 0001:000327d4       ?getFunctionIndirectType@UnDecorator@@CA?AVDName@@AEBV2@@Z 00000001400337d4 f   libvcruntime:undname.obj
 0001:00032d0c       ?getLastChar@DNameStatusNode@@UEBADXZ 0000000140033d0c f i libvcruntime:undname.obj
 0001:00032d18       ?getLastChar@charNode@@UEBADXZ 0000000140033d18 f i libvcruntime:undname.obj
 0001:00032d1c       ?getLastChar@pDNameNode@@UEBADXZ 0000000140033d1c f i libvcruntime:undname.obj
 0001:00032d48       ?getLastChar@pairNode@@UEBADXZ 0000000140033d48 f i libvcruntime:undname.obj
 0001:00032d80       ?getLastChar@pcharNode@@UEBADXZ 0000000140033d80 f i libvcruntime:undname.obj
 0001:00032d94       ?getLexicalFrame@UnDecorator@@CA?AVDName@@XZ 0000000140033d94 f i libvcruntime:undname.obj
 0001:00032df8       ?getMemoryWithBuffer@_HeapManager@@QEAAPEAX_K@Z 0000000140033df8 f   libvcruntime:undname.obj
 0001:00032e88       ?getNoexcept@UnDecorator@@CA?AVDName@@XZ 0000000140033e88 f   libvcruntime:undname.obj
 0001:00032eec       ?getNumberOfDimensions@UnDecorator@@CAHXZ 0000000140033eec f   libvcruntime:undname.obj
 0001:00032f60       ?getOperatorName@UnDecorator@@CA?AVDName@@_NPEA_N@Z 0000000140033f60 f i libvcruntime:undname.obj
 0001:0003377c       ?getPrimaryDataType@UnDecorator@@CA?AVDName@@AEBV2@@Z 000000014003477c f   libvcruntime:undname.obj
 0001:00033a0c       ?getPtrRefDataType@UnDecorator@@CA?AVDName@@AEBV2@H@Z 0000000140034a0c f   libvcruntime:undname.obj
 0001:00033bd8       ?getPtrRefType@UnDecorator@@CA?AVDName@@AEBV2@0W4IndirectionKind@@@Z 0000000140034bd8 f   libvcruntime:undname.obj
 0001:00033db0       ?getRestrictionSpec@UnDecorator@@CA?AVDName@@XZ 0000000140034db0 f   libvcruntime:undname.obj
 0001:00033f7c       ?getReturnType@UnDecorator@@CA?AVDName@@PEAV2@@Z 0000000140034f7c f   libvcruntime:undname.obj
 0001:00033fb0       ?getScope@UnDecorator@@CA?AVDName@@XZ 0000000140034fb0 f   libvcruntime:undname.obj
 0001:00034464       ?getScopedName@UnDecorator@@CA?AVDName@@XZ 0000000140035464 f   libvcruntime:undname.obj
 0001:000345a0       ?getSignedDimension@UnDecorator@@CA?AVDName@@XZ 00000001400355a0 f   libvcruntime:undname.obj
 0001:00034628       ?getString@DNameStatusNode@@UEBAPEADPEAD0@Z 0000000140035628 f i libvcruntime:undname.obj
 0001:00034670       ?getString@charNode@@UEBAPEADPEAD0@Z 0000000140035670 f i libvcruntime:undname.obj
 0001:00034684       ?getString@pDNameNode@@UEBAPEADPEAD0@Z 0000000140035684 f i libvcruntime:undname.obj
 0001:000346b4       ?getString@pairNode@@UEBAPEADPEAD0@Z 00000001400356b4 f i libvcruntime:undname.obj
 0001:00034700       ?getString@pcharNode@@UEBAPEADPEAD0@Z 0000000140035700 f i libvcruntime:undname.obj
 0001:00034738       ?getStringEncoding@UnDecorator@@CA?AVDName@@W4PrefixKind@@H@Z 0000000140035738 f   libvcruntime:undname.obj
 0001:0003481c       ?getSymbolName@UnDecorator@@CA?AVDName@@XZ 000000014003581c f i libvcruntime:undname.obj
 0001:00034868       ?getTemplateArgumentList@UnDecorator@@CA?AVDName@@XZ 0000000140035868 f   libvcruntime:undname.obj
 0001:00034abc       ?getTemplateName@UnDecorator@@CA?AVDName@@_N@Z 0000000140035abc f   libvcruntime:undname.obj
 0001:00034d50       ?getTemplateNonTypeArgument@UnDecorator@@CA?AVDName@@XZ 0000000140035d50 f   libvcruntime:undname.obj
 0001:00035250       ?getTemplateTypeArgument@UnDecorator@@CA?AVDName@@XZ 0000000140036250 f   libvcruntime:undname.obj
 0001:000353b8       ?getThrowTypes@UnDecorator@@CA?AVDName@@XZ 00000001400363b8 f   libvcruntime:undname.obj
 0001:000353dc       ?getTypeEncoding@UnDecorator@@CAHXZ 00000001400363dc f i libvcruntime:undname.obj
 0001:00035750       ?getUndecoratedName@UnDecorator@@QEAAPEADPEADH@Z 0000000140036750 f i libvcruntime:undname.obj
 0001:000358a4       ?getVCallThunkType@UnDecorator@@CA?AVDName@@XZ 00000001400368a4 f i libvcruntime:undname.obj
 0001:0003591c       ?getVdispMapType@UnDecorator@@CA?AVDName@@AEBV2@@Z 000000014003691c f i libvcruntime:undname.obj
 0001:00035998       ?getVfTableType@UnDecorator@@CA?AVDName@@AEBV2@@Z 0000000140036998 f i libvcruntime:undname.obj
 0001:00035ba0       ?getZName@UnDecorator@@CA?AVDName@@_N0@Z 0000000140036ba0 f   libvcruntime:undname.obj
 0001:00035e88       ?raw_length@DNameStatusNode@@UEBAHXZ 0000000140036e88 f i libvcruntime:undname.obj
 0001:00035e88       ?length@DNameStatusNode@@UEBAHXZ 0000000140036e88 f i libvcruntime:undname.obj
 0001:00035e8c       ?length@pDNameNode@@UEBAHXZ 0000000140036e8c f i libvcruntime:undname.obj
 0001:00035eb4       ?length@pairNode@@UEBAHXZ  0000000140036eb4 f i libvcruntime:undname.obj
 0001:00035efc       ?length@pcharNode@@UEBAHXZ 0000000140036efc f i libvcruntime:undname.obj
 0001:00035efc       ?raw_length@pcharNode@@UEBAHXZ 0000000140036efc f i libvcruntime:undname.obj
 0001:00035f00       ?parseDecoratedName@UnDecorator@@CA?AVDName@@XZ 0000000140036f00 f   libvcruntime:undname.obj
 0001:00036014       ?raw_length@pDNameNode@@UEBAHXZ 0000000140037014 f i libvcruntime:undname.obj
 0001:00036018       __unDName                  0000000140037018 f   libvcruntime:undname.obj
 0001:00036040       __unDNameEx                0000000140037040 f   libvcruntime:undname.obj
 0001:00036190       _NLG_Notify                0000000140037190 f   libvcruntime:notify.obj
 0001:000361b0       __NLG_Dispatch2            00000001400371b0 f   libvcruntime:notify.obj
 0001:000361c0       __NLG_Return2              00000001400371c0 f   libvcruntime:notify.obj
 0001:000361c4       __except_validate_context_record 00000001400371c4 f   libvcruntime:jbcxrval.obj
 0001:000361fc       __vcrt_initialize_locks    00000001400371fc f   libvcruntime:locks.obj
 0001:00036230       __vcrt_lock                0000000140037230 f   libvcruntime:locks.obj
 0001:0003624c       __vcrt_uninitialize_locks  000000014003724c f   libvcruntime:locks.obj
 0001:00036284       __vcrt_unlock              0000000140037284 f   libvcruntime:locks.obj
 0001:000363ec       __vcrt_FlsAlloc            00000001400373ec f   libvcruntime:winapi_downlevel.obj
 0001:00036434       __vcrt_FlsFree             0000000140037434 f   libvcruntime:winapi_downlevel.obj
 0001:0003647c       __vcrt_FlsGetValue         000000014003747c f   libvcruntime:winapi_downlevel.obj
 0001:000364c4       __vcrt_FlsSetValue         00000001400374c4 f   libvcruntime:winapi_downlevel.obj
 0001:00036518       __vcrt_InitializeCriticalSectionEx 0000000140037518 f   libvcruntime:winapi_downlevel.obj
 0001:00036590       _CallSettingFrame          0000000140037590 f   libvcruntime:handlers.obj
 0001:000365e0       _CallSettingFrame_LookupContinuationIndex 00000001400375e0 f   libvcruntime:handlers.obj
 0001:00036610       _CallSettingFrame_NotifyContinuationAddr 0000000140037610 f   libvcruntime:handlers.obj
 0001:00036640       _CallSettingFrameEncoded   0000000140037640 f   libvcruntime:handlers.obj
 0001:00036688       __acrt_call_reportfault    0000000140037688 f   libucrt:invalid_parameter.obj
 0001:000367e4       __acrt_initialize_invalid_parameter_handler 00000001400377e4 f   libucrt:invalid_parameter.obj
 0001:000367ec       _invalid_parameter         00000001400377ec f   libucrt:invalid_parameter.obj
 0001:0003689c       _invalid_parameter_noinfo  000000014003789c f   libucrt:invalid_parameter.obj
 0001:000368bc       _invalid_parameter_noinfo_noreturn 00000001400378bc f   libucrt:invalid_parameter.obj
 0001:000368ec       _invoke_watson             00000001400378ec f   libucrt:invalid_parameter.obj
 0001:00036934       ??0_LocaleUpdate@@QEAA@QEAU__crt_locale_pointers@@@Z 0000000140037934 f i libucrt:_ctype.obj
 0001:000369d0       _ischartype_l              00000001400379d0 f i libucrt:_ctype.obj
 0001:00036a48       isprint                    0000000140037a48 f i libucrt:_ctype.obj
 0001:00036ab8       isspace                    0000000140037ab8 f i libucrt:_ctype.obj
 0001:00036b24       __acrt_errno_from_os_error 0000000140037b24 f   libucrt:errno.obj
 0001:00036b6c       __acrt_errno_map_os_error  0000000140037b6c f   libucrt:errno.obj
 0001:00036bbc       __doserrno                 0000000140037bbc f   libucrt:errno.obj
 0001:00036bdc       _errno                     0000000140037bdc f   libucrt:errno.obj
 0001:000370e8       _ftelli64_nolock           00000001400380e8 f   libucrt:ftell.obj
 0001:000370f0       ftell                      00000001400380f0 f   libucrt:ftell.obj
 0001:000370f8       __acrt_initialize_stdio    00000001400380f8 f   libucrt:_file.obj
 0001:00037218       __acrt_iob_func            0000000140038218 f   libucrt:_file.obj
 0001:0003722c       __acrt_uninitialize_stdio  000000014003822c f   libucrt:_file.obj
 0001:00037288       _lock_file                 0000000140038288 f   libucrt:_file.obj
 0001:00037294       _unlock_file               0000000140038294 f   libucrt:_file.obj
 0001:000374bc       __acrt_stdio_flush_nolock  00000001400384bc f   libucrt:fflush.obj
 0001:00037538       _fflush_nolock             0000000140038538 f   libucrt:fflush.obj
 0001:00037584       _flushall                  0000000140038584 f   libucrt:fflush.obj
 0001:0003758c       fflush                     000000014003858c f   libucrt:fflush.obj
 0001:000375f4       _fclose_nolock             00000001400385f4 f   libucrt:fclose.obj
 0001:00037678       fclose                     0000000140038678 f   libucrt:fclose.obj
 0001:000378e4       fseek                      00000001400388e4 f   libucrt:fseek.obj
 0001:00037cc4       ??$ensure_buffer_is_big_enough@D@formatting_buffer@__crt_stdio_output@@QEAA_N_K@Z 0000000140038cc4 f i libucrt:output.obj
 0001:00037d6c       ??$type_case_integer_parse_into_buffer@I@?$output_processor@DV?$stream_output_adapter@D@__crt_stdio_output@@V?$standard_base@DV?$stream_output_adapter@D@__crt_stdio_output@@@2@@__crt_stdio_output@@AEAAXII_N@Z 0000000140038d6c f i libucrt:output.obj
 0001:00037d6c       ??$type_case_integer_parse_into_buffer@I@?$output_processor@DV?$string_output_adapter@D@__crt_stdio_output@@V?$format_validation_base@DV?$string_output_adapter@D@__crt_stdio_output@@@2@@__crt_stdio_output@@AEAAXII_N@Z 0000000140038d6c f i libucrt:output.obj
 0001:00037d6c       ??$type_case_integer_parse_into_buffer@I@?$output_processor@DV?$string_output_adapter@D@__crt_stdio_output@@V?$standard_base@DV?$string_output_adapter@D@__crt_stdio_output@@@2@@__crt_stdio_output@@AEAAXII_N@Z 0000000140038d6c f i libucrt:output.obj
 0001:00037df4       ??$type_case_integer_parse_into_buffer@_K@?$output_processor@DV?$string_output_adapter@D@__crt_stdio_output@@V?$standard_base@DV?$string_output_adapter@D@__crt_stdio_output@@@2@@__crt_stdio_output@@AEAAX_KI_N@Z 0000000140038df4 f i libucrt:output.obj
 0001:00037df4       ??$type_case_integer_parse_into_buffer@_K@?$output_processor@DV?$string_output_adapter@D@__crt_stdio_output@@V?$format_validation_base@DV?$string_output_adapter@D@__crt_stdio_output@@@2@@__crt_stdio_output@@AEAAX_KI_N@Z 0000000140038df4 f i libucrt:output.obj
 0001:00037df4       ??$type_case_integer_parse_into_buffer@_K@?$output_processor@DV?$stream_output_adapter@D@__crt_stdio_output@@V?$standard_base@DV?$stream_output_adapter@D@__crt_stdio_output@@@2@@__crt_stdio_output@@AEAAX_KI_N@Z 0000000140038df4 f i libucrt:output.obj
 0001:00037e84       ??$write_multiple_characters@V?$stream_output_adapter@D@__crt_stdio_output@@D@__crt_stdio_output@@YAXAEBV?$stream_output_adapter@D@0@DHQEAH@Z 0000000140038e84 f i libucrt:output.obj
 0001:00037f10       ??$write_multiple_characters@V?$string_output_adapter@D@__crt_stdio_output@@D@__crt_stdio_output@@YAXAEBV?$string_output_adapter@D@0@DHQEAH@Z 0000000140038f10 f i libucrt:output.obj
 0001:000380b8       ?crop_zeroes@__crt_stdio_output@@YAXPEADQEAU__crt_locale_pointers@@@Z 00000001400390b8 f i libucrt:output.obj
 0001:00038124       ?parse_int_from_format_string@?$output_processor@DV?$string_output_adapter@D@__crt_stdio_output@@V?$format_validation_base@DV?$string_output_adapter@D@__crt_stdio_output@@@2@@__crt_stdio_output@@AEAA_NQEAH@Z 0000000140039124 f i libucrt:output.obj
 0001:00038124       ?parse_int_from_format_string@?$output_processor@DV?$string_output_adapter@D@__crt_stdio_output@@V?$standard_base@DV?$string_output_adapter@D@__crt_stdio_output@@@2@@__crt_stdio_output@@AEAA_NQEAH@Z 0000000140039124 f i libucrt:output.obj
 0001:00038124       ?parse_int_from_format_string@?$output_processor@DV?$stream_output_adapter@D@__crt_stdio_output@@V?$standard_base@DV?$stream_output_adapter@D@__crt_stdio_output@@@2@@__crt_stdio_output@@AEAA_NQEAH@Z 0000000140039124 f i libucrt:output.obj
 0001:000381c8       ?process@?$output_processor@DV?$stream_output_adapter@D@__crt_stdio_output@@V?$standard_base@DV?$stream_output_adapter@D@__crt_stdio_output@@@2@@__crt_stdio_output@@QEAAHXZ 00000001400391c8 f i libucrt:output.obj
 0001:000383e0       ?process@?$output_processor@DV?$string_output_adapter@D@__crt_stdio_output@@V?$format_validation_base@DV?$string_output_adapter@D@__crt_stdio_output@@@2@@__crt_stdio_output@@QEAAHXZ 00000001400393e0 f i libucrt:output.obj
 0001:000385f8       ?process@?$output_processor@DV?$string_output_adapter@D@__crt_stdio_output@@V?$standard_base@DV?$string_output_adapter@D@__crt_stdio_output@@@2@@__crt_stdio_output@@QEAAHXZ 00000001400395f8 f i libucrt:output.obj
 0001:00038804       ?state_case_normal@?$output_processor@DV?$stream_output_adapter@D@__crt_stdio_output@@V?$standard_base@DV?$stream_output_adapter@D@__crt_stdio_output@@@2@@__crt_stdio_output@@AEAA_NXZ 0000000140039804 f i libucrt:output.obj
 0001:00038874       ?state_case_normal@?$output_processor@DV?$string_output_adapter@D@__crt_stdio_output@@V?$standard_base@DV?$string_output_adapter@D@__crt_stdio_output@@@2@@__crt_stdio_output@@AEAA_NXZ 0000000140039874 f i libucrt:output.obj
 0001:00038874       ?state_case_normal@?$output_processor@DV?$string_output_adapter@D@__crt_stdio_output@@V?$format_validation_base@DV?$string_output_adapter@D@__crt_stdio_output@@@2@@__crt_stdio_output@@AEAA_NXZ 0000000140039874 f i libucrt:output.obj
 0001:000388e8       ?state_case_normal_tchar@?$output_processor@DV?$stream_output_adapter@D@__crt_stdio_output@@V?$standard_base@DV?$stream_output_adapter@D@__crt_stdio_output@@@2@@__crt_stdio_output@@AEAA_ND@Z 00000001400398e8 f i libucrt:output.obj
 0001:0003898c       ?state_case_normal_tchar@?$output_processor@DV?$string_output_adapter@D@__crt_stdio_output@@V?$format_validation_base@DV?$string_output_adapter@D@__crt_stdio_output@@@2@@__crt_stdio_output@@AEAA_ND@Z 000000014003998c f i libucrt:output.obj
 0001:0003898c       ?state_case_normal_tchar@?$output_processor@DV?$string_output_adapter@D@__crt_stdio_output@@V?$standard_base@DV?$string_output_adapter@D@__crt_stdio_output@@@2@@__crt_stdio_output@@AEAA_ND@Z 000000014003998c f i libucrt:output.obj
 0001:00038a34       ?state_case_size@?$output_processor@DV?$stream_output_adapter@D@__crt_stdio_output@@V?$standard_base@DV?$stream_output_adapter@D@__crt_stdio_output@@@2@@__crt_stdio_output@@AEAA_NXZ 0000000140039a34 f i libucrt:output.obj
 0001:00038ba8       ?state_case_size@?$output_processor@DV?$string_output_adapter@D@__crt_stdio_output@@V?$format_validation_base@DV?$string_output_adapter@D@__crt_stdio_output@@@2@@__crt_stdio_output@@AEAA_NXZ 0000000140039ba8 f i libucrt:output.obj
 0001:00038ba8       ?state_case_size@?$output_processor@DV?$string_output_adapter@D@__crt_stdio_output@@V?$standard_base@DV?$string_output_adapter@D@__crt_stdio_output@@@2@@__crt_stdio_output@@AEAA_NXZ 0000000140039ba8 f i libucrt:output.obj
 0001:00038d1c       ?state_case_type@?$output_processor@DV?$stream_output_adapter@D@__crt_stdio_output@@V?$standard_base@DV?$stream_output_adapter@D@__crt_stdio_output@@@2@@__crt_stdio_output@@AEAA_NXZ 0000000140039d1c f i libucrt:output.obj
 0001:00038fa0       ?state_case_type@?$output_processor@DV?$string_output_adapter@D@__crt_stdio_output@@V?$standard_base@DV?$string_output_adapter@D@__crt_stdio_output@@@2@@__crt_stdio_output@@AEAA_NXZ 0000000140039fa0 f i libucrt:output.obj
 0001:00038fa0       ?state_case_type@?$output_processor@DV?$string_output_adapter@D@__crt_stdio_output@@V?$format_validation_base@DV?$string_output_adapter@D@__crt_stdio_output@@@2@@__crt_stdio_output@@AEAA_NXZ 0000000140039fa0 f i libucrt:output.obj
 0001:00039208       ?type_case_Z@?$output_processor@DV?$string_output_adapter@D@__crt_stdio_output@@V?$format_validation_base@DV?$string_output_adapter@D@__crt_stdio_output@@@2@@__crt_stdio_output@@AEAA_NXZ 000000014003a208 f i libucrt:output.obj
 0001:00039208       ?type_case_Z@?$output_processor@DV?$stream_output_adapter@D@__crt_stdio_output@@V?$standard_base@DV?$stream_output_adapter@D@__crt_stdio_output@@@2@@__crt_stdio_output@@AEAA_NXZ 000000014003a208 f i libucrt:output.obj
 0001:00039208       ?type_case_Z@?$output_processor@DV?$string_output_adapter@D@__crt_stdio_output@@V?$standard_base@DV?$string_output_adapter@D@__crt_stdio_output@@@2@@__crt_stdio_output@@AEAA_NXZ 000000014003a208 f i libucrt:output.obj
 0001:0003927c       ?type_case_a@?$output_processor@DV?$string_output_adapter@D@__crt_stdio_output@@V?$standard_base@DV?$string_output_adapter@D@__crt_stdio_output@@@2@@__crt_stdio_output@@AEAA_NXZ 000000014003a27c f i libucrt:output.obj
 0001:0003927c       ?type_case_a@?$output_processor@DV?$string_output_adapter@D@__crt_stdio_output@@V?$format_validation_base@DV?$string_output_adapter@D@__crt_stdio_output@@@2@@__crt_stdio_output@@AEAA_NXZ 000000014003a27c f i libucrt:output.obj
 0001:0003927c       ?type_case_a@?$output_processor@DV?$stream_output_adapter@D@__crt_stdio_output@@V?$standard_base@DV?$stream_output_adapter@D@__crt_stdio_output@@@2@@__crt_stdio_output@@AEAA_NXZ 000000014003a27c f i libucrt:output.obj
 0001:00039494       ?type_case_c_tchar@?$output_processor@DV?$stream_output_adapter@D@__crt_stdio_output@@V?$standard_base@DV?$stream_output_adapter@D@__crt_stdio_output@@@2@@__crt_stdio_output@@AEAA_ND@Z 000000014003a494 f i libucrt:output.obj
 0001:00039494       ?type_case_c_tchar@?$output_processor@DV?$string_output_adapter@D@__crt_stdio_output@@V?$format_validation_base@DV?$string_output_adapter@D@__crt_stdio_output@@@2@@__crt_stdio_output@@AEAA_ND@Z 000000014003a494 f i libucrt:output.obj
 0001:00039494       ?type_case_c_tchar@?$output_processor@DV?$string_output_adapter@D@__crt_stdio_output@@V?$standard_base@DV?$string_output_adapter@D@__crt_stdio_output@@@2@@__crt_stdio_output@@AEAA_ND@Z 000000014003a494 f i libucrt:output.obj
 0001:00039550       ?type_case_integer@?$output_processor@DV?$stream_output_adapter@D@__crt_stdio_output@@V?$standard_base@DV?$stream_output_adapter@D@__crt_stdio_output@@@2@@__crt_stdio_output@@AEAA_NI_N@Z 000000014003a550 f i libucrt:output.obj
 0001:00039550       ?type_case_integer@?$output_processor@DV?$string_output_adapter@D@__crt_stdio_output@@V?$format_validation_base@DV?$string_output_adapter@D@__crt_stdio_output@@@2@@__crt_stdio_output@@AEAA_NI_N@Z 000000014003a550 f i libucrt:output.obj
 0001:00039550       ?type_case_integer@?$output_processor@DV?$string_output_adapter@D@__crt_stdio_output@@V?$standard_base@DV?$string_output_adapter@D@__crt_stdio_output@@@2@@__crt_stdio_output@@AEAA_NI_N@Z 000000014003a550 f i libucrt:output.obj
 0001:00039718       ?type_case_n@?$output_processor@DV?$string_output_adapter@D@__crt_stdio_output@@V?$format_validation_base@DV?$string_output_adapter@D@__crt_stdio_output@@@2@@__crt_stdio_output@@AEAA_NXZ 000000014003a718 f i libucrt:output.obj
 0001:00039718       ?type_case_n@?$output_processor@DV?$stream_output_adapter@D@__crt_stdio_output@@V?$standard_base@DV?$stream_output_adapter@D@__crt_stdio_output@@@2@@__crt_stdio_output@@AEAA_NXZ 000000014003a718 f i libucrt:output.obj
 0001:00039718       ?type_case_n@?$output_processor@DV?$string_output_adapter@D@__crt_stdio_output@@V?$standard_base@DV?$string_output_adapter@D@__crt_stdio_output@@@2@@__crt_stdio_output@@AEAA_NXZ 000000014003a718 f i libucrt:output.obj
 0001:000397f4       ?type_case_s@?$output_processor@DV?$stream_output_adapter@D@__crt_stdio_output@@V?$standard_base@DV?$stream_output_adapter@D@__crt_stdio_output@@@2@@__crt_stdio_output@@AEAA_NXZ 000000014003a7f4 f i libucrt:output.obj
 0001:000397f4       ?type_case_s@?$output_processor@DV?$string_output_adapter@D@__crt_stdio_output@@V?$format_validation_base@DV?$string_output_adapter@D@__crt_stdio_output@@@2@@__crt_stdio_output@@AEAA_NXZ 000000014003a7f4 f i libucrt:output.obj
 0001:000397f4       ?type_case_s@?$output_processor@DV?$string_output_adapter@D@__crt_stdio_output@@V?$standard_base@DV?$string_output_adapter@D@__crt_stdio_output@@@2@@__crt_stdio_output@@AEAA_NXZ 000000014003a7f4 f i libucrt:output.obj
 0001:0003988c       ?validate_stream_is_ansi_if_required@?$__acrt_stdio_char_traits@D@@SA_NQEAU_iobuf@@@Z 000000014003a88c f i libucrt:output.obj
 0001:00039928       ?write_stored_string_tchar@?$output_processor@DV?$stream_output_adapter@D@__crt_stdio_output@@V?$standard_base@DV?$stream_output_adapter@D@__crt_stdio_output@@@2@@__crt_stdio_output@@AEAA_ND@Z 000000014003a928 f i libucrt:output.obj
 0001:00039a4c       ?write_stored_string_tchar@?$output_processor@DV?$string_output_adapter@D@__crt_stdio_output@@V?$standard_base@DV?$string_output_adapter@D@__crt_stdio_output@@@2@@__crt_stdio_output@@AEAA_ND@Z 000000014003aa4c f i libucrt:output.obj
 0001:00039a4c       ?write_stored_string_tchar@?$output_processor@DV?$string_output_adapter@D@__crt_stdio_output@@V?$format_validation_base@DV?$string_output_adapter@D@__crt_stdio_output@@@2@@__crt_stdio_output@@AEAA_ND@Z 000000014003aa4c f i libucrt:output.obj
 0001:00039b24       ?write_string@?$string_output_adapter@D@__crt_stdio_output@@QEBAXQEBDHQEAHAEAV__crt_deferred_errno_cache@@@Z 000000014003ab24 f i libucrt:output.obj
 0001:00039bc8       ?write_string_impl@?$output_adapter_common@DV?$stream_output_adapter@D@__crt_stdio_output@@@__crt_stdio_output@@IEBAXQEBDHQEAHAEAV__crt_deferred_errno_cache@@@Z 000000014003abc8 f i libucrt:output.obj
 0001:00039cc0       __stdio_common_vfprintf    000000014003acc0 f   libucrt:output.obj
 0001:00039d4c       __stdio_common_vsprintf    000000014003ad4c f   libucrt:output.obj
 0001:00039d54       __stdio_common_vsprintf_s  000000014003ad54 f   libucrt:output.obj
 0001:00039dc0       qsort                      000000014003adc0 f   libucrt:qsort.obj
 0001:0003a180       strncpy                    000000014003b180 f   libucrt:strncpy.obj
 0001:0003a3b0       _wfopen                    000000014003b3b0 f   libucrt:fopen.obj
 0001:0003a3bc       free                       000000014003b3bc f   libucrt:free.obj
 0001:0003a3d0       ??$is_overflow_condition@_K@__crt_strtox@@YA_NI_K@Z 000000014003b3d0 f i libucrt:atox.obj
 0001:0003a400       ??$parse_integer@KV?$c_string_character_source@D@__crt_strtox@@@__crt_strtox@@YAKQEAU__crt_locale_pointers@@V?$c_string_character_source@D@0@H_N@Z 000000014003b400 f i libucrt:atox.obj
 0001:0003a708       ??$parse_integer@_KV?$c_string_character_source@D@__crt_strtox@@@__crt_strtox@@YA_KQEAU__crt_locale_pointers@@V?$c_string_character_source@D@0@H_N@Z 000000014003b708 f i libucrt:atox.obj
 0001:0003a9f8       atol                       000000014003b9f8 f   libucrt:atox.obj
 0001:0003aa24       _fread_nolock_s            000000014003ba24 f   libucrt:fread.obj
 0001:0003acb4       fread                      000000014003bcb4 f   libucrt:fread.obj
 0001:0003acd4       fread_s                    000000014003bcd4 f   libucrt:fread.obj
 0001:0003ad7c       ??$parse_floating_point@V?$input_adapter_character_source@V?$string_input_adapter@D@__crt_stdio_input@@@__crt_strtox@@M@__crt_strtox@@YA?AW4SLD_STATUS@@QEAU__crt_locale_pointers@@V?$input_adapter_character_source@V?$string_input_adapter@D@__crt_stdio_input@@@0@QEAM@Z 000000014003bd7c f i libucrt:input.obj
 0001:0003ae24       ??$parse_floating_point@V?$input_adapter_character_source@V?$string_input_adapter@D@__crt_stdio_input@@@__crt_strtox@@N@__crt_strtox@@YA?AW4SLD_STATUS@@QEAU__crt_locale_pointers@@V?$input_adapter_character_source@V?$string_input_adapter@D@__crt_stdio_input@@@0@QEAN@Z 000000014003be24 f i libucrt:input.obj
 0001:0003aecc       ??$parse_floating_point_from_source@V?$input_adapter_character_source@V?$string_input_adapter@D@__crt_stdio_input@@@__crt_strtox@@@__crt_strtox@@YA?AW4floating_point_parse_result@0@QEAU__crt_locale_pointers@@AEAV?$input_adapter_character_source@V?$string_input_adapter@D@__crt_stdio_input@@@0@AEAUfloating_point_string@0@@Z 000000014003becc f i libucrt:input.obj
 0001:0003b708       ??$parse_floating_point_possible_infinity@DV?$input_adapter_character_source@V?$string_input_adapter@D@__crt_stdio_input@@@__crt_strtox@@_K@__crt_strtox@@YA?AW4floating_point_parse_result@0@AEADAEAV?$input_adapter_character_source@V?$string_input_adapter@D@__crt_stdio_input@@@0@_K@Z 000000014003c708 f i libucrt:input.obj
 0001:0003b940       ??$parse_floating_point_possible_nan@DV?$input_adapter_character_source@V?$string_input_adapter@D@__crt_stdio_input@@@__crt_strtox@@_K@__crt_strtox@@YA?AW4floating_point_parse_result@0@AEADAEAV?$input_adapter_character_source@V?$string_input_adapter@D@__crt_stdio_input@@@0@_K@Z 000000014003c940 f i libucrt:input.obj
 0001:0003bc60       ??$parse_floating_point_possible_nan_is_ind@DV?$input_adapter_character_source@V?$string_input_adapter@D@__crt_stdio_input@@@__crt_strtox@@@__crt_strtox@@YA_NAEADAEAV?$input_adapter_character_source@V?$string_input_adapter@D@__crt_stdio_input@@@0@@Z 000000014003cc60 f i libucrt:input.obj
 0001:0003bcd8       ??$parse_floating_point_possible_nan_is_snan@DV?$input_adapter_character_source@V?$string_input_adapter@D@__crt_stdio_input@@@__crt_strtox@@@__crt_strtox@@YA_NAEADAEAV?$input_adapter_character_source@V?$string_input_adapter@D@__crt_stdio_input@@@0@@Z 000000014003ccd8 f i libucrt:input.obj
 0001:0003bd50       ??$parse_floating_point_write_result@M@__crt_strtox@@YA?AW4SLD_STATUS@@W4floating_point_parse_result@0@AEBUfloating_point_string@0@QEAM@Z 000000014003cd50 f i libucrt:input.obj
 0001:0003bec0       ??$parse_floating_point_write_result@N@__crt_strtox@@YA?AW4SLD_STATUS@@W4floating_point_parse_result@0@AEBUfloating_point_string@0@QEAN@Z 000000014003cec0 f i libucrt:input.obj
 0001:0003c0a0       ??$parse_integer@_KV?$input_adapter_character_source@V?$string_input_adapter@D@__crt_stdio_input@@@__crt_strtox@@@__crt_strtox@@YA_KQEAU__crt_locale_pointers@@V?$input_adapter_character_source@V?$string_input_adapter@D@__crt_stdio_input@@@0@H_N@Z 000000014003d0a0 f i libucrt:input.obj
 0001:0003c4ac       ??$process_floating_point_specifier_t@M@?$input_processor@DV?$string_input_adapter@D@__crt_stdio_input@@@__crt_stdio_input@@AEAA_NXZ 000000014003d4ac f i libucrt:input.obj
 0001:0003c550       ??$process_floating_point_specifier_t@N@?$input_processor@DV?$string_input_adapter@D@__crt_stdio_input@@@__crt_stdio_input@@AEAA_NXZ 000000014003d550 f i libucrt:input.obj
 0001:0003c5f8       ??$process_string_specifier_tchar@D@?$input_processor@DV?$string_input_adapter@D@__crt_stdio_input@@@__crt_stdio_input@@AEAA_NW4conversion_mode@1@D@Z 000000014003d5f8 f i libucrt:input.obj
 0001:0003c7b4       ??$process_string_specifier_tchar@_W@?$input_processor@DV?$string_input_adapter@D@__crt_stdio_input@@@__crt_stdio_input@@AEAA_NW4conversion_mode@1@_W@Z 000000014003d7b4 f i libucrt:input.obj
 0001:0003c9a0       ??$skip_whitespace@Vstring_input_adapter@__crt_stdio_input@@D@__crt_stdio_input@@YAHAEAV?$string_input_adapter@D@0@QEAU__crt_locale_pointers@@@Z 000000014003d9a0 f i libucrt:input.obj
 0001:0003c9f4       ?advance@?$format_string_parser@D@__crt_stdio_input@@QEAA_NXZ 000000014003d9f4 f i libucrt:input.obj
 0001:0003cbbc       ?as_double@floating_point_value@__crt_strtox@@QEBAAEANXZ 000000014003dbbc f i libucrt:input.obj
 0001:0003cbf8       ?as_float@floating_point_value@__crt_strtox@@QEBAAEAMXZ 000000014003dbf8 f i libucrt:input.obj
 0001:0003cc34       ?assemble_floating_point_value@__crt_strtox@@YA?AW4SLD_STATUS@@_KH_N1AEBVfloating_point_value@1@@Z 000000014003dc34 f i libucrt:input.obj
 0001:0003cfdc       ?assemble_floating_point_value_from_big_integer@__crt_strtox@@YA?AW4SLD_STATUS@@AEBUbig_integer@1@I_N1AEBVfloating_point_value@1@@Z 000000014003dfdc f i libucrt:input.obj
 0001:0003d140       ?convert_decimal_string_to_floating_type_common@__crt_strtox@@YA?AW4SLD_STATUS@@AEBUfloating_point_string@1@AEBVfloating_point_value@1@@Z 000000014003e140 f i libucrt:input.obj
 0001:0003eec4       ?convert_hexadecimal_string_to_floating_type_common@__crt_strtox@@YA?AW4SLD_STATUS@@AEBUfloating_point_string@1@AEBVfloating_point_value@1@@Z 000000014003fec4 f i libucrt:input.obj
 0001:0003ef70       ?divide@__crt_strtox@@YA_KAEAUbig_integer@1@AEBU21@@Z 000000014003ff70 f i libucrt:input.obj
 0001:0003f39c       ?length@?$format_string_parser@D@__crt_stdio_input@@QEBA_KXZ 000000014004039c f i libucrt:input.obj
 0001:0003f438       ?process@?$input_processor@DV?$string_input_adapter@D@__crt_stdio_input@@@__crt_stdio_input@@QEAAHXZ 0000000140040438 f i libucrt:input.obj
 0001:0003f524       ?process_conversion_specifier@?$input_processor@DV?$string_input_adapter@D@__crt_stdio_input@@@__crt_stdio_input@@AEAA_NXZ 0000000140040524 f i libucrt:input.obj
 0001:0003f644       ?process_floating_point_specifier@?$input_processor@DV?$string_input_adapter@D@__crt_stdio_input@@@__crt_stdio_input@@AEAA_NXZ 0000000140040644 f i libucrt:input.obj
 0001:0003f6b4       ?process_integer_specifier@?$input_processor@DV?$string_input_adapter@D@__crt_stdio_input@@@__crt_stdio_input@@AEAA_NI_N@Z 00000001400406b4 f i libucrt:input.obj
 0001:0003f76c       ?process_literal_character_tchar@?$input_processor@DV?$string_input_adapter@D@__crt_stdio_input@@@__crt_stdio_input@@AEAA_ND@Z 000000014004076c f i libucrt:input.obj
 0001:0003f7f0       ?process_state@?$input_processor@DV?$string_input_adapter@D@__crt_stdio_input@@@__crt_stdio_input@@AEAA_NXZ 00000001400407f0 f i libucrt:input.obj
 0001:0003f8a8       ?process_string_specifier@?$input_processor@DV?$string_input_adapter@D@__crt_stdio_input@@@__crt_stdio_input@@AEAA_NW4conversion_mode@2@@Z 00000001400408a8 f i libucrt:input.obj
 0001:0003f934       ?scan_conversion_specifier@?$format_string_parser@D@__crt_stdio_input@@AEAA_NXZ 0000000140040934 f i libucrt:input.obj
 0001:0003fad8       ?scan_optional_field_width@?$format_string_parser@D@__crt_stdio_input@@AEAA_NXZ 0000000140040ad8 f i libucrt:input.obj
 0001:0003fb80       ?scan_optional_length_modifier@?$format_string_parser@D@__crt_stdio_input@@AEAAXXZ 0000000140040b80 f i libucrt:input.obj
 0001:0003fcb8       ?scan_scanset_range@?$format_string_parser@D@__crt_stdio_input@@AEAA_NXZ 0000000140040cb8 f i libucrt:input.obj
 0001:0003fe6c       ?write_character@?$input_processor@DV?$string_input_adapter@D@__crt_stdio_input@@@__crt_stdio_input@@AEAA_NQEFA_W_KAEAPEFA_WAEA_KD@Z 0000000140040e6c f i libucrt:input.obj
 0001:0003ff04       ?write_integer@?$input_processor@DV?$string_input_adapter@D@__crt_stdio_input@@@__crt_stdio_input@@AEAA_N_K@Z 0000000140040f04 f i libucrt:input.obj
 0001:0003ff7c       __stdio_common_vsscanf     0000000140040f7c f   libucrt:input.obj
 0001:0004012c       malloc                     000000014004112c f   libucrt:malloc.obj
 0001:00040134       _fputc_nolock              0000000140041134 f   libucrt:fputc.obj
 0001:0004014c       terminate                  000000014004114c f   libucrt:terminate.obj
 0001:0004016c       __acrt_initialize_locks    000000014004116c f   libucrt:locks.obj
 0001:000401b4       __acrt_lock                00000001400411b4 f   libucrt:locks.obj
 0001:000401d0       __acrt_uninitialize_locks  00000001400411d0 f   libucrt:locks.obj
 0001:00040208       __acrt_unlock              0000000140041208 f   libucrt:locks.obj
 0001:00040224       _lock_locales              0000000140041224 f   libucrt:locks.obj
 0001:00040240       _unlock_locales            0000000140041240 f   libucrt:locks.obj
 0001:00040250       rand_s                     0000000140041250 f   libucrt:rand_s.obj
 0001:0004029c       __pctype_func              000000014004129c f   libucrt:ctype.obj
 0001:000402cc       calloc                     00000001400412cc f   libucrt:calloc.obj
 0001:000402e0       pow                        00000001400412e0 f   libucrt:pow.obj
 0001:00041980       powf                       0000000140042980 f   libucrt:powf.obj
 0001:00042848       abort                      0000000140043848 f   libucrt:abort.obj
 0001:000428a0       __strncnt                  00000001400438a0 f   libucrt:strncnt.obj
 0001:000428b8       ??$__acrt_mbs_to_wcs_cp@U__crt_win32_buffer_internal_dynamic_resizing@@@@YAHQEBDAEAV?$__crt_win32_buffer@_WU__crt_win32_buffer_internal_dynamic_resizing@@@@I@Z 00000001400438b8 f i libucrt:strftime.obj
 0001:00042a30       ??$__acrt_wcs_to_mbs_cp@U__crt_win32_buffer_no_resizing@@@@YAHQEB_WAEAV?$__crt_win32_buffer@DU__crt_win32_buffer_no_resizing@@@@I@Z 0000000140043a30 f i libucrt:strftime.obj
 0001:00042b44       strnlen                    0000000140043b44 f   libucrt:strnlen.obj
 0001:00042c94       wcsnlen                    0000000140043c94 f   libucrt:strnlen.obj
 0001:00042e80       strncmp                    0000000140043e80 f   libucrt:strncmp.obj
 0001:00042f10       strcmp                     0000000140043f10 f   libucrt:strcmp.obj
 0001:00042f78       _aligned_free              0000000140043f78 f   libucrt:align.obj
 0001:00042f94       _aligned_malloc            0000000140043f94 f   libucrt:align.obj
 0001:00043020       log                        0000000140044020 f   libucrt:log.obj
 0001:0004354c       __acrt_initialize_clock    000000014004454c f   libucrt:clock.obj
 0001:000435a0       __acrt_initialize_new_handler 00000001400445a0 f   libucrt:new_handler.obj
 0001:000435a8       _callnewh                  00000001400445a8 f   libucrt:new_handler.obj
 0001:000435d8       _query_new_handler         00000001400445d8 f   libucrt:new_handler.obj
 0001:0004360c       _set_new_handler           000000014004460c f   libucrt:new_handler.obj
 0001:00043668       _seh_filter_exe            0000000140044668 f   libucrt:exception_filter.obj
 0001:00043a58       __acrt_initialize_thread_local_exit_callback 0000000140044a58 f   libucrt:exit.obj
 0001:00043a60       _c_exit                    0000000140044a60 f   libucrt:exit.obj
 0001:00043a70       _cexit                     0000000140044a70 f   libucrt:exit.obj
 0001:00043a80       _exit                      0000000140044a80 f   libucrt:exit.obj
 0001:00043a8c       _register_thread_local_exe_atexit_callback 0000000140044a8c f   libucrt:exit.obj
 0001:00043ac8       exit                       0000000140044ac8 f   libucrt:exit.obj
 0001:00043c98       __acrt_allocate_buffer_for_argv 0000000140044c98 f   libucrt:argv_parsing.obj
 0001:00043cf8       _configure_narrow_argv     0000000140044cf8 f   libucrt:argv_parsing.obj
 0001:00044070       __dcrt_uninitialize_environments_nolock 0000000140045070 f   libucrt:environment_initialization.obj
 0001:000440a8       _initialize_narrow_environment 00000001400450a8 f   libucrt:environment_initialization.obj
 0001:000443f0       _crt_atexit                00000001400453f0 f   libucrt:onexit.obj
 0001:00044400       _execute_onexit_table      0000000140045400 f   libucrt:onexit.obj
 0001:0004443c       _initialize_onexit_table   000000014004543c f   libucrt:onexit.obj
 0001:00044464       _register_onexit_function  0000000140045464 f   libucrt:onexit.obj
 0001:000445d8       __acrt_initialize          00000001400455d8 f   libucrt:initialization.obj
 0001:000445ec       __acrt_uninitialize        00000001400455ec f   libucrt:initialization.obj
 0001:00044624       _query_app_type            0000000140045624 f   libucrt:report_runtime_error.obj
 0001:0004462c       _set_app_type              000000014004562c f   libucrt:report_runtime_error.obj
 0001:00044634       __acrt_has_user_matherr    0000000140045634 f   libucrt:matherr.obj
 0001:00044654       __acrt_initialize_user_matherr 0000000140045654 f   libucrt:matherr.obj
 0001:0004465c       __acrt_invoke_user_matherr 000000014004565c f   libucrt:matherr.obj
 0001:0004468c       __setusermatherr           000000014004568c f   libucrt:matherr.obj
 0001:000446b4       _get_narrow_winmain_command_line 00000001400456b4 f   libucrt:argv_winmain.obj
 0001:00044724       _initterm                  0000000140045724 f   libucrt:initterm.obj
 0001:00044788       _initterm_e                0000000140045788 f   libucrt:initterm.obj
 0001:000447c8       _get_fmode                 00000001400457c8 f   libucrt:setmode.obj
 0001:000447f8       _set_fmode                 00000001400457f8 f   libucrt:setmode.obj
 0001:00044838       _setmode_nolock            0000000140045838 f   libucrt:setmode.obj
 0001:00044988       __acrt_set_locale_changed  0000000140045988 f   libucrt:wsetlocale.obj
 0001:00044994       __acrt_uninitialize_locale 0000000140045994 f   libucrt:wsetlocale.obj
 0001:000449c4       _configthreadlocale        00000001400459c4 f   libucrt:wsetlocale.obj
 0001:00044a30       _query_new_mode            0000000140045a30 f   libucrt:new_mode.obj
 0001:00044a38       _set_new_mode              0000000140045a38 f   libucrt:new_mode.obj
 0001:00044a64       __p__commode               0000000140045a64 f   libucrt:ncommode.obj
 0001:00044a6c       strcpy_s                   0000000140045a6c f   libucrt:strcpy_s.obj
 0001:00044acc       wcsncmp                    0000000140045acc f   libucrt:wcsncmp.obj
 0001:00044e70       __acrt_getptd              0000000140045e70 f   libucrt:per_thread_data.obj
 0001:00044f44       __acrt_getptd_head         0000000140045f44 f   libucrt:per_thread_data.obj
 0001:00044fec       __acrt_getptd_noexit       0000000140045fec f   libucrt:per_thread_data.obj
 0001:000450b8       __acrt_initialize_ptd      00000001400460b8 f   libucrt:per_thread_data.obj
 0001:000450f4       __acrt_uninitialize_ptd    00000001400460f4 f   libucrt:per_thread_data.obj
 0001:00045118       _isctype_l                 0000000140046118 f   libucrt:isctype.obj
 0001:00045220       __acrt_update_locale_info  0000000140046220 f   libucrt:locale_update.obj
 0001:00045254       __acrt_update_multibyte_info 0000000140046254 f   libucrt:locale_update.obj
 0001:00045414       _lseeki64                  0000000140046414 f   libucrt:lseek.obj
 0001:0004541c       _lseeki64_nolock           000000014004641c f   libucrt:lseek.obj
 0001:00045424       _fileno                    0000000140046424 f   libucrt:fileno.obj
 0001:00045a24       _read                      0000000140046a24 f   libucrt:read.obj
 0001:00045b40       _read_nolock               0000000140046b40 f   libucrt:read.obj
 0001:00046194       __acrt_initialize_lowio    0000000140047194 f   libucrt:ioinit.obj
 0001:000461d0       __acrt_uninitialize_lowio  00000001400471d0 f   libucrt:ioinit.obj
 0001:00046210       _isleadbyte_l              0000000140047210 f i libucrt:_wctype.obj
 0001:00046574       __acrt_LCMapStringA        0000000140047574 f   libucrt:lcmapstringa.obj
 0001:0004660c       _calloc_base               000000014004760c f   libucrt:calloc_base.obj
 0001:00046684       _free_base                 0000000140047684 f   libucrt:free_base.obj
 0001:0004689c       __acrt_AppPolicyGetProcessTerminationMethodInternal 000000014004789c f   libucrt:winapi_thunks.obj
 0001:000468ec       __acrt_AreFileApisANSI     00000001400478ec f   libucrt:winapi_thunks.obj
 0001:00046928       __acrt_FlsAlloc            0000000140047928 f   libucrt:winapi_thunks.obj
 0001:00046970       __acrt_FlsFree             0000000140047970 f   libucrt:winapi_thunks.obj
 0001:000469b8       __acrt_FlsGetValue         00000001400479b8 f   libucrt:winapi_thunks.obj
 0001:00046a00       __acrt_FlsSetValue         0000000140047a00 f   libucrt:winapi_thunks.obj
 0001:00046a54       __acrt_InitializeCriticalSectionEx 0000000140047a54 f   libucrt:winapi_thunks.obj
 0001:00046ab8       __acrt_LCMapStringEx       0000000140047ab8 f   libucrt:winapi_thunks.obj
 0001:00046b94       __acrt_LocaleNameToLCID    0000000140047b94 f   libucrt:winapi_thunks.obj
 0001:00046be4       __acrt_RtlGenRandom        0000000140047be4 f   libucrt:winapi_thunks.obj
 0001:00046c34       __acrt_eagerly_load_locale_apis 0000000140047c34 f   libucrt:winapi_thunks.obj
 0001:00046d90       __acrt_initialize_winapi_thunks 0000000140047d90 f   libucrt:winapi_thunks.obj
 0001:00046dc4       __acrt_uninitialize_winapi_thunks 0000000140047dc4 f   libucrt:winapi_thunks.obj
 0001:00046e08       _fcloseall                 0000000140047e08 f   libucrt:closeall.obj
 0001:00046ebc       __acrt_stdio_free_buffer_nolock 0000000140047ebc f   libucrt:_freebuf.obj
 0001:00046f88       _commit                    0000000140047f88 f   libucrt:commit.obj
 0001:0004787c       _write                     000000014004887c f   libucrt:write.obj
 0001:00047968       _write_nolock              0000000140048968 f   libucrt:write.obj
 0001:00047cb8       _close                     0000000140048cb8 f   libucrt:close.obj
 0001:00047d5c       _close_nolock              0000000140048d5c f   libucrt:close.obj
 0001:00047e1c       ?__acrt_stdio_allocate_stream@@YA?AV__crt_stdio_stream@@XZ 0000000140048e1c f   libucrt:stream.obj
 0001:00047e74       ?__acrt_stdio_free_stream@@YAXV__crt_stdio_stream@@@Z 0000000140048e74 f   libucrt:stream.obj
 0001:00047f7c       _malloc_base               0000000140048f7c f   libucrt:malloc_base.obj
 0001:00047fdc       strtol                     0000000140048fdc f   libucrt:strtox.obj
 0001:00048008       strtoull                   0000000140049008 f   libucrt:strtox.obj
 0001:00048034       _mbtowc_l                  0000000140049034 f   libucrt:mbtowc.obj
 0001:000481b4       mbtowc                     00000001400491b4 f   libucrt:mbtowc.obj
 0001:000481bc       _wctomb_s_l                00000001400491bc f   libucrt:wctomb.obj
 0001:00048358       wctomb_s                   0000000140049358 f   libucrt:wctomb.obj
 0001:00048c04       __acrt_fp_format           0000000140049c04 f   libucrt:cvt.obj
 0001:00048f08       _get_printf_count_output   0000000140049f08 f   libucrt:printf_count_output.obj
 0001:00048f20       __acrt_stdio_begin_temporary_buffering_nolock 0000000140049f20 f   libucrt:_sftbuf.obj
 0001:00048ff0       __acrt_stdio_end_temporary_buffering_nolock 0000000140049ff0 f   libucrt:_sftbuf.obj
 0001:0004902c       ??$__acrt_stdio_parse_mode@_W@@YA?AU__acrt_stdio_stream_mode@@QEB_W@Z 000000014004a02c f i libucrt:openfile.obj
 0001:0004932c       _wopenfile                 000000014004a32c f   libucrt:openfile.obj
 0001:000493c8       __acrt_stdio_refill_and_read_narrow_nolock 000000014004a3c8 f   libucrt:_filbuf.obj
 0001:00049534       fegetround                 000000014004a534 f   libucrt:fegetround.obj
 0001:000496a8       __acrt_stdio_flush_and_write_narrow_nolock 000000014004a6a8 f   libucrt:_flsbuf.obj
 0001:00049794       __acrt_stdio_allocate_buffer_nolock 000000014004a794 f   libucrt:_getbuf.obj
 0001:000497fc       __acrt_GetStringTypeA      000000014004a7fc f   libucrt:getstringtypea.obj
 0001:0004998c       _raise_exc                 000000014004a98c f   libucrt:fpexcept.obj
 0001:000499b4       _raise_exc_ex              000000014004a9b4 f   libucrt:fpexcept.obj
 0001:00049cc4       _raise_excf                000000014004acc4 f   libucrt:fpexcept.obj
 0001:00049cf0       _set_errno_from_matherr    000000014004acf0 f   libucrt:fpexcept.obj
 0001:00049d20       _clrfp                     000000014004ad20 f   libucrt:fpctrl.obj
 0001:00049d40       _ctrlfp                    000000014004ad40 f   libucrt:fpctrl.obj
 0001:00049dbc       _set_statfp                000000014004adbc f   libucrt:fpctrl.obj
 0001:00049ddc       _statfp                    000000014004addc f   libucrt:fpctrl.obj
 0001:00049df0       _realloc_base              000000014004adf0 f   libucrt:realloc_base.obj
 0001:00049e70       __acrt_initialize_fma3     000000014004ae70 f   libucrt:fma3_available.obj
 0001:00049ee0       _pow_special               000000014004aee0 f   libucrt:pow_special.obj
 0001:0004a004       _powf_special              000000014004b004 f   libucrt:pow_special.obj
 0001:0004a1d8       __acrt_get_sigabrt_handler 000000014004b1d8 f   libucrt:signal.obj
 0001:0004a208       __acrt_initialize_signal_handlers 000000014004b208 f   libucrt:signal.obj
 0001:0004a228       raise                      000000014004b228 f   libucrt:signal.obj
 0001:0004a494       __acrt_MultiByteToWideChar 000000014004b494 f   libucrt:multibytetowidechar.obj
 0001:0004a4f0       __acrt_WideCharToMultiByte 000000014004b4f0 f   libucrt:widechartomultibyte.obj
 0001:0004a588       __acrt_initialize_timeset  000000014004b588 f   libucrt:timeset.obj
 0001:0004a5cc       _msize_base                000000014004b5cc f   libucrt:msize.obj
 0001:0004a608       ?__mbrtowc_utf8@__crt_mbstring@@YA_KPEA_WPEBD_KPEAU_Mbstatet@@@Z 000000014004b608 f   libucrt:mbrtowc.obj
 0001:0004a644       ?__mbsrtowcs_utf8@__crt_mbstring@@YA_KPEA_WPEAPEBD_KPEAU_Mbstatet@@@Z 000000014004b644 f   libucrt:mbrtowc.obj
 0001:0004a7bc       _log10_special             000000014004b7bc f   libucrt:log_special.obj
 0001:0004a7dc       _log_special               000000014004b7dc f   libucrt:log_special.obj
 0001:0004a894       __acrt_get_process_end_policy 000000014004b894 f   libucrt:win_policies.obj
 0001:0004a8e4       ??$__acrt_wcs_to_mbs_cp@U__crt_win32_buffer_internal_dynamic_resizing@@@@YAHQEB_WAEAV?$__crt_win32_buffer@DU__crt_win32_buffer_internal_dynamic_resizing@@@@I@Z 000000014004b8e4 f i libucrt:argv_wildcards.obj
 0001:0004b114       __acrt_expand_narrow_argv_wildcards 000000014004c114 f   libucrt:argv_wildcards.obj
 0001:0004b11c       __acrt_GetModuleFileNameA  000000014004c11c f   libucrt:getmodulefilenamea.obj
 0001:0004b968       __acrt_initialize_multibyte 000000014004c968 f   libucrt:mbctype.obj
 0001:0004b9c8       __acrt_update_thread_multibyte_data 000000014004c9c8 f   libucrt:mbctype.obj
 0001:0004b9e4       _setmbcp_nolock            000000014004c9e4 f   libucrt:mbctype.obj
 0001:0004bd18       _ismbblead                 000000014004cd18 f   libucrt:ismbbyte.obj
 0001:0004bd2c       __acrt_initialize_command_line 000000014004cd2c f   libucrt:argv_data.obj
 0001:0004bd54       __dcrt_get_narrow_environment_from_os 000000014004cd54 f   libucrt:get_environment_from_os.obj
 0001:0004be58       _recalloc_base             000000014004ce58 f   libucrt:recalloc.obj
 0001:0004bef0       __acrt_initialize_heap     000000014004cef0 f   libucrt:heap_handle.obj
 0001:0004bf0c       __acrt_uninitialize_heap   000000014004cf0c f   libucrt:heap_handle.obj
 0001:0004bf18       __acrt_execute_initializers 000000014004cf18 f   libucrt:shared_initialization.obj
 0001:0004bf98       __acrt_execute_uninitializers 000000014004cf98 f   libucrt:shared_initialization.obj
 0001:0004bfd4       __acrt_lowio_create_handle_array 000000014004cfd4 f   libucrt:osfinfo.obj
 0001:0004c07c       __acrt_lowio_destroy_handle_array 000000014004d07c f   libucrt:osfinfo.obj
 0001:0004c0cc       __acrt_lowio_ensure_fh_exists 000000014004d0cc f   libucrt:osfinfo.obj
 0001:0004c174       __acrt_lowio_lock_fh       000000014004d174 f   libucrt:osfinfo.obj
 0001:0004c19c       __acrt_lowio_set_os_handle 000000014004d19c f   libucrt:osfinfo.obj
 0001:0004c25c       __acrt_lowio_unlock_fh     000000014004d25c f   libucrt:osfinfo.obj
 0001:0004c284       _alloc_osfhnd              000000014004d284 f   libucrt:osfinfo.obj
 0001:0004c3c4       _free_osfhnd               000000014004d3c4 f   libucrt:osfinfo.obj
 0001:0004c480       _get_osfhandle             000000014004d480 f   libucrt:osfinfo.obj
 0001:0004c4f8       __acrt_locale_free_monetary 000000014004d4f8 f   libucrt:initmon.obj
 0001:0004c604       __acrt_locale_free_numeric 000000014004d604 f   libucrt:initnum.obj
 0001:0004c6c8       __acrt_locale_free_time    000000014004d6c8 f   libucrt:inittime.obj
 0001:0004c7d0       __acrt_add_locale_ref      000000014004d7d0 f   libucrt:locale_refcounting.obj
 0001:0004c85c       __acrt_free_locale         000000014004d85c f   libucrt:locale_refcounting.obj
 0001:0004c9d4       __acrt_locale_add_lc_time_reference 000000014004d9d4 f   libucrt:locale_refcounting.obj
 0001:0004c9fc       __acrt_locale_free_lc_time_if_unreferenced 000000014004d9fc f   libucrt:locale_refcounting.obj
 0001:0004ca34       __acrt_locale_release_lc_time_reference 000000014004da34 f   libucrt:locale_refcounting.obj
 0001:0004ca5c       __acrt_release_locale_ref  000000014004da5c f   libucrt:locale_refcounting.obj
 0001:0004cb04       __acrt_update_thread_locale_data 000000014004db04 f   libucrt:locale_refcounting.obj
 0001:0004cb70       _updatetlocinfoEx_nolock   000000014004db70 f   libucrt:locale_refcounting.obj
 0001:0004cbd8       _isatty                    000000014004dbd8 f   libucrt:isatty.obj
 0001:0004cc38       __acrt_DownlevelLocaleNameToLCID 000000014004dc38 f   libucrt:lcidtoname_downlevel.obj
 0001:0004cce8       _putwch_nolock             000000014004dce8 f   libucrt:putwch.obj
 0001:0004cd24       ?__c32rtomb_utf8@__crt_mbstring@@YA_KPEAD_UPEAU_Mbstatet@@@Z 000000014004dd24 f   libucrt:c32rtomb.obj
 0001:0004cdd8       __acrt_fp_strflt_to_string 000000014004ddd8 f   libucrt:_fptostr.obj
 0001:0004cebc       __acrt_fltout              000000014004debc f   libucrt:cfout.obj
 0001:0004e0f0       __ascii_wcsnicmp           000000014004f0f0 f   libucrt:wcsnicmp.obj
 0001:0004e13c       _wcsnicmp                  000000014004f13c f   libucrt:wcsnicmp.obj
 0001:0004e184       _wcsnicmp_l                000000014004f184 f   libucrt:wcsnicmp.obj
 0001:0004e8fc       _wsopen_nolock             000000014004f8fc f   libucrt:open.obj
 0001:0004ece4       _wsopen_s                  000000014004fce4 f   libucrt:open.obj
 0001:0004ed18       __acrt_fenv_get_common_round_control 000000014004fd18 f   libucrt:_fenvutils.obj
 0001:0004ed24       __acrt_fenv_get_control    000000014004fd24 f   libucrt:_fenvutils.obj
 0001:0004ee18       __acrt_fenv_get_status     000000014004fe18 f   libucrt:_fenvutils.obj
 0001:0004ee6c       __acrt_fenv_set_control    000000014004fe6c f   libucrt:_fenvutils.obj
 0001:0004efb4       __acrt_fenv_set_status     000000014004ffb4 f   libucrt:_fenvutils.obj
 0001:0004f038       strncpy_s                  0000000140050038 f   libucrt:strncpy_s.obj
 0001:0004f120       _get_fpsr                  0000000140050120 f   libucrt:fpsr.obj
 0001:0004f130       _set_fpsr                  0000000140050130 f   libucrt:fpsr.obj
 0001:0004f13a       _fclrf                     000000014005013a f   libucrt:fpsr.obj
 0001:0004f14e       _frnd                      000000014005014e f   libucrt:fpsr.obj
 0001:0004f294       _handle_error              0000000140050294 f   libucrt:libm_error.obj
 0001:0004f3bc       _handle_errorf             00000001400503bc f   libucrt:libm_error.obj
 0001:0004f4f0       _handle_nan                00000001400504f0 f   libucrt:libm_error.obj
 0001:0004f50c       _handle_nanf               000000014005050c f   libucrt:libm_error.obj
 0001:0004f51c       _towlower_l                000000014005051c f   libucrt:towlower.obj
 0001:0004f5d8       ?__mbrtoc32_utf8@__crt_mbstring@@YA_KPEA_UPEBD_KPEAU_Mbstatet@@@Z 00000001400505d8 f   libucrt:mbrtoc32.obj
 0001:0004f860       strpbrk                    0000000140050860 f   libucrt:strpbrk.obj
 0001:0004fc40       _mbsdec                    0000000140050c40 f   libucrt:mbsdec.obj
 0001:0004fc48       _mbsdec_l                  0000000140050c48 f   libucrt:mbsdec.obj
 0001:0004fcf4       __dcrt_lowio_ensure_console_output_initialized 0000000140050cf4 f   libucrt:initcon.obj
 0001:0004fd48       __dcrt_terminate_console_output 0000000140050d48 f   libucrt:initcon.obj
 0001:0004fd64       __dcrt_write_console       0000000140050d64 f   libucrt:initcon.obj
 0001:0004fe24       fegetenv                   0000000140050e24 f   libucrt:fegetenv.obj
 0001:0004fe44       fesetenv                   0000000140050e44 f   libucrt:fesetenv.obj
 0001:0004fe90       feholdexcept               0000000140050e90 f   libucrt:feholdexcept.obj
 0001:0004fee0       ceil                       0000000140050ee0 f   libucrt:ceil.obj
 0001:0004ffb0       log10                      0000000140050fb0 f   libucrt:log10.obj
 0001:0005055c       _chsize_nolock             000000014005155c f   libucrt:chsize.obj
 0001:000506c8       __acrt_LCMapStringW        00000001400516c8 f   libucrt:lcmapstringw.obj
 0001:00050750       _clearfp                   0000000140051750 f   libucrt:ieee.obj
 0001:000507c0       IsProcessorFeaturePresent  00000001400517c0 f   kernel32:KERNEL32.dll
 0001:000507c8       ?_New_handler_interface@std@@YAH_K@Z 00000001400517c8 f   libcpmt:stdhndlr.obj
 0001:000507e4       ?set_new_handler@std@@YAP6AXXZP6AXXZ@Z 00000001400517e4 f   libcpmt:stdhndlr.obj
 0001:00050840       _FindPESection             0000000140051840 f   LIBCMT:pesect.obj
 0001:00050890       _IsNonwritableInCurrentImage 0000000140051890 f   LIBCMT:pesect.obj
 0001:000508e0       _ValidateImageBase         00000001400518e0 f   LIBCMT:pesect.obj
 0001:00050910       __GSHandlerCheck_SEH       0000000140051910 f   LIBCMT:gshandlerseh.obj
 0001:00050998       strrchr                    0000000140051998 f   libvcruntime:strrchr.obj
 0001:00050ac8       ??1DefaultWaiterPool@platform@details@Concurrency@@QEAA@XZ 0000000140051ac8 f i libconcrt:Platform.obj
 0001:00050b30       ?__TlsFree@platform@details@Concurrency@@YAXK@Z 0000000140051b30 f   libconcrt:Platform.obj
 0001:00050b38       _concrt_static_cleanup     0000000140051b38 f   libconcrt:utils.obj
 0001:00050b50       ?InitializeCookie@Security@details@Concurrency@@SA_KXZ 0000000140051b50 f   libconcrt:utils.obj
 0001:00050bb4       ?CheckOneShotStaticDestruction@SchedulerBase@details@Concurrency@@SAXXZ 0000000140051bb4 f   libconcrt:SchedulerBase.obj
 0001:00050bf4       ?OneShotStaticDestruction@UMSThreadScheduler@details@Concurrency@@SAXXZ 0000000140051bf4 f   libconcrt:UMSThreadScheduler.obj
 0001:00050c10       exp                        0000000140051c10 f   libucrt:exp.obj
 0001:00051008       sqrt                       0000000140052008 f   libucrt:sqrt.obj
 0001:000510d4       _exp_special               00000001400520d4 f   libucrt:exp_special.obj
 0001:00051170       ?activation@client@@YA?AV?$basic_string@DU?$char_traits@D@std@@V?$allocator@D@2@@std@@XZ 0000000140052170 f   client.obj
 0001:000512e0       ?valid_version@client@@YA?AV?$basic_string@DU?$char_traits@D@std@@V?$allocator@D@2@@std@@XZ 00000001400522e0 f   client.obj
 0001:00051590       ?authentication@client@@YA?AV?$basic_string@DU?$char_traits@D@std@@V?$allocator@D@2@@std@@XZ 0000000140052590 f   client.obj
 0001:00051b00       ?decrypt@aes@@YA?AV?$basic_string@DU?$char_traits@D@std@@V?$allocator@D@2@@std@@AEBV23@00@Z 0000000140052b00 f   encrypt-decrypt.obj
 0001:00051c20       ?encrypt@aes@@YA?AV?$basic_string@DU?$char_traits@D@std@@V?$allocator@D@2@@std@@AEBV23@00@Z 0000000140052c20 f   encrypt-decrypt.obj
 0001:00051f70       ?Columns@ImGui@@YAXHPEBD_N@Z 0000000140052f70 f   imgui.obj
 0001:000523f0       ?GetColumnWidth@ImGui@@YAMH@Z 00000001400533f0 f   imgui.obj
 0001:00052430       ?SetColumnOffset@ImGui@@YAXHM@Z 0000000140053430 f   imgui.obj
 0001:000524a0       ?GetColumnOffset@ImGui@@YAMH@Z 00000001400534a0 f   imgui.obj
 0001:000525c0       ?EndGroup@ImGui@@YAXXZ     00000001400535c0 f   imgui.obj
 0001:00052770       ?BeginGroup@ImGui@@YAXXZ   0000000140053770 f   imgui.obj
 0001:00052870       ?Dummy@ImGui@@YAXAEBUImVec2@@@Z 0000000140053870 f   imgui.obj
 0001:00052940       ?InputText@ImGui@@YA_NPEBDPEAD_KHP6AHPEAUImGuiTextEditCallbackData@@@ZPEAX@Z 0000000140053940 f   imgui.obj
 0001:00052990       ?InputTextEx@ImGui@@YA_NPEBDPEADHAEBUImVec2@@HP6AHPEAUImGuiTextEditCallbackData@@@ZPEAX@Z 0000000140053990 f   imgui.obj
 0001:00053c20       ?OnKeyPressed@ImGuiTextEditState@@QEAAXH@Z 0000000140054c20 f   imgui.obj
 0001:000556d0       ?PopID@ImGui@@YAXXZ        00000001400566d0 f   imgui.obj
 0001:000556f0       ?PushID@ImGui@@YAXH@Z      00000001400566f0 f   imgui.obj
 0001:00055730       ?LogFinish@ImGui@@YAXXZ    0000000140056730 f   imgui.obj
 0001:000557d0       ?CloseButton@ImGui@@YA_NIAEBUImVec2@@M@Z 00000001400567d0 f   imgui.obj
 0001:00055a00       ?Button@ImGui@@YA_NPEBDAEBUImVec2@@@Z 0000000140056a00 f   imgui.obj
 0001:00055a10       ?ButtonEx@ImGui@@YA_NPEBDAEBUImVec2@@H@Z 0000000140056a10 f   imgui.obj
 0001:00055c00       ?ButtonBehavior@ImGui@@YA_NAEBUImRect@@IPEA_N1H@Z 0000000140056c00 f   imgui.obj
 0001:00055e90       ?TextUnformatted@ImGui@@YAXPEBD0@Z 0000000140056e90 f   imgui.obj
 0001:000562c0       ?Text@ImGui@@YAXPEBDZZ     00000001400572c0 f   imgui.obj
 0001:000562f0       ?TextV@ImGui@@YAXPEBDPEAD@Z 00000001400572f0 f   imgui.obj
 0001:00056360       ?GetScrollMaxY@ImGui@@YAMXZ 0000000140057360 f   imgui.obj
 0001:00056390       ?SetCursorPosY@ImGui@@YAXM@Z 0000000140057390 f   imgui.obj
 0001:000563d0       ?SetCursorPosX@ImGui@@YAXM@Z 00000001400573d0 f   imgui.obj
 0001:00056410       ?SetCursorPos@ImGui@@YAXAEBUImVec2@@@Z 0000000140057410 f   imgui.obj
 0001:00056480       ?GetWindowDrawList@ImGui@@YAPEAUImDrawList@@XZ 0000000140057480 f   imgui.obj
 0001:000564a0       ?GetTextLineHeight@ImGui@@YAMXZ 00000001400574a0 f   imgui.obj
 0001:000564c0       ?GetContentRegionAvail@ImGui@@YA?AUImVec2@@XZ 00000001400574c0 f   imgui.obj
 0001:00056520       ?GetContentRegionMax@ImGui@@YA?AUImVec2@@XZ 0000000140057520 f   imgui.obj
 0001:00056580       ?SetNextWindowSize@ImGui@@YAXAEBUImVec2@@H@Z 0000000140057580 f   imgui.obj
 0001:000565b0       ?SetNextWindowPos@ImGui@@YAXAEBUImVec2@@H@Z 00000001400575b0 f   imgui.obj
 0001:000565e0       ?SetWindowFocus@ImGui@@YAXXZ 00000001400575e0 f   imgui.obj
 0001:000566b0       ?GetWindowSize@ImGui@@YA?AUImVec2@@XZ 00000001400576b0 f   imgui.obj
 0001:000567c0       ?GetWindowHeight@ImGui@@YAMXZ 00000001400577c0 f   imgui.obj
 0001:000567e0       ?GetWindowWidth@ImGui@@YAMXZ 00000001400577e0 f   imgui.obj
 0001:00056800       ?PopStyleVar@ImGui@@YAXH@Z 0000000140057800 f   imgui.obj
 0001:000568a0       ?PushStyleVar@ImGui@@YAXHAEBUImVec2@@@Z 00000001400578a0 f   imgui.obj
 0001:00056910       ?PushStyleVar@ImGui@@YAXHM@Z 0000000140057910 f   imgui.obj
 0001:000569a0       ?PopStyleColor@ImGui@@YAXH@Z 00000001400579a0 f   imgui.obj
 0001:000569f0       ?PushStyleColor@ImGui@@YAXHAEBUImVec4@@@Z 00000001400579f0 f   imgui.obj
 0001:00056a60       ?PopFont@ImGui@@YAXXZ      0000000140057a60 f   imgui.obj
 0001:00056ad0       ?PushFont@ImGui@@YAXPEAUImFont@@@Z 0000000140057ad0 f   imgui.obj
 0001:00056bf0       ?CalcItemWidth@ImGui@@YAMXZ 0000000140057bf0 f   imgui.obj
 0001:00056c50       ?PopItemWidth@ImGui@@YAXXZ 0000000140057c50 f   imgui.obj
 0001:00056ca0       ?PushItemWidth@ImGui@@YAXM@Z 0000000140057ca0 f   imgui.obj
 0001:00056ce0       ?FocusWindow@ImGui@@YAXPEAUImGuiWindow@@@Z 0000000140057ce0 f   imgui.obj
 0001:000573a0       ?End@ImGui@@YAXXZ          00000001400583a0 f   imgui.obj
 0001:00057450       ?Begin@ImGui@@YA_NPEBDPEA_NAEBUImVec2@@MH@Z 0000000140058450 f   imgui.obj
 0001:00059370       ?Begin@ImGui@@YA_NPEBDPEA_NH@Z 000000014005a370 f   imgui.obj
 0001:00059760       ?FindWindowByName@ImGui@@YAPEAUImGuiWindow@@PEBD@Z 000000014005a760 f   imgui.obj
 0001:00059af0       ?EndChildFrame@ImGui@@YAXXZ 000000014005aaf0 f   imgui.obj
 0001:00059b20       ?BeginChildFrame@ImGui@@YA_NIAEBUImVec2@@H@Z 000000014005ab20 f   imgui.obj
 0001:00059ba0       ?EndChild@ImGui@@YAXXZ     000000014005aba0 f   imgui.obj
 0001:00059c70       ?BeginChild@ImGui@@YA_NIAEBUImVec2@@_NH@Z 000000014005ac70 f   imgui.obj
 0001:00059ca0       ?BeginChild@ImGui@@YA_NPEBDAEBUImVec2@@_NH@Z 000000014005aca0 f   imgui.obj
 0001:0005a030       ?IsMouseClicked@ImGui@@YA_NH_N@Z 000000014005b030 f   imgui.obj
 0001:0005a100       ?IsKeyPressed@ImGui@@YA_NH_N@Z 000000014005b100 f   imgui.obj
 0001:0005a210       ?IsMouseHoveringRect@ImGui@@YA_NAEBUImVec2@@0_N@Z 000000014005b210 f   imgui.obj
 0001:0005a380       ?CalcTextSize@ImGui@@YA?AUImVec2@@PEBD0_NM@Z 000000014005b380 f   imgui.obj
 0001:0005a470       ?RenderCollapseTriangle@ImGui@@YAXUImVec2@@_NM@Z 000000014005b470 f   imgui.obj
 0001:0005a690       ?RenderFrame@ImGui@@YAXUImVec2@@0I_NM@Z 000000014005b690 f   imgui.obj
 0001:0005a7c0       ?RenderTextClipped@ImGui@@YAXAEBUImVec2@@0PEBD1PEBU2@0PEBUImRect@@@Z 000000014005b7c0 f   imgui.obj
 0001:0005aa10       ?RenderTextWrapped@ImGui@@YAXUImVec2@@PEBD1M@Z 000000014005ba10 f   imgui.obj
 0001:0005aaf0       ?RenderText@ImGui@@YAXUImVec2@@PEBD1_N@Z 000000014005baf0 f   imgui.obj
 0001:0005ad30       ?LogText@ImGui@@YAXPEBDZZ  000000014005bd30 f   imgui.obj
 0001:0005ad90       ?FindRenderedTextEnd@ImGui@@YAPEBDPEBD0@Z 000000014005bd90 f   imgui.obj
 0001:0005add0       ?Render@ImGui@@YAXXZ       000000014005bdd0 f   imgui.obj
 0001:0005b220       ?EndFrame@ImGui@@YAXXZ     000000014005c220 f   imgui.obj
 0001:0005b410       ?PopClipRect@ImGui@@YAXXZ  000000014005c410 f   imgui.obj
 0001:0005b460       ?PushClipRect@ImGui@@YAXAEBUImVec2@@0_N@Z 000000014005c460 f   imgui.obj
 0001:0005bbd0       ?Shutdown@ImGui@@YAXXZ     000000014005cbd0 f   imgui.obj
 0001:0005be10       ?NewFrame@ImGui@@YAXXZ     000000014005ce10 f   imgui.obj
 0001:0005c850       ?GetFrameCount@ImGui@@YAHXZ 000000014005d850 f   imgui.obj
 0001:0005c870       ?GetStyle@ImGui@@YAAEAUImGuiStyle@@XZ 000000014005d870 f   imgui.obj
 0001:0005c890       ?GetIO@ImGui@@YAAEAUImGuiIO@@XZ 000000014005d890 f   imgui.obj
 0001:0005c8b0       ?SetClipboardText@ImGui@@YAXPEBD@Z 000000014005d8b0 f   imgui.obj
 0001:0005c8e0       ?GetClipboardText@ImGui@@YAPEBDXZ 000000014005d8e0 f   imgui.obj
 0001:0005c910       ?MemFree@ImGui@@YAXPEAX@Z  000000014005d910 f   imgui.obj
 0001:0005c930       ?MemAlloc@ImGui@@YAPEAX_K@Z 000000014005d930 f   imgui.obj
 0001:0005c950       ?CalcWrapWidthForPos@ImGui@@YAMAEBUImVec2@@M@Z 000000014005d950 f   imgui.obj
 0001:0005c9d0       ?CalcItemSize@ImGui@@YA?AUImVec2@@U2@MM@Z 000000014005d9d0 f   imgui.obj
 0001:0005cb60       ?FocusableItemRegister@ImGui@@YA_NPEAUImGuiWindow@@_N1@Z 000000014005db60 f   imgui.obj
 0001:0005cc40       ?IsHovered@ImGui@@YA_NAEBUImRect@@I_N@Z 000000014005dc40 f   imgui.obj
 0001:0005cce0       ?IsClippedEx@ImGui@@YA_NAEBUImRect@@PEBI_N@Z 000000014005dce0 f   imgui.obj
 0001:0005cd40       ?ItemAdd@ImGui@@YA_NAEBUImRect@@PEBI@Z 000000014005dd40 f   imgui.obj
 0001:0005ce10       ?ItemSize@ImGui@@YAXAEBUImRect@@M@Z 000000014005de10 f   imgui.obj
 0001:0005ce40       ?ItemSize@ImGui@@YAXAEBUImVec2@@M@Z 000000014005de40 f   imgui.obj
 0001:0005cf70       ?KeepAliveID@ImGui@@YAXI@Z 000000014005df70 f   imgui.obj
 0001:0005cf90       ?SetHoveredID@ImGui@@YAXI@Z 000000014005df90 f   imgui.obj
 0001:0005cfb0       ?ClearActiveID@ImGui@@YAXXZ 000000014005dfb0 f   imgui.obj
 0001:0005cfc0       ?SetActiveID@ImGui@@YAXIPEAUImGuiWindow@@@Z 000000014005dfc0 f   imgui.obj
 0001:0005d020       ?GetIDNoKeepAlive@ImGuiWindow@@QEAAIPEBD0@Z 000000014005e020 f   imgui.obj
 0001:0005d050       ?GetID@ImGuiWindow@@QEAAIPEBX@Z 000000014005e050 f   imgui.obj
 0001:0005d090       ?GetID@ImGuiWindow@@QEAAIPEBD0@Z 000000014005e090 f   imgui.obj
 0001:0005d0d0       ??1ImGuiWindow@@QEAA@XZ    000000014005e0d0 f   imgui.obj
 0001:0005d140       ??0ImGuiWindow@@QEAA@PEBD@Z 000000014005e140 f   imgui.obj
 0001:0005d4d0       ?Update@ImGuiSimpleColumns@@QEAAXHM_N@Z 000000014005e4d0 f   imgui.obj
 0001:0005d560       ??0ImGuiSimpleColumns@@QEAA@XZ 000000014005e560 f   imgui.obj
 0001:0005d590       ?appendv@ImGuiTextBuffer@@QEAAXPEBDPEAD@Z 000000014005e590 f   imgui.obj
 0001:0005d630       ?SetFloat@ImGuiStorage@@QEAAXIM@Z 000000014005e630 f   imgui.obj
 0001:0005d690       ?GetFloat@ImGuiStorage@@QEBAMIM@Z 000000014005e690 f   imgui.obj
 0001:0005d730       ?Clear@ImGuiStorage@@QEAAXXZ 000000014005e730 f   imgui.obj
 0001:0005d740       ?ImFileLoadToMemory@@YAPEAXPEBD0PEAHH@Z 000000014005e740 f   imgui.obj
 0001:0005d850       ?ImFileOpen@@YAPEAU_iobuf@@PEBD0@Z 000000014005e850 f   imgui.obj
 0001:0005d930       ?GetColorU32@ImGui@@YAIAEBUImVec4@@@Z 000000014005e930 f   imgui.obj
 0001:0005d970       ?GetColorU32@ImGui@@YAIHM@Z 000000014005e970 f   imgui.obj
 0001:0005d9c0       ?ColorConvertFloat4ToU32@ImGui@@YAIAEBUImVec4@@@Z 000000014005e9c0 f   imgui.obj
 0001:0005da50       ?ImTextCountUtf8BytesFromStr@@YAHPEBG0@Z 000000014005ea50 f   imgui.obj
 0001:0005dab0       ?ImTextStrToUtf8@@YAHPEADHPEBG1@Z 000000014005eab0 f   imgui.obj
 0001:0005dc50       ?ImTextCountCharsFromUtf8@@YAHPEBD0@Z 000000014005ec50 f   imgui.obj
 0001:0005dcb0       ?ImTextStrFromUtf8@@YAHPEAGHPEBD1PEAPEBD@Z 000000014005ecb0 f   imgui.obj
 0001:0005dd50       ?ImTextCharFromUtf8@@YAHPEAIPEBD1@Z 000000014005ed50 f   imgui.obj
 0001:0005df30       ?ImHash@@YAIPEBXHI@Z       000000014005ef30 f   imgui.obj
 0001:0005e090       ?ImFormatStringV@@YAHPEADHPEBD0@Z 000000014005f090 f   imgui.obj
 0001:0005e0e0       ?ImFormatString@@YAHPEADHPEBDZZ 000000014005f0e0 f   imgui.obj
 0001:0005e130       ?ImStrbolW@@YAPEBGPEBG0@Z  000000014005f130 f   imgui.obj
 0001:0005e160       ?ImStrlenW@@YAHPEBG@Z      000000014005f160 f   imgui.obj
 0001:0005e190       ?ImStrdup@@YAPEADPEBD@Z    000000014005f190 f   imgui.obj
 0001:0005e1f0       ?ImStrncpy@@YAXPEADPEBDH@Z 000000014005f1f0 f   imgui.obj
 0001:0005e230       ?AddInputCharacter@ImGuiIO@@QEAAXG@Z 000000014005f230 f   imgui.obj
 0001:0005e270       ??0ImGuiIO@@QEAA@XZ        000000014005f270 f   imgui.obj
 0001:0005e530       ??0ImGuiStyle@@QEAA@XZ     000000014005f530 f   imgui.obj
 0001:0005f7a0       ?RenderText@ImFont@@QEBAXPEAUImDrawList@@MUImVec2@@IAEBUImVec4@@PEBD3M_N@Z 00000001400607a0 f   imgui_draw.obj
 0001:0005fe10       ?CalcWordWrapPositionA@ImFont@@QEBAPEBDMPEBD0M@Z 0000000140060e10 f   imgui_draw.obj
 0001:0005ffb0       ?GrowIndex@ImFont@@QEAAXH@Z 0000000140060fb0 f   imgui_draw.obj
 0001:00060030       ?BuildLookupTable@ImFont@@QEAAXXZ 0000000140061030 f   imgui_draw.obj
 0001:00060220       ?Clear@ImFont@@QEAAXXZ     0000000140061220 f   imgui_draw.obj
 0001:000602a0       ?GetGlyphRangesCyrillic@ImFontAtlas@@QEAAPEBGXZ 00000001400612a0 f   imgui_draw.obj
 0001:000602b0       ?GetGlyphRangesDefault@ImFontAtlas@@QEAAPEBGXZ 00000001400612b0 f   imgui_draw.obj
 0001:000602c0       ?RenderCustomTexData@ImFontAtlas@@QEAAXHPEAX@Z 00000001400612c0 f   imgui_draw.obj
 0001:00060b30       ?Build@ImFontAtlas@@QEAA_NXZ 0000000140061b30 f   imgui_draw.obj
 0001:00061560       ?AddFontFromMemoryCompressedBase85TTF@ImFontAtlas@@QEAAPEAUImFont@@PEBDMPEBUImFontConfig@@PEBG@Z 0000000140062560 f   imgui_draw.obj
 0001:00061620       ?AddFontFromMemoryCompressedTTF@ImFontAtlas@@QEAAPEAUImFont@@PEBXHMPEBUImFontConfig@@PEBG@Z 0000000140062620 f   imgui_draw.obj
 0001:00061770       ?AddFontFromMemoryTTF@ImFontAtlas@@QEAAPEAUImFont@@PEAXHMPEBUImFontConfig@@PEBG@Z 0000000140062770 f   imgui_draw.obj
 0001:000618a0       ?AddFontDefault@ImFontAtlas@@QEAAPEAUImFont@@PEBUImFontConfig@@@Z 00000001400628a0 f   imgui_draw.obj
 0001:00061a50       ?AddFont@ImFontAtlas@@QEAAPEAUImFont@@PEBUImFontConfig@@@Z 0000000140062a50 f   imgui_draw.obj
 0001:00061b20       ?GetTexDataAsRGBA32@ImFontAtlas@@QEAAXPEAPEAEPEAH11@Z 0000000140062b20 f   imgui_draw.obj
 0001:00061bf0       ?GetTexDataAsAlpha8@ImFontAtlas@@QEAAXPEAPEAEPEAH11@Z 0000000140062bf0 f   imgui_draw.obj
 0001:00061c50       ?ClearFonts@ImFontAtlas@@QEAAXXZ 0000000140062c50 f   imgui_draw.obj
 0001:00061cb0       ?ClearTexData@ImFontAtlas@@QEAAXXZ 0000000140062cb0 f   imgui_draw.obj
 0001:00061cf0       ?ClearInputData@ImFontAtlas@@QEAAXXZ 0000000140062cf0 f   imgui_draw.obj
 0001:00061df0       ??0ImFontConfig@@QEAA@XZ   0000000140062df0 f   imgui_draw.obj
 0001:00061ea0       ?PathRect@ImDrawList@@QEAAXAEBUImVec2@@0MH@Z 0000000140062ea0 f   imgui_draw.obj
 0001:00062130       ?PathArcTo@ImDrawList@@QEAAXAEBUImVec2@@MMMH@Z 0000000140063130 f   imgui_draw.obj
 0001:00062250       ?PrimRectUV@ImDrawList@@QEAAXAEBUImVec2@@000I@Z 0000000140063250 f   imgui_draw.obj
 0001:000623a0       ?PrimRect@ImDrawList@@QEAAXAEBUImVec2@@0I@Z 00000001400633a0 f   imgui_draw.obj
 0001:000624e0       ?PrimReserve@ImDrawList@@QEAAXHH@Z 00000001400634e0 f   imgui_draw.obj
 0001:00062560       ?UpdateTextureID@ImDrawList@@QEAAXXZ 0000000140063560 f   imgui_draw.obj
 0001:00062620       ?UpdateClipRect@ImDrawList@@QEAAXXZ 0000000140063620 f   imgui_draw.obj
 0001:00062720       ?AddDrawCmd@ImDrawList@@QEAAXXZ 0000000140063720 f   imgui_draw.obj
 0001:000691f0       ?CalcTextSizeA@ImFont@@QEBA?AUImVec2@@MMMPEBD0PEAPEBD@Z 000000014006a1f0 f   imgui_draw.obj
 0001:00069430       ?FindGlyph@ImFont@@QEBAPEBUGlyph@1@G@Z 000000014006a430 f   imgui_draw.obj
 0001:00069480       ??1ImFont@@QEAA@XZ         000000014006a480 f   imgui_draw.obj
 0001:000694c0       ??0ImFont@@QEAA@XZ         000000014006a4c0 f   imgui_draw.obj
 0001:00069520       ?ClearFreeMemory@ImDrawList@@QEAAXXZ 000000014006a520 f   imgui_draw.obj
 0001:000695f0       ?Clear@ImDrawList@@QEAAXXZ 000000014006a5f0 f   imgui_draw.obj
 0001:00069670       ?ChannelsSetCurrent@ImDrawList@@QEAAXH@Z 000000014006a670 f   imgui_draw.obj
 0001:000696f0       ?ChannelsMerge@ImDrawList@@QEAAXXZ 000000014006a6f0 f   imgui_draw.obj
 0001:00069880       ?ChannelsSplit@ImDrawList@@QEAAXH@Z 000000014006a880 f   imgui_draw.obj
 0001:000699a0       ?PathArcToFast@ImDrawList@@QEAAXAEBUImVec2@@MHH@Z 000000014006a9a0 f   imgui_draw.obj
 0001:00069b80       ?AddConvexPolyFilled@ImDrawList@@QEAAXPEBUImVec2@@HI_N@Z 000000014006ab80 f   imgui_draw.obj
 0001:00069f90       ?AddPolyline@ImDrawList@@QEAAXPEBUImVec2@@HI_NM1@Z 000000014006af90 f   imgui_draw.obj
 0001:0006ab80       ?AddImage@ImDrawList@@QEAAXPEAXAEBUImVec2@@111I@Z 000000014006bb80 f   imgui_draw.obj
 0001:0006ac40       ?AddText@ImDrawList@@QEAAXPEBUImFont@@MAEBUImVec2@@IPEBD2MPEBUImVec4@@@Z 000000014006bc40 f   imgui_draw.obj
 0001:0006ad80       ?AddCircleFilled@ImDrawList@@QEAAXAEBUImVec2@@MIH@Z 000000014006bd80 f   imgui_draw.obj
 0001:0006add0       ?AddTriangleFilled@ImDrawList@@QEAAXAEBUImVec2@@00I@Z 000000014006bdd0 f   imgui_draw.obj
 0001:0006ae30       ?AddRectFilled@ImDrawList@@QEAAXAEBUImVec2@@0IMH@Z 000000014006be30 f   imgui_draw.obj
 0001:0006aec0       ?AddRect@ImDrawList@@QEAAXAEBUImVec2@@0IMHM@Z 000000014006bec0 f   imgui_draw.obj
 0001:0006af80       ?AddLine@ImDrawList@@QEAAXAEBUImVec2@@0IM@Z 000000014006bf80 f   imgui_draw.obj
 0001:0006b040       ?PopTextureID@ImDrawList@@QEAAXXZ 000000014006c040 f   imgui_draw.obj
 0001:0006b070       ?PushTextureID@ImDrawList@@QEAAXAEBQEAX@Z 000000014006c070 f   imgui_draw.obj
 0001:0006b0a0       ?PopClipRect@ImDrawList@@QEAAXXZ 000000014006c0a0 f   imgui_draw.obj
 0001:0006b0d0       ?PushClipRectFullScreen@ImDrawList@@QEAAXXZ 000000014006c0d0 f   imgui_draw.obj
 0001:0006b150       ?PushClipRect@ImDrawList@@QEAAXUImVec2@@0_N@Z 000000014006c150 f   imgui_draw.obj
 0001:0006b260       ?Clear@ImFontAtlas@@QEAAXXZ 000000014006c260 f   imgui_draw.obj
 0001:0006b290       ??1ImFontAtlas@@QEAA@XZ    000000014006c290 f   imgui_draw.obj
 0001:0006b2d0       ??0ImFontAtlas@@QEAA@XZ    000000014006c2d0 f   imgui_draw.obj
 0001:0006b350       ?ImGui_ImplDX9_NewFrame@@YAXXZ 000000014006c350 f   imgui_impl_dx9.obj
 0001:0006b460       ?ImGui_ImplDX9_InvalidateDeviceObjects@@YAXXZ 000000014006c460 f   imgui_impl_dx9.obj
 0001:0006b4f0       ?ImGui_ImplDX9_CreateDeviceObjects@@YA_NXZ 000000014006c4f0 f   imgui_impl_dx9.obj
 0001:0006b680       ?ImGui_ImplDX9_Shutdown@@YAXXZ 000000014006c680 f   imgui_impl_dx9.obj
 0001:0006b6b0       ?ImGui_ImplDX9_Init@@YA_NPEAXPEAUIDirect3DDevice9@@@Z 000000014006c6b0 f   imgui_impl_dx9.obj
 0001:0006b7b0       ?ImGui_ImplDX9_WndProcHandler@@YA_JPEAUHWND__@@I_K_J@Z 000000014006c7b0 f   imgui_impl_dx9.obj
 0001:0006ba60       ?ImGui_ImplDX9_RenderDrawLists@@YAXPEAUImDrawData@@@Z 000000014006ca60 f   imgui_impl_dx9.obj
 0001:0006c1d0       WinMain                    000000014006d1d0 f   main.obj
 0001:0006d7a0       ?notify@notification@@YAXPEBDHPEA_N@Z 000000014006e7a0 f   main.obj
 0001:0006daf0       ?getMils@notification@@YAJXZ 000000014006eaf0 f   main.obj
 0001:0006db30       ?loading_circle@notification@@YA_NPEBDMHAEBI@Z 000000014006eb30 f   main.obj
 0001:0006de00       ?Style@@YAXXZ              000000014006ee00 f   main.obj
 0001:0006e870       ?RegMyWindowClass@@YAGPEAUHINSTANCE__@@PEBD@Z 000000014006f870 f   main.obj
 0001:0006e8e0       ?WndProc@@YA_JPEAUHWND__@@I_K_J@Z 000000014006f8e0 f   main.obj
 0001:0006e9b0       ?strip_string@utilities@@YAXAEAV?$basic_string@DU?$char_traits@D@std@@V?$allocator@D@2@@std@@@Z 000000014006f9b0 f   utilities.obj
 0001:0006ea20       ?create_from_string@md5@@YA?AV?$basic_string@DU?$char_traits@D@std@@V?$allocator@D@2@@std@@V23@@Z 000000014006fa20 f   utilities.obj
 0001:0006ea80       ?create_from_raw@md5@@YA?AV?$basic_string@DU?$char_traits@D@std@@V?$allocator@D@2@@std@@PEBX_K@Z 000000014006fa80 f   utilities.obj
 0001:0006eb50       ?md5bin@md5@@YAXPEBX_KQEAE@Z 000000014006fb50 f   utilities.obj
 0001:0006f900       ?is_elevated@utilities@@YA_NXZ 0000000140070900 f   utilities.obj
 0001:0006fa90       ?get_hwid@utilities@@YA?AV?$basic_string@DU?$char_traits@D@std@@V?$allocator@D@2@@std@@XZ 0000000140070a90 f   utilities.obj
 0001:0006fdc0       ?request_to_server@utilities@@YA?AV?$basic_string@DU?$char_traits@D@std@@V?$allocator@D@2@@std@@V23@0@Z 0000000140070dc0 f   utilities.obj
 0001:00070170       ?get_random_string@utilities@@YA?AV?$basic_string@DU?$char_traits@D@std@@V?$allocator@D@2@@std@@_K@Z 0000000140071170 f   utilities.obj
 0001:000702e0       ?split_string@utilities@@YA?AV?$vector@V?$basic_string@DU?$char_traits@D@std@@V?$allocator@D@2@@std@@V?$allocator@V?$basic_string@DU?$char_traits@D@std@@V?$allocator@D@2@@std@@@2@@std@@AEBV?$basic_string@DU?$char_traits@D@std@@V?$allocator@D@2@@3@0@Z 00000001400712e0 f   utilities.obj
 0001:000703c0       cosf                       00000001400713c0 f   libucrt:cosf.obj
 0001:000708c0       floor                      00000001400718c0 f   libucrt:floor.obj
 0001:00070970       fmodf                      0000000140071970 f   libucrt:fmodf.obj
 0001:00070bc0       sinf                       0000000140071bc0 f   libucrt:sinf.obj
 0001:000712b8       sqrtf                      00000001400722b8 f   libucrt:sqrtf.obj
 0001:00071370       __remainder_piby2d2f_forAsm 0000000140072370 f   libucrt:remainder_piby2f_forasm.obj
 0001:000714c0       __remainder_piby2_fma3     00000001400724c0 f   libucrt:remainder_piby2_forfma3.obj
 0001:000716b0       __remainder_piby2_fma3_bdl 00000001400726b0 f   libucrt:remainder_piby2_forfma3.obj
 0001:00071728       _cosf_special              0000000140072728 f   libucrt:sincos_special.obj
 0001:000717c8       _sinf_special              00000001400727c8 f   libucrt:sincos_special.obj
 0001:000717e0       __remainder_piby2d2f_forC  00000001400727e0 f   libucrt:remainder_piby2f_forc.obj
 0001:00071980       _guard_dispatch_icall_nop  0000000140072980 f   LIBCMT:guard_dispatch.obj
 0002:00000000       __imp_ImmSetCompositionWindow 0000000140075000     imm32:IMM32.dll
 0002:00000008       __imp_ImmGetContext        0000000140075008     imm32:IMM32.dll
 0002:00000010       \177IMM32_NULL_THUNK_DATA  0000000140075010     imm32:IMM32.dll
 0002:00000018       __imp_ExitProcess          0000000140075018     kernel32:KERNEL32.dll
 0002:00000020       __imp_GetTempPathA         0000000140075020     kernel32:KERNEL32.dll
 0002:00000028       __imp_CreateFileW          0000000140075028     kernel32:KERNEL32.dll
 0002:00000030       __imp_QueryPerformanceCounter 0000000140075030     kernel32:KERNEL32.dll
 0002:00000038       __imp_GetLastError         0000000140075038     kernel32:KERNEL32.dll
 0002:00000040       __imp_WideCharToMultiByte  0000000140075040     kernel32:KERNEL32.dll
 0002:00000048       __imp_SetLastError         0000000140075048     kernel32:KERNEL32.dll
 0002:00000050       __imp_InitializeCriticalSectionAndSpinCount 0000000140075050     kernel32:KERNEL32.dll
 0002:00000058       __imp_CreateEventW         0000000140075058     kernel32:KERNEL32.dll
 0002:00000060       __imp_TlsAlloc             0000000140075060     kernel32:KERNEL32.dll
 0002:00000068       __imp_TlsGetValue          0000000140075068     kernel32:KERNEL32.dll
 0002:00000070       __imp_TlsSetValue          0000000140075070     kernel32:KERNEL32.dll
 0002:00000078       __imp_TlsFree              0000000140075078     kernel32:KERNEL32.dll
 0002:00000080       __imp_GetSystemTimeAsFileTime 0000000140075080     kernel32:KERNEL32.dll
 0002:00000088       __imp_GetModuleHandleW     0000000140075088     kernel32:KERNEL32.dll
 0002:00000090       __imp_GetProcAddress       0000000140075090     kernel32:KERNEL32.dll
 0002:00000098       __imp_EnterCriticalSection 0000000140075098     kernel32:KERNEL32.dll
 0002:000000a0       __imp_LeaveCriticalSection 00000001400750a0     kernel32:KERNEL32.dll
 0002:000000a8       __imp_DeleteCriticalSection 00000001400750a8     kernel32:KERNEL32.dll
 0002:000000b0       __imp_EncodePointer        00000001400750b0     kernel32:KERNEL32.dll
 0002:000000b8       __imp_DecodePointer        00000001400750b8     kernel32:KERNEL32.dll
 0002:000000c0       __imp_MultiByteToWideChar  00000001400750c0     kernel32:KERNEL32.dll
 0002:000000c8       __imp_LCMapStringW         00000001400750c8     kernel32:KERNEL32.dll
 0002:000000d0       __imp_GetStringTypeW       00000001400750d0     kernel32:KERNEL32.dll
 0002:000000d8       __imp_GetCPInfo            00000001400750d8     kernel32:KERNEL32.dll
 0002:000000e0       __imp_QueryPerformanceFrequency 00000001400750e0     kernel32:KERNEL32.dll
 0002:000000e8       __imp_GetThreadTimes       00000001400750e8     kernel32:KERNEL32.dll
 0002:000000f0       __imp_InitializeSListHead  00000001400750f0     kernel32:KERNEL32.dll
 0002:000000f8       __imp_CloseHandle          00000001400750f8     kernel32:KERNEL32.dll
 0002:00000100       __imp_SetEvent             0000000140075100     kernel32:KERNEL32.dll
 0002:00000108       __imp_ResetEvent           0000000140075108     kernel32:KERNEL32.dll
 0002:00000110       __imp_WaitForSingleObjectEx 0000000140075110     kernel32:KERNEL32.dll
 0002:00000118       __imp_RtlCaptureContext    0000000140075118     kernel32:KERNEL32.dll
 0002:00000120       __imp_RtlLookupFunctionEntry 0000000140075120     kernel32:KERNEL32.dll
 0002:00000128       __imp_RtlVirtualUnwind     0000000140075128     kernel32:KERNEL32.dll
 0002:00000130       __imp_IsDebuggerPresent    0000000140075130     kernel32:KERNEL32.dll
 0002:00000138       __imp_UnhandledExceptionFilter 0000000140075138     kernel32:KERNEL32.dll
 0002:00000140       __imp_SetUnhandledExceptionFilter 0000000140075140     kernel32:KERNEL32.dll
 0002:00000148       __imp_GetStartupInfoW      0000000140075148     kernel32:KERNEL32.dll
 0002:00000150       __imp_IsProcessorFeaturePresent 0000000140075150     kernel32:KERNEL32.dll
 0002:00000158       __imp_GetCurrentProcessId  0000000140075158     kernel32:KERNEL32.dll
 0002:00000160       __imp_GetCurrentThreadId   0000000140075160     kernel32:KERNEL32.dll
 0002:00000168       __imp_GetCurrentProcess    0000000140075168     kernel32:KERNEL32.dll
 0002:00000170       __imp_TerminateProcess     0000000140075170     kernel32:KERNEL32.dll
 0002:00000178       __imp_RtlUnwindEx          0000000140075178     kernel32:KERNEL32.dll
 0002:00000180       __imp_InterlockedPushEntrySList 0000000140075180     kernel32:KERNEL32.dll
 0002:00000188       __imp_RtlPcToFileHeader    0000000140075188     kernel32:KERNEL32.dll
 0002:00000190       __imp_RaiseException       0000000140075190     kernel32:KERNEL32.dll
 0002:00000198       __imp_FreeLibrary          0000000140075198     kernel32:KERNEL32.dll
 0002:000001a0       __imp_LoadLibraryExW       00000001400751a0     kernel32:KERNEL32.dll
 0002:000001a8       __imp_ReadFile             00000001400751a8     kernel32:KERNEL32.dll
 0002:000001b0       __imp_GetModuleHandleExW   00000001400751b0     kernel32:KERNEL32.dll
 0002:000001b8       __imp_GetModuleFileNameW   00000001400751b8     kernel32:KERNEL32.dll
 0002:000001c0       __imp_GetStdHandle         00000001400751c0     kernel32:KERNEL32.dll
 0002:000001c8       __imp_WriteFile            00000001400751c8     kernel32:KERNEL32.dll
 0002:000001d0       __imp_SetFilePointerEx     00000001400751d0     kernel32:KERNEL32.dll
 0002:000001d8       __imp_GetConsoleMode       00000001400751d8     kernel32:KERNEL32.dll
 0002:000001e0       __imp_ReadConsoleW         00000001400751e0     kernel32:KERNEL32.dll
 0002:000001e8       __imp_GetFileType          00000001400751e8     kernel32:KERNEL32.dll
 0002:000001f0       __imp_HeapAlloc            00000001400751f0     kernel32:KERNEL32.dll
 0002:000001f8       __imp_HeapFree             00000001400751f8     kernel32:KERNEL32.dll
 0002:00000200       __imp_FlushFileBuffers     0000000140075200     kernel32:KERNEL32.dll
 0002:00000208       __imp_GetConsoleCP         0000000140075208     kernel32:KERNEL32.dll
 0002:00000210       __imp_GetFileSizeEx        0000000140075210     kernel32:KERNEL32.dll
 0002:00000218       __imp_HeapReAlloc          0000000140075218     kernel32:KERNEL32.dll
 0002:00000220       __imp_HeapSize             0000000140075220     kernel32:KERNEL32.dll
 0002:00000228       __imp_FindClose            0000000140075228     kernel32:KERNEL32.dll
 0002:00000230       __imp_FindFirstFileExW     0000000140075230     kernel32:KERNEL32.dll
 0002:00000238       __imp_FindNextFileW        0000000140075238     kernel32:KERNEL32.dll
 0002:00000240       __imp_IsValidCodePage      0000000140075240     kernel32:KERNEL32.dll
 0002:00000248       __imp_GetACP               0000000140075248     kernel32:KERNEL32.dll
 0002:00000250       __imp_GetOEMCP             0000000140075250     kernel32:KERNEL32.dll
 0002:00000258       __imp_GetCommandLineA      0000000140075258     kernel32:KERNEL32.dll
 0002:00000260       __imp_GetCommandLineW      0000000140075260     kernel32:KERNEL32.dll
 0002:00000268       __imp_GetEnvironmentStringsW 0000000140075268     kernel32:KERNEL32.dll
 0002:00000270       __imp_FreeEnvironmentStringsW 0000000140075270     kernel32:KERNEL32.dll
 0002:00000278       __imp_GetProcessHeap       0000000140075278     kernel32:KERNEL32.dll
 0002:00000280       __imp_SetStdHandle         0000000140075280     kernel32:KERNEL32.dll
 0002:00000288       __imp_WriteConsoleW        0000000140075288     kernel32:KERNEL32.dll
 0002:00000290       __imp_SetEndOfFile         0000000140075290     kernel32:KERNEL32.dll
 0002:00000298       __imp_GlobalUnlock         0000000140075298     kernel32:KERNEL32.dll
 0002:000002a0       __imp_GlobalLock           00000001400752a0     kernel32:KERNEL32.dll
 0002:000002a8       __imp_GetCurrentThread     00000001400752a8     kernel32:KERNEL32.dll
 0002:000002b0       __imp_GlobalAlloc          00000001400752b0     kernel32:KERNEL32.dll
 0002:000002b8       \177KERNEL32_NULL_THUNK_DATA 00000001400752b8     kernel32:KERNEL32.dll
 0002:000002c0       __imp_SetClipboardData     00000001400752c0     user32:USER32.dll
 0002:000002c8       __imp_GetClipboardData     00000001400752c8     user32:USER32.dll
 0002:000002d0       __imp_EmptyClipboard       00000001400752d0     user32:USER32.dll
 0002:000002d8       __imp_CloseClipboard       00000001400752d8     user32:USER32.dll
 0002:000002e0       __imp_OpenClipboard        00000001400752e0     user32:USER32.dll
 0002:000002e8       __imp_DispatchMessageA     00000001400752e8     user32:USER32.dll
 0002:000002f0       __imp_LoadCursorA          00000001400752f0     user32:USER32.dll
 0002:000002f8       __imp_ShowWindow           00000001400752f8     user32:USER32.dll
 0002:00000300       __imp_RegisterClassA       0000000140075300     user32:USER32.dll
 0002:00000308       __imp_DefWindowProcA       0000000140075308     user32:USER32.dll
 0002:00000310       __imp_CreateWindowExA      0000000140075310     user32:USER32.dll
 0002:00000318       __imp_TranslateMessage     0000000140075318     user32:USER32.dll
 0002:00000320       __imp_PeekMessageA         0000000140075320     user32:USER32.dll
 0002:00000328       __imp_UnregisterClassA     0000000140075328     user32:USER32.dll
 0002:00000330       __imp_PostQuitMessage      0000000140075330     user32:USER32.dll
 0002:00000338       __imp_GetDesktopWindow     0000000140075338     user32:USER32.dll
 0002:00000340       __imp_UpdateWindow         0000000140075340     user32:USER32.dll
 0002:00000348       __imp_GetKeyState          0000000140075348     user32:USER32.dll
 0002:00000350       __imp_GetWindowRect        0000000140075350     user32:USER32.dll
 0002:00000358       __imp_SetWindowPos         0000000140075358     user32:USER32.dll
 0002:00000360       __imp_SetCapture           0000000140075360     user32:USER32.dll
 0002:00000368       __imp_SetCursor            0000000140075368     user32:USER32.dll
 0002:00000370       __imp_GetClientRect        0000000140075370     user32:USER32.dll
 0002:00000378       __imp_ReleaseCapture       0000000140075378     user32:USER32.dll
 0002:00000380       \177USER32_NULL_THUNK_DATA 0000000140075380     user32:USER32.dll
 0002:00000388       __imp_InternetOpenW        0000000140075388     WinINet:WININET.dll
 0002:00000390       \177WININET_NULL_THUNK_DATA 0000000140075390     WinINet:WININET.dll
 0002:00000398       __imp_Direct3DCreate9      0000000140075398     d3d9:d3d9.dll
 0002:000003a0       \177d3d9_NULL_THUNK_DATA   00000001400753a0     d3d9:d3d9.dll
 0002:000003a8       __imp_URLDownloadToFileA   00000001400753a8     urlmon:urlmon.dll
 0002:000003b0       \177urlmon_NULL_THUNK_DATA 00000001400753b0     urlmon:urlmon.dll
 0002:000003b8       __guard_check_icall_fptr   00000001400753b8     LIBCMT:guard_support.obj
 0002:000003c0       __guard_xfg_check_icall_fptr 00000001400753c0     LIBCMT:guard_support.obj
 0002:000003c8       __guard_dispatch_icall_fptr 00000001400753c8     LIBCMT:guard_support.obj
 0002:000003d0       __guard_xfg_dispatch_icall_fptr 00000001400753d0     LIBCMT:guard_support.obj
 0002:000003d8       __guard_xfg_table_dispatch_icall_fptr 00000001400753d8     LIBCMT:guard_support.obj
 0002:000003e0       __xc_a                     00000001400753e0     LIBCMT:initializers.obj
 0002:000004c0       __xc_z                     00000001400754c0     LIBCMT:initializers.obj
 0002:000004c8       __xi_a                     00000001400754c8     LIBCMT:initializers.obj
 0002:000004f0       __acrt_stdio_initializer   00000001400754f0     libucrt:stdio_initializer.obj
 0002:000004f8       __acrt_clock_initializer   00000001400754f8     libucrt:clock_initializer.obj
 0002:00000500       __acrt_tran_fma3_initializer 0000000140075500     libucrt:fma3_initializer.obj
 0002:00000508       __acrt_timeset_initializer 0000000140075508     libucrt:timeset_initializer.obj
 0002:00000510       __acrt_multibyte_initializer 0000000140075510     libucrt:multibyte_initializer.obj
 0002:00000518       __xi_z                     0000000140075518     LIBCMT:initializers.obj
 0002:00000520       __xl_a                     0000000140075520     LIBCMT:tlssup.obj
 0002:00000528       __xl_z                     0000000140075528     LIBCMT:tlssup.obj
 0002:00000530       __xp_a                     0000000140075530     LIBCMT:initializers.obj
 0002:00000540       __acrt_locale_terminator   0000000140075540     libucrt:locale_initializer.obj
 0002:00000548       __dcrt_console_output_terminator 0000000140075548     libucrt:console_output_initializer.obj
 0002:00000550       __acrt_stdio_terminator    0000000140075550     libucrt:stdio_initializer.obj
 0002:00000558       __xp_z                     0000000140075558     LIBCMT:initializers.obj
 0002:00000560       __xt_a                     0000000140075560     LIBCMT:initializers.obj
 0002:00000568       __xt_z                     0000000140075568     LIBCMT:initializers.obj
 0002:00000588       ??_7exception@std@@6B@     0000000140075588     libcpmt:xthrow.obj
 0002:000005a0       ??_7bad_alloc@std@@6B@     00000001400755a0     libcpmt:xthrow.obj
 0002:000005b0       ??_C@_0P@GHFPNOJB@bad?5allocation@ 00000001400755b0     libcpmt:xthrow.obj
 0002:000005c8       ??_7logic_error@std@@6B@   00000001400755c8     libcpmt:xthrow.obj
 0002:000005e0       ??_7length_error@std@@6B@  00000001400755e0     libcpmt:xthrow.obj
 0002:000005f8       ??_7out_of_range@std@@6B@  00000001400755f8     libcpmt:xthrow.obj
 0002:00000610       ??_7bad_array_new_length@std@@6B@ 0000000140075610     libcpmt:xonce.obj
 0002:00000624       ??_C@_01NBENCBCI@?$CK@     0000000140075624     libcpmt:locale0.obj
 0002:00000628       ?_BADOFF@std@@3_JB         0000000140075628     libcpmt:ios.obj
 0002:00000630       ??_C@_0BM@EEBBMCOD@invalid?5random_device?5value@ 0000000140075630     libcpmt:xrngdev.obj
 0002:00000da0       ??_C@_0BN@LKKBCCDB@address?5family?5not?5supported@ 0000000140075da0     libcpmt:syserror.obj
 0002:00000dc0       ??_C@_0P@LDMLAFHI@address?5in?5use@ 0000000140075dc0     libcpmt:syserror.obj
 0002:00000dd0       ??_C@_0BG@DHPCNBJB@address?5not?5available@ 0000000140075dd0     libcpmt:syserror.obj
 0002:00000de8       ??_C@_0BC@DFIBIBIL@already?5connected@ 0000000140075de8     libcpmt:syserror.obj
 0002:00000e00       ??_C@_0BH@CAKOHOMI@argument?5list?5too?5long@ 0000000140075e00     libcpmt:syserror.obj
 0002:00000e18       ??_C@_0BH@CGIMPKIM@argument?5out?5of?5domain@ 0000000140075e18     libcpmt:syserror.obj
 0002:00000e30       ??_C@_0M@KGHGGJGL@bad?5address@ 0000000140075e30     libcpmt:syserror.obj
 0002:00000e40       ??_C@_0BE@MPJPGCEO@bad?5file?5descriptor@ 0000000140075e40     libcpmt:syserror.obj
 0002:00000e58       ??_C@_0M@PMMIEFCP@bad?5message@ 0000000140075e58     libcpmt:syserror.obj
 0002:00000e68       ??_C@_0M@KPHOFDBE@broken?5pipe@ 0000000140075e68     libcpmt:syserror.obj
 0002:00000e78       ??_C@_0BD@MGNDDEGM@connection?5aborted@ 0000000140075e78     libcpmt:syserror.obj
 0002:00000e90       ??_C@_0BP@KAIHPOGN@connection?5already?5in?5progress@ 0000000140075e90     libcpmt:syserror.obj
 0002:00000eb0       ??_C@_0BD@PJLIIJEL@connection?5refused@ 0000000140075eb0     libcpmt:syserror.obj
 0002:00000ec8       ??_C@_0BB@IECNJNOI@connection?5reset@ 0000000140075ec8     libcpmt:syserror.obj
 0002:00000ee0       ??_C@_0BC@PPHBOELF@cross?5device?5link@ 0000000140075ee0     libcpmt:syserror.obj
 0002:00000ef8       ??_C@_0BN@KDMIFEIP@destination?5address?5required@ 0000000140075ef8     libcpmt:syserror.obj
 0002:00000f18       ??_C@_0BI@NGCEHDD@device?5or?5resource?5busy@ 0000000140075f18     libcpmt:syserror.obj
 0002:00000f30       ??_C@_0BE@JIDOCPHM@directory?5not?5empty@ 0000000140075f30     libcpmt:syserror.obj
 0002:00000f48       ??_C@_0BI@BNCLIGPB@executable?5format?5error@ 0000000140075f48     libcpmt:syserror.obj
 0002:00000f60       ??_C@_0M@MIDIAGJP@file?5exists@ 0000000140075f60     libcpmt:syserror.obj
 0002:00000f70       ??_C@_0P@DNAJLBJK@file?5too?5large@ 0000000140075f70     libcpmt:syserror.obj
 0002:00000f80       ??_C@_0BC@EJHOMAAK@filename?5too?5long@ 0000000140075f80     libcpmt:syserror.obj
 0002:00000f98       ??_C@_0BH@KEFGLDAF@function?5not?5supported@ 0000000140075f98     libcpmt:syserror.obj
 0002:00000fb0       ??_C@_0BB@DHFDFGDM@host?5unreachable@ 0000000140075fb0     libcpmt:syserror.obj
 0002:00000fc8       ??_C@_0BD@JPHBMONG@identifier?5removed@ 0000000140075fc8     libcpmt:syserror.obj
 0002:00000fe0       ??_C@_0BG@CDNPAGJK@illegal?5byte?5sequence@ 0000000140075fe0     libcpmt:syserror.obj
 0002:00000ff8       ??_C@_0CD@BNPLBMNA@inappropriate?5io?5control?5operat@ 0000000140075ff8     libcpmt:syserror.obj
 0002:00001020       ??_C@_0M@EGEKIIMP@interrupted@ 0000000140076020     libcpmt:syserror.obj
 0002:00001030       ??_C@_0BB@FCMFBGOM@invalid?5argument@ 0000000140076030     libcpmt:syserror.obj
 0002:00001048       ??_C@_0N@OHAFKDEK@invalid?5seek@ 0000000140076048     libcpmt:syserror.obj
 0002:00001058       ??_C@_08GLNPIFBN@io?5error@ 0000000140076058     libcpmt:syserror.obj
 0002:00001068       ??_C@_0P@FLLDBIDK@is?5a?5directory@ 0000000140076068     libcpmt:syserror.obj
 0002:00001078       ??_C@_0N@IFLPBIOP@message?5size@ 0000000140076078     libcpmt:syserror.obj
 0002:00001088       ??_C@_0N@KIIEAAIO@network?5down@ 0000000140076088     libcpmt:syserror.obj
 0002:00001098       ??_C@_0O@FNPDBHEE@network?5reset@ 0000000140076098     libcpmt:syserror.obj
 0002:000010a8       ??_C@_0BE@IFNCKGE@network?5unreachable@ 00000001400760a8     libcpmt:syserror.obj
 0002:000010c0       ??_C@_0BA@PFFCAOFK@no?5buffer?5space@ 00000001400760c0     libcpmt:syserror.obj
 0002:000010d0       ??_C@_0BB@IEPBLJHK@no?5child?5process@ 00000001400760d0     libcpmt:syserror.obj
 0002:000010e8       ??_C@_07PLECNNKG@no?5link@ 00000001400760e8     libcpmt:syserror.obj
 0002:000010f0       ??_C@_0BC@NJECKMKE@no?5lock?5available@ 00000001400760f0     libcpmt:syserror.obj
 0002:00001108       ??_C@_0BF@PBGGPKKE@no?5message?5available@ 0000000140076108     libcpmt:syserror.obj
 0002:00001120       ??_C@_0L@EDOLMPAK@no?5message@ 0000000140076120     libcpmt:syserror.obj
 0002:00001130       ??_C@_0BD@EAMBFIDF@no?5protocol?5option@ 0000000140076130     libcpmt:syserror.obj
 0002:00001148       ??_C@_0BD@IJDJKDEA@no?5space?5on?5device@ 0000000140076148     libcpmt:syserror.obj
 0002:00001160       ??_C@_0BE@MKFDAFMP@no?5stream?5resources@ 0000000140076160     libcpmt:syserror.obj
 0002:00001178       ??_C@_0BK@IMCPHCBI@no?5such?5device?5or?5address@ 0000000140076178     libcpmt:syserror.obj
 0002:00001198       ??_C@_0P@FDINDDOK@no?5such?5device@ 0000000140076198     libcpmt:syserror.obj
 0002:000011a8       ??_C@_0BK@NDOCBPGE@no?5such?5file?5or?5directory@ 00000001400761a8     libcpmt:syserror.obj
 0002:000011c8       ??_C@_0BA@ENLPPKBN@no?5such?5process@ 00000001400761c8     libcpmt:syserror.obj
 0002:000011d8       ??_C@_0BA@DOCPFFJG@not?5a?5directory@ 00000001400761d8     libcpmt:syserror.obj
 0002:000011e8       ??_C@_0N@POEIPGGF@not?5a?5socket@ 00000001400761e8     libcpmt:syserror.obj
 0002:000011f8       ??_C@_0N@LGAPMMPI@not?5a?5stream@ 00000001400761f8     libcpmt:syserror.obj
 0002:00001208       ??_C@_0O@GLMIBBEG@not?5connected@ 0000000140076208     libcpmt:syserror.obj
 0002:00001218       ??_C@_0BC@ENOOLCNF@not?5enough?5memory@ 0000000140076218     libcpmt:syserror.obj
 0002:00001230       ??_C@_0O@NHEDABJP@not?5supported@ 0000000140076230     libcpmt:syserror.obj
 0002:00001240       ??_C@_0BD@MOLBPMEA@operation?5canceled@ 0000000140076240     libcpmt:syserror.obj
 0002:00001258       ??_C@_0BG@KDKHOPCO@operation?5in?5progress@ 0000000140076258     libcpmt:syserror.obj
 0002:00001270       ??_C@_0BI@OHIEJAAB@operation?5not?5permitted@ 0000000140076270     libcpmt:syserror.obj
 0002:00001288       ??_C@_0BI@LNEGIFLN@operation?5not?5supported@ 0000000140076288     libcpmt:syserror.obj
 0002:000012a0       ??_C@_0BG@OEMDKMEE@operation?5would?5block@ 00000001400762a0     libcpmt:syserror.obj
 0002:000012b8       ??_C@_0L@BLPOFLNJ@owner?5dead@ 00000001400762b8     libcpmt:syserror.obj
 0002:000012c8       ??_C@_0BC@CIJDGCDI@permission?5denied@ 00000001400762c8     libcpmt:syserror.obj
 0002:000012e0       ??_C@_0P@FNPOCJBE@protocol?5error@ 00000001400762e0     libcpmt:syserror.obj
 0002:000012f0       ??_C@_0BH@JPPPLHJB@protocol?5not?5supported@ 00000001400762f0     libcpmt:syserror.obj
 0002:00001308       ??_C@_0BG@EICBIHDP@read?5only?5file?5system@ 0000000140076308     libcpmt:syserror.obj
 0002:00001320       ??_C@_0BO@BJBOMOEJ@resource?5deadlock?5would?5occur@ 0000000140076320     libcpmt:syserror.obj
 0002:00001340       ??_C@_0BP@LKNGHENJ@resource?5unavailable?5try?5again@ 0000000140076340     libcpmt:syserror.obj
 0002:00001360       ??_C@_0BE@GOIPJJHG@result?5out?5of?5range@ 0000000140076360     libcpmt:syserror.obj
 0002:00001378       ??_C@_0BG@MPLKFPAE@state?5not?5recoverable@ 0000000140076378     libcpmt:syserror.obj
 0002:00001390       ??_C@_0P@DIIFGFCG@stream?5timeout@ 0000000140076390     libcpmt:syserror.obj
 0002:000013a0       ??_C@_0P@IPFDMIFL@text?5file?5busy@ 00000001400763a0     libcpmt:syserror.obj
 0002:000013b0       ??_C@_09KJPPMAOI@timed?5out@ 00000001400763b0     libcpmt:syserror.obj
 0002:000013c0       ??_C@_0BO@HACHBEKI@too?5many?5files?5open?5in?5system@ 00000001400763c0     libcpmt:syserror.obj
 0002:000013e0       ??_C@_0BE@GHAFMPAH@too?5many?5files?5open@ 00000001400763e0     libcpmt:syserror.obj
 0002:000013f8       ??_C@_0P@HCOMKFCC@too?5many?5links@ 00000001400763f8     libcpmt:syserror.obj
 0002:00001408       ??_C@_0BO@EFGOJEF@too?5many?5symbolic?5link?5levels@ 0000000140076408     libcpmt:syserror.obj
 0002:00001428       ??_C@_0BA@KGKGOOJA@value?5too?5large@ 0000000140076428     libcpmt:syserror.obj
 0002:00001438       ??_C@_0BE@MIEJDDNH@wrong?5protocol?5type@ 0000000140076438     libcpmt:syserror.obj
 0002:00001450       ??_C@_1BK@MGMFAEKH@?$AAk?$AAe?$AAr?$AAn?$AAe?$AAl?$AA3?$AA2?$AA?4?$AAd?$AAl?$AAl@ 0000000140076450     libcpmt:winapisupp.obj
 0002:00001470       ??_C@_08KNHFBNJ@FlsAlloc@  0000000140076470     libcpmt:winapisupp.obj
 0002:00001480       ??_C@_07PEJMOBNF@FlsFree@  0000000140076480     libcpmt:winapisupp.obj
 0002:00001488       ??_C@_0M@GDNOONDI@FlsGetValue@ 0000000140076488     libcpmt:winapisupp.obj
 0002:00001498       ??_C@_0M@JCPCPOEF@FlsSetValue@ 0000000140076498     libcpmt:winapisupp.obj
 0002:000014a8       ??_C@_0BM@HCFOFFN@InitializeCriticalSectionEx@ 00000001400764a8     libcpmt:winapisupp.obj
 0002:000014c8       ??_C@_0BE@GPLMMCMH@InitOnceExecuteOnce@ 00000001400764c8     libcpmt:winapisupp.obj
 0002:000014e0       ??_C@_0P@DLHPPCNH@CreateEventExW@ 00000001400764e0     libcpmt:winapisupp.obj
 0002:000014f0       ??_C@_0BB@MEFPJLHN@CreateSemaphoreW@ 00000001400764f0     libcpmt:winapisupp.obj
 0002:00001508       ??_C@_0BD@KIEEOEEH@CreateSemaphoreExW@ 0000000140076508     libcpmt:winapisupp.obj
 0002:00001520       ??_C@_0BG@OGFAJCKC@CreateThreadpoolTimer@ 0000000140076520     libcpmt:winapisupp.obj
 0002:00001538       ??_C@_0BD@LPLEMMDI@SetThreadpoolTimer@ 0000000140076538     libcpmt:winapisupp.obj
 0002:00001550       ??_C@_0CA@FMNJENH@WaitForThreadpoolTimerCallbacks@ 0000000140076550     libcpmt:winapisupp.obj
 0002:00001570       ??_C@_0BF@DCFCCNOC@CloseThreadpoolTimer@ 0000000140076570     libcpmt:winapisupp.obj
 0002:00001588       ??_C@_0BF@FLABGKKM@CreateThreadpoolWait@ 0000000140076588     libcpmt:winapisupp.obj
 0002:000015a0       ??_C@_0BC@MGCOHNA@SetThreadpoolWait@ 00000001400765a0     libcpmt:winapisupp.obj
 0002:000015b8       ??_C@_0BE@OCIOMIMP@CloseThreadpoolWait@ 00000001400765b8     libcpmt:winapisupp.obj
 0002:000015d0       ??_C@_0BJ@LKGHFHBO@FlushProcessWriteBuffers@ 00000001400765d0     libcpmt:winapisupp.obj
 0002:000015f0       ??_C@_0BP@KALKKPMO@FreeLibraryWhenCallbackReturns@ 00000001400765f0     libcpmt:winapisupp.obj
 0002:00001610       ??_C@_0BK@DFNBACLA@GetCurrentProcessorNumber@ 0000000140076610     libcpmt:winapisupp.obj
 0002:00001630       ??_C@_0BE@FKKLLFLM@CreateSymbolicLinkW@ 0000000140076630     libcpmt:winapisupp.obj
 0002:00001648       ??_C@_0BE@JOGNEJCI@GetCurrentPackageId@ 0000000140076648     libcpmt:winapisupp.obj
 0002:00001660       ??_C@_0P@CDHHOHKP@GetTickCount64@ 0000000140076660     libcpmt:winapisupp.obj
 0002:00001670       ??_C@_0BN@NEEHBBPO@GetFileInformationByHandleEx@ 0000000140076670     libcpmt:winapisupp.obj
 0002:00001690       ??_C@_0BL@KBBHGKCM@SetFileInformationByHandle@ 0000000140076690     libcpmt:winapisupp.obj
 0002:000016b0       ??_C@_0BP@FPNJPEJC@GetSystemTimePreciseAsFileTime@ 00000001400766b0     libcpmt:winapisupp.obj
 0002:000016d0       ??_C@_0BM@HLJJNPAH@InitializeConditionVariable@ 00000001400766d0     libcpmt:winapisupp.obj
 0002:000016f0       ??_C@_0BG@BFNILBLN@WakeConditionVariable@ 00000001400766f0     libcpmt:winapisupp.obj
 0002:00001708       ??_C@_0BJ@PGPPEPCC@WakeAllConditionVariable@ 0000000140076708     libcpmt:winapisupp.obj
 0002:00001728       ??_C@_0BJ@JEBJOJFJ@SleepConditionVariableCS@ 0000000140076728     libcpmt:winapisupp.obj
 0002:00001748       ??_C@_0BC@MMLHEBPB@InitializeSRWLock@ 0000000140076748     libcpmt:winapisupp.obj
 0002:00001760       ??_C@_0BI@OMNLIJDB@AcquireSRWLockExclusive@ 0000000140076760     libcpmt:winapisupp.obj
 0002:00001778       ??_C@_0BL@OGHFEMNA@TryAcquireSRWLockExclusive@ 0000000140076778     libcpmt:winapisupp.obj
 0002:00001798       ??_C@_0BI@HMIEPCNJ@ReleaseSRWLockExclusive@ 0000000140076798     libcpmt:winapisupp.obj
 0002:000017b0       ??_C@_0BK@LGACAGIC@SleepConditionVariableSRW@ 00000001400767b0     libcpmt:winapisupp.obj
 0002:000017d0       ??_C@_0BF@GGPHFPJA@CreateThreadpoolWork@ 00000001400767d0     libcpmt:winapisupp.obj
 0002:000017e8       ??_C@_0BF@NHDAIMMO@SubmitThreadpoolWork@ 00000001400767e8     libcpmt:winapisupp.obj
 0002:00001800       ??_C@_0BE@NPHIPNPD@CloseThreadpoolWork@ 0000000140076800     libcpmt:winapisupp.obj
 0002:00001818       ??_C@_0BA@IHGNDAEB@CompareStringEx@ 0000000140076818     libcpmt:winapisupp.obj
 0002:00001828       ??_C@_0BA@ONOKGCMP@GetLocaleInfoEx@ 0000000140076828     libcpmt:winapisupp.obj
 0002:00001838       ??_C@_0O@KKBNKAPF@LCMapStringEx@ 0000000140076838     libcpmt:winapisupp.obj
 0002:00001850       ??_7bad_cast@std@@6B@      0000000140076850     libcpmt:locale.obj
 0002:00001860       ??_C@_11LOCGONAA@@         0000000140076860     libcpmt:wlocale.obj
 0002:00001870       __xmm@80000000000000008000000000000000 0000000140076870     libcpmt:wlocale.obj
 0002:000035a0       ??_C@_15EMKDOKLE@?$AAa?$AAr@ 00000001400785a0     libcpmt:winapinls.obj
 0002:000035a8       ??_C@_15KNPADPLH@?$AAb?$AAg@ 00000001400785a8     libcpmt:winapinls.obj
 0002:000035b0       ??_C@_15EDMHLDMO@?$AAc?$AAa@ 00000001400785b0     libcpmt:winapinls.obj
 0002:000035b8       ??_C@_1O@BPEAJADD@?$AAz?$AAh?$AA?9?$AAC?$AAH?$AAS@ 00000001400785b8     libcpmt:winapinls.obj
 0002:000035c8       ??_C@_15LJNHCMNK@?$AAc?$AAs@ 00000001400785c8     libcpmt:winapinls.obj
 0002:000035d0       ??_C@_15FOMCIDHG@?$AAd?$AAa@ 00000001400785d0     libcpmt:winapinls.obj
 0002:000035d8       ??_C@_15NBKABECB@?$AAd?$AAe@ 00000001400785d8     libcpmt:winapinls.obj
 0002:000035e0       ??_C@_15GHPEIIAO@?$AAe?$AAl@ 00000001400785e0     libcpmt:winapinls.obj
 0002:000035e8       ??_C@_15MNPNEAIF@?$AAe?$AAn@ 00000001400785e8     libcpmt:winapinls.obj
 0002:000035f0       ??_C@_15GPIOMPMH@?$AAe?$AAs@ 00000001400785f0     libcpmt:winapinls.obj
 0002:000035f8       ??_C@_15NGLOAKJC@?$AAf?$AAi@ 00000001400785f8     libcpmt:winapinls.obj
 0002:00003600       ??_C@_15FBKGNKAM@?$AAf?$AAr@ 0000000140078600     libcpmt:winapinls.obj
 0002:00003608       ??_C@_15KGGCNEFK@?$AAh?$AAe@ 0000000140078608     libcpmt:winapinls.obj
 0002:00003610       ??_C@_15PGHLIDMF@?$AAh?$AAu@ 0000000140078610     libcpmt:winapinls.obj
 0002:00003618       ??_C@_15BIEMAPLM@?$AAi?$AAs@ 0000000140078618     libcpmt:winapinls.obj
 0002:00003620       ??_C@_15IFJLDHAF@?$AAi?$AAt@ 0000000140078620     libcpmt:winapinls.obj
 0002:00003628       ??_C@_15GEMIOCAG@?$AAj?$AAa@ 0000000140078628     libcpmt:winapinls.obj
 0002:00003630       ??_C@_15EPELEGJA@?$AAk?$AAo@ 0000000140078630     libcpmt:winapinls.obj
 0002:00003638       ??_C@_15NDDHIMN@?$AAn?$AAl@ 0000000140078638     libcpmt:winapinls.obj
 0002:00003640       ??_C@_15BPIGNHCD@?$AAn?$AAo@ 0000000140078640     libcpmt:winapinls.obj
 0002:00003648       ??_C@_15DEOPBLCG@?$AAp?$AAl@ 0000000140078648     libcpmt:winapinls.obj
 0002:00003650       ??_C@_15KBECGEFG@?$AAp?$AAt@ 0000000140078650     libcpmt:winapinls.obj
 0002:00003658       ??_C@_15GLJCBFMD@?$AAr?$AAo@ 0000000140078658     libcpmt:winapinls.obj
 0002:00003660       ??_C@_15FEDGKCDI@?$AAr?$AAu@ 0000000140078660     libcpmt:winapinls.obj
 0002:00003668       ??_C@_15GLKMLLHM@?$AAh?$AAr@ 0000000140078668     libcpmt:winapinls.obj
 0002:00003670       ??_C@_15CPKMFBDB@?$AAs?$AAk@ 0000000140078670     libcpmt:winapinls.obj
 0002:00003678       ??_C@_15BAAIOGMK@?$AAs?$AAq@ 0000000140078678     libcpmt:winapinls.obj
 0002:00003680       ??_C@_15INNPNOHD@?$AAs?$AAv@ 0000000140078680     libcpmt:winapinls.obj
 0002:00003688       ??_C@_15CABMMOGH@?$AAt?$AAh@ 0000000140078688     libcpmt:winapinls.obj
 0002:00003690       ??_C@_15BPLIHJJM@?$AAt?$AAr@ 0000000140078690     libcpmt:winapinls.obj
 0002:00003698       ??_C@_15NEOEKKDJ@?$AAu?$AAr@ 0000000140078698     libcpmt:winapinls.obj
 0002:000036a0       ??_C@_15NFICGAJK@?$AAi?$AAd@ 00000001400786a0     libcpmt:winapinls.obj
 0002:000036a8       ??_C@_15PJPFLCCM@?$AAu?$AAk@ 00000001400786a8     libcpmt:winapinls.obj
 0002:000036b0       ??_C@_15HPJPHDM@?$AAb?$AAe@ 00000001400786b0     libcpmt:winapinls.obj
 0002:000036b8       ??_C@_15LCHLGJII@?$AAs?$AAl@ 00000001400786b8     libcpmt:winapinls.obj
 0002:000036c0       ??_C@_15PCFJPHHO@?$AAe?$AAt@ 00000001400786c0     libcpmt:winapinls.obj
 0002:000036c8       ??_C@_15HPFPGODN@?$AAl?$AAv@ 00000001400786c8     libcpmt:winapinls.obj
 0002:000036d0       ??_C@_15NFFGKGLG@?$AAl?$AAt@ 00000001400786d0     libcpmt:winapinls.obj
 0002:000036d8       ??_C@_15BDAKCCHN@?$AAf?$AAa@ 00000001400786d8     libcpmt:winapinls.obj
 0002:000036e0       ??_C@_15NFGIAIAJ@?$AAv?$AAi@ 00000001400786e0     libcpmt:winapinls.obj
 0002:000036e8       ??_C@_15LMKNDMHN@?$AAh?$AAy@ 00000001400786e8     libcpmt:winapinls.obj
 0002:000036f0       ??_C@_15IJBHMCFL@?$AAa?$AAz@ 00000001400786f0     libcpmt:winapinls.obj
 0002:000036f8       ??_C@_15EKOFJABL@?$AAe?$AAu@ 00000001400786f8     libcpmt:winapinls.obj
 0002:00003700       ??_C@_15BGHADCNK@?$AAm?$AAk@ 0000000140078700     libcpmt:winapinls.obj
 0002:00003708       ??_C@_15JDNICKHM@?$AAa?$AAf@ 0000000140078708     libcpmt:winapinls.obj
 0002:00003710       ??_C@_15KPJEDBKD@?$AAk?$AAa@ 0000000140078710     libcpmt:winapinls.obj
 0002:00003718       ??_C@_15PDNFFFEO@?$AAf?$AAo@ 0000000140078718     libcpmt:winapinls.obj
 0002:00003720       ??_C@_15OMLEGLOC@?$AAh?$AAi@ 0000000140078720     libcpmt:winapinls.obj
 0002:00003728       ??_C@_15IDNNENKK@?$AAm?$AAs@ 0000000140078728     libcpmt:winapinls.obj
 0002:00003730       ??_C@_15MACJNBMH@?$AAk?$AAk@ 0000000140078730     libcpmt:winapinls.obj
 0002:00003738       ??_C@_15DKDJEOND@?$AAk?$AAy@ 0000000140078738     libcpmt:winapinls.obj
 0002:00003740       ??_C@_15DFGDLJBG@?$AAs?$AAw@ 0000000140078740     libcpmt:winapinls.obj
 0002:00003748       ??_C@_15BBFAICNG@?$AAu?$AAz@ 0000000140078748     libcpmt:winapinls.obj
 0002:00003750       ??_C@_15DKNDCGEA@?$AAt?$AAt@ 0000000140078750     libcpmt:winapinls.obj
 0002:00003758       ??_C@_15MGIFMDPL@?$AAp?$AAa@ 0000000140078758     libcpmt:winapinls.obj
 0002:00003760       ??_C@_15HCNDBBA@?$AAg?$AAu@ 0000000140078760     libcpmt:winapinls.obj
 0002:00003768       ??_C@_15FNBEIBON@?$AAt?$AAa@ 0000000140078768     libcpmt:winapinls.obj
 0002:00003770       ??_C@_15NCHGBGLK@?$AAt?$AAe@ 0000000140078770     libcpmt:winapinls.obj
 0002:00003778       ??_C@_15PHPHCBPF@?$AAk?$AAn@ 0000000140078778     libcpmt:winapinls.obj
 0002:00003780       ??_C@_15DLGBCKMP@?$AAm?$AAr@ 0000000140078780     libcpmt:winapinls.obj
 0002:00003788       ??_C@_15EABBLBFF@?$AAs?$AAa@ 0000000140078788     libcpmt:winapinls.obj
 0002:00003790       ??_C@_15CBKOMCOI@?$AAm?$AAn@ 0000000140078790     libcpmt:winapinls.obj
 0002:00003798       ??_C@_15CKDMCJAF@?$AAg?$AAl@ 0000000140078798     libcpmt:winapinls.obj
 0002:000037a0       ??_C@_17CNJFBPG@?$AAk?$AAo?$AAk@ 00000001400787a0     libcpmt:winapinls.obj
 0002:000037a8       ??_C@_17FFBJICPL@?$AAs?$AAy?$AAr@ 00000001400787a8     libcpmt:winapinls.obj
 0002:000037b0       ??_C@_17KPNDCPAF@?$AAd?$AAi?$AAv@ 00000001400787b0     libcpmt:winapinls.obj
 0002:000037b8       ??_C@_1M@OKAHONE@?$AAa?$AAr?$AA?9?$AAS?$AAA@ 00000001400787b8     libcpmt:winapinls.obj
 0002:000037c8       ??_C@_1M@FFFIGIGK@?$AAb?$AAg?$AA?9?$AAB?$AAG@ 00000001400787c8     libcpmt:winapinls.obj
 0002:000037d8       ??_C@_1M@BJNKEDC@?$AAc?$AAa?$AA?9?$AAE?$AAS@ 00000001400787d8     libcpmt:winapinls.obj
 0002:000037e8       ??_C@_1M@CLNBBOPM@?$AAz?$AAh?$AA?9?$AAT?$AAW@ 00000001400787e8     libcpmt:winapinls.obj
 0002:000037f8       ??_C@_1M@IJJHFJHA@?$AAc?$AAs?$AA?9?$AAC?$AAZ@ 00000001400787f8     libcpmt:winapinls.obj
 0002:00003808       ??_C@_1M@CLPEOBGI@?$AAd?$AAa?$AA?9?$AAD?$AAK@ 0000000140078808     libcpmt:winapinls.obj
 0002:00003818       ??_C@_1M@MCMADGCB@?$AAd?$AAe?$AA?9?$AAD?$AAE@ 0000000140078818     libcpmt:winapinls.obj
 0002:00003828       ??_C@_1M@OOCKEMAM@?$AAe?$AAl?$AA?9?$AAG?$AAR@ 0000000140078828     libcpmt:winapinls.obj
 0002:00003838       ??_C@_1M@BMHNFIME@?$AAe?$AAn?$AA?9?$AAU?$AAS@ 0000000140078838     libcpmt:winapinls.obj
 0002:00003848       ??_C@_1M@DDNJFGID@?$AAf?$AAi?$AA?9?$AAF?$AAI@ 0000000140078848     libcpmt:winapinls.obj
 0002:00003858       ??_C@_1M@GLIPPMAC@?$AAf?$AAr?$AA?9?$AAF?$AAR@ 0000000140078858     libcpmt:winapinls.obj
 0002:00003868       ??_C@_1M@GFMCHPE@?$AAh?$AAe?$AA?9?$AAI?$AAL@ 0000000140078868     libcpmt:winapinls.obj
 0002:00003878       ??_C@_1M@MHLPGNKM@?$AAh?$AAu?$AA?9?$AAH?$AAU@ 0000000140078878     libcpmt:winapinls.obj
 0002:00003888       ??_C@_1M@LPDDNNPN@?$AAi?$AAs?$AA?9?$AAI?$AAS@ 0000000140078888     libcpmt:winapinls.obj
 0002:00003898       ??_C@_1M@MADIPODN@?$AAi?$AAt?$AA?9?$AAI?$AAT@ 0000000140078898     libcpmt:winapinls.obj
 0002:000038a8       ??_C@_1M@HPNHIDJI@?$AAj?$AAa?$AA?9?$AAJ?$AAP@ 00000001400788a8     libcpmt:winapinls.obj
 0002:000038b8       ??_C@_1M@JLOOOEGK@?$AAk?$AAo?$AA?9?$AAK?$AAR@ 00000001400788b8     libcpmt:winapinls.obj
 0002:000038c8       ??_C@_1M@IHBJJGG@?$AAn?$AAl?$AA?9?$AAN?$AAL@ 00000001400788c8     libcpmt:winapinls.obj
 0002:000038d8       ??_C@_1M@EANAGDL@?$AAn?$AAb?$AA?9?$AAN?$AAO@ 00000001400788d8     libcpmt:winapinls.obj
 0002:000038e8       ??_C@_1M@NEIEMEGP@?$AAp?$AAl?$AA?9?$AAP?$AAL@ 00000001400788e8     libcpmt:winapinls.obj
 0002:000038f8       ??_C@_1M@BOCFIGEP@?$AAp?$AAt?$AA?9?$AAB?$AAR@ 00000001400788f8     libcpmt:winapinls.obj
 0002:00003908       ??_C@_1M@IMPFOPBG@?$AAr?$AAo?$AA?9?$AAR?$AAO@ 0000000140078908     libcpmt:winapinls.obj
 0002:00003918       ??_C@_1M@IDNNEJMM@?$AAr?$AAu?$AA?9?$AAR?$AAU@ 0000000140078918     libcpmt:winapinls.obj
 0002:00003928       ??_C@_1M@LILEEOGM@?$AAh?$AAr?$AA?9?$AAH?$AAR@ 0000000140078928     libcpmt:winapinls.obj
 0002:00003938       ??_C@_1M@FKIFEHPB@?$AAs?$AAk?$AA?9?$AAS?$AAK@ 0000000140078938     libcpmt:winapinls.obj
 0002:00003948       ??_C@_1M@LJMAMNPJ@?$AAs?$AAq?$AA?9?$AAA?$AAL@ 0000000140078948     libcpmt:winapinls.obj
 0002:00003958       ??_C@_1M@GIAKDKJK@?$AAs?$AAv?$AA?9?$AAS?$AAE@ 0000000140078958     libcpmt:winapinls.obj
 0002:00003968       ??_C@_1M@MKJKIKCL@?$AAt?$AAh?$AA?9?$AAT?$AAH@ 0000000140078968     libcpmt:winapinls.obj
 0002:00003978       ??_C@_1M@MFLCCMPB@?$AAt?$AAr?$AA?9?$AAT?$AAR@ 0000000140078978     libcpmt:winapinls.obj
 0002:00003988       ??_C@_1M@OIJHDKJN@?$AAu?$AAr?$AA?9?$AAP?$AAK@ 0000000140078988     libcpmt:winapinls.obj
 0002:00003998       ??_C@_1M@LHIPCIEK@?$AAi?$AAd?$AA?9?$AAI?$AAD@ 0000000140078998     libcpmt:winapinls.obj
 0002:000039a8       ??_C@_1M@MFMOBGI@?$AAu?$AAk?$AA?9?$AAU?$AAA@ 00000001400789a8     libcpmt:winapinls.obj
 0002:000039b8       ??_C@_1M@OBGLJIPL@?$AAb?$AAe?$AA?9?$AAB?$AAY@ 00000001400789b8     libcpmt:winapinls.obj
 0002:000039c8       ??_C@_1M@BCFAJEAD@?$AAs?$AAl?$AA?9?$AAS?$AAI@ 00000001400789c8     libcpmt:winapinls.obj
 0002:000039d8       ??_C@_1M@FKFFEDDN@?$AAe?$AAt?$AA?9?$AAE?$AAE@ 00000001400789d8     libcpmt:winapinls.obj
 0002:000039e8       ??_C@_1M@KGKKAACI@?$AAl?$AAv?$AA?9?$AAL?$AAV@ 00000001400789e8     libcpmt:winapinls.obj
 0002:000039f8       ??_C@_1M@IFGBIJO@?$AAl?$AAt?$AA?9?$AAL?$AAT@ 00000001400789f8     libcpmt:winapinls.obj
 0002:00003a08       ??_C@_1M@FGEAHEDM@?$AAf?$AAa?$AA?9?$AAI?$AAR@ 0000000140078a08     libcpmt:winapinls.obj
 0002:00003a18       ??_C@_1M@KBMAIBFN@?$AAv?$AAi?$AA?9?$AAV?$AAN@ 0000000140078a18     libcpmt:winapinls.obj
 0002:00003a28       ??_C@_1M@GPCBKDJK@?$AAh?$AAy?$AA?9?$AAA?$AAM@ 0000000140078a28     libcpmt:winapinls.obj
 0002:00003a38       ??_C@_1BG@BECMDDJB@?$AAa?$AAz?$AA?9?$AAA?$AAZ?$AA?9?$AAL?$AAa?$AAt?$AAn@ 0000000140078a38     libcpmt:winapinls.obj
 0002:00003a50       ??_C@_1M@MAOFCAEA@?$AAe?$AAu?$AA?9?$AAE?$AAS@ 0000000140078a50     libcpmt:winapinls.obj
 0002:00003a60       ??_C@_1M@IGHABKPI@?$AAm?$AAk?$AA?9?$AAM?$AAK@ 0000000140078a60     libcpmt:winapinls.obj
 0002:00003a70       ??_C@_1M@IAIGNEJG@?$AAt?$AAn?$AA?9?$AAZ?$AAA@ 0000000140078a70     libcpmt:winapinls.obj
 0002:00003a80       ??_C@_1M@IIJCOJFA@?$AAx?$AAh?$AA?9?$AAZ?$AAA@ 0000000140078a80     libcpmt:winapinls.obj
 0002:00003a90       ??_C@_1M@LGPJHNJH@?$AAz?$AAu?$AA?9?$AAZ?$AAA@ 0000000140078a90     libcpmt:winapinls.obj
 0002:00003aa0       ??_C@_1M@HOKAOIO@?$AAa?$AAf?$AA?9?$AAZ?$AAA@ 0000000140078aa0     libcpmt:winapinls.obj
 0002:00003ab0       ??_C@_1M@DPCLHLIE@?$AAk?$AAa?$AA?9?$AAG?$AAE@ 0000000140078ab0     libcpmt:winapinls.obj
 0002:00003ac0       ??_C@_1M@BLKMHJBI@?$AAf?$AAo?$AA?9?$AAF?$AAO@ 0000000140078ac0     libcpmt:winapinls.obj
 0002:00003ad0       ??_C@_1M@LGGJAPPB@?$AAh?$AAi?$AA?9?$AAI?$AAN@ 0000000140078ad0     libcpmt:winapinls.obj
 0002:00003ae0       ??_C@_1M@FIKPIHFE@?$AAm?$AAt?$AA?9?$AAM?$AAT@ 0000000140078ae0     libcpmt:winapinls.obj
 0002:00003af0       ??_C@_1M@HEGGPBFA@?$AAs?$AAe?$AA?9?$AAN?$AAO@ 0000000140078af0     libcpmt:winapinls.obj
 0002:00003b00       ??_C@_1M@EIBJEEPA@?$AAm?$AAs?$AA?9?$AAM?$AAY@ 0000000140078b00     libcpmt:winapinls.obj
 0002:00003b10       ??_C@_1M@FHLBGMPP@?$AAk?$AAk?$AA?9?$AAK?$AAZ@ 0000000140078b10     libcpmt:winapinls.obj
 0002:00003b20       ??_C@_1M@NGJJLCGI@?$AAk?$AAy?$AA?9?$AAK?$AAG@ 0000000140078b20     libcpmt:winapinls.obj
 0002:00003b30       ??_C@_1M@GIENNBFC@?$AAs?$AAw?$AA?9?$AAK?$AAE@ 0000000140078b30     libcpmt:winapinls.obj
 0002:00003b40       ??_C@_1BG@NDGMJIMJ@?$AAu?$AAz?$AA?9?$AAU?$AAZ?$AA?9?$AAL?$AAa?$AAt?$AAn@ 0000000140078b40     libcpmt:winapinls.obj
 0002:00003b58       ??_C@_1M@IDCCIHBC@?$AAt?$AAt?$AA?9?$AAR?$AAU@ 0000000140078b58     libcpmt:winapinls.obj
 0002:00003b68       ??_C@_1M@LOICPMOJ@?$AAb?$AAn?$AA?9?$AAI?$AAN@ 0000000140078b68     libcpmt:winapinls.obj
 0002:00003b78       ??_C@_1M@KPKKNEAH@?$AAp?$AAa?$AA?9?$AAI?$AAN@ 0000000140078b78     libcpmt:winapinls.obj
 0002:00003b88       ??_C@_1M@PJGPPBOG@?$AAg?$AAu?$AA?9?$AAI?$AAN@ 0000000140078b88     libcpmt:winapinls.obj
 0002:00003b98       ??_C@_1M@KMKMOPHI@?$AAt?$AAa?$AA?9?$AAI?$AAN@ 0000000140078b98     libcpmt:winapinls.obj
 0002:00003ba8       ??_C@_1M@KFEHEPAC@?$AAt?$AAe?$AA?9?$AAI?$AAN@ 0000000140078ba8     libcpmt:winapinls.obj
 0002:00003bb8       ??_C@_1M@CDCLMGHI@?$AAk?$AAn?$AA?9?$AAI?$AAN@ 0000000140078bb8     libcpmt:winapinls.obj
 0002:00003bc8       ??_C@_1M@MIODLDKF@?$AAm?$AAl?$AA?9?$AAI?$AAN@ 0000000140078bc8     libcpmt:winapinls.obj
 0002:00003bd8       ??_C@_1M@PBIEACPO@?$AAm?$AAr?$AA?9?$AAI?$AAN@ 0000000140078bd8     libcpmt:winapinls.obj
 0002:00003be8       ??_C@_1M@NIDEAGPH@?$AAs?$AAa?$AA?9?$AAI?$AAN@ 0000000140078be8     libcpmt:winapinls.obj
 0002:00003bf8       ??_C@_1M@FHIHCBIO@?$AAm?$AAn?$AA?9?$AAM?$AAN@ 0000000140078bf8     libcpmt:winapinls.obj
 0002:00003c08       ??_C@_1M@JAIJPENP@?$AAc?$AAy?$AA?9?$AAG?$AAB@ 0000000140078c08     libcpmt:winapinls.obj
 0002:00003c18       ??_C@_1M@PHGFBEPN@?$AAg?$AAl?$AA?9?$AAE?$AAS@ 0000000140078c18     libcpmt:winapinls.obj
 0002:00003c28       ??_C@_1O@KPIPDNCP@?$AAk?$AAo?$AAk?$AA?9?$AAI?$AAN@ 0000000140078c28     libcpmt:winapinls.obj
 0002:00003c38       ??_C@_1O@KNHJLDJA@?$AAs?$AAy?$AAr?$AA?9?$AAS?$AAY@ 0000000140078c38     libcpmt:winapinls.obj
 0002:00003c48       ??_C@_1O@MKEKBLAH@?$AAd?$AAi?$AAv?$AA?9?$AAM?$AAV@ 0000000140078c48     libcpmt:winapinls.obj
 0002:00003c58       ??_C@_1O@OHDCKDDF@?$AAq?$AAu?$AAz?$AA?9?$AAB?$AAO@ 0000000140078c58     libcpmt:winapinls.obj
 0002:00003c68       ??_C@_1M@LEPJNLFD@?$AAn?$AAs?$AA?9?$AAZ?$AAA@ 0000000140078c68     libcpmt:winapinls.obj
 0002:00003c78       ??_C@_1M@OMLEIIJB@?$AAm?$AAi?$AA?9?$AAN?$AAZ@ 0000000140078c78     libcpmt:winapinls.obj
 0002:00003c88       ??_C@_1M@PMPEAILG@?$AAa?$AAr?$AA?9?$AAI?$AAQ@ 0000000140078c88     libcpmt:winapinls.obj
 0002:00003c98       ??_C@_1M@BIBDDEMK@?$AAz?$AAh?$AA?9?$AAC?$AAN@ 0000000140078c98     libcpmt:winapinls.obj
 0002:00003ca8       ??_C@_1M@CNKPNOEE@?$AAd?$AAe?$AA?9?$AAC?$AAH@ 0000000140078ca8     libcpmt:winapinls.obj
 0002:00003cb8       ??_C@_1M@LKMGMLKO@?$AAe?$AAn?$AA?9?$AAG?$AAB@ 0000000140078cb8     libcpmt:winapinls.obj
 0002:00003cc8       ??_C@_1M@PGKJFFGL@?$AAe?$AAs?$AA?9?$AAM?$AAX@ 0000000140078cc8     libcpmt:winapinls.obj
 0002:00003cd8       ??_C@_1M@DNNANBDC@?$AAf?$AAr?$AA?9?$AAB?$AAE@ 0000000140078cd8     libcpmt:winapinls.obj
 0002:00003ce8       ??_C@_1M@HLGMDFHM@?$AAi?$AAt?$AA?9?$AAC?$AAH@ 0000000140078ce8     libcpmt:winapinls.obj
 0002:00003cf8       ??_C@_1M@CLLBGJH@?$AAn?$AAl?$AA?9?$AAB?$AAE@ 0000000140078cf8     libcpmt:winapinls.obj
 0002:00003d08       ??_C@_1M@BODBOGLF@?$AAn?$AAn?$AA?9?$AAN?$AAO@ 0000000140078d08     libcpmt:winapinls.obj
 0002:00003d18       ??_C@_1M@HFFAHKAD@?$AAp?$AAt?$AA?9?$AAP?$AAT@ 0000000140078d18     libcpmt:winapinls.obj
 0002:00003d28       ??_C@_1BG@LNOAKHIE@?$AAs?$AAr?$AA?9?$AAS?$AAP?$AA?9?$AAL?$AAa?$AAt?$AAn@ 0000000140078d28     libcpmt:winapinls.obj
 0002:00003d40       ??_C@_1M@HBMHBGAK@?$AAs?$AAv?$AA?9?$AAF?$AAI@ 0000000140078d40     libcpmt:winapinls.obj
 0002:00003d50       ??_C@_1BG@DGCJGJBE@?$AAa?$AAz?$AA?9?$AAA?$AAZ?$AA?9?$AAC?$AAy?$AAr?$AAl@ 0000000140078d50     libcpmt:winapinls.obj
 0002:00003d68       ??_C@_1M@KEJDAAHB@?$AAs?$AAe?$AA?9?$AAS?$AAE@ 0000000140078d68     libcpmt:winapinls.obj
 0002:00003d78       ??_C@_1M@HEIBJJAD@?$AAm?$AAs?$AA?9?$AAB?$AAN@ 0000000140078d78     libcpmt:winapinls.obj
 0002:00003d88       ??_C@_1BG@PBGJMCEM@?$AAu?$AAz?$AA?9?$AAU?$AAZ?$AA?9?$AAC?$AAy?$AAr?$AAl@ 0000000140078d88     libcpmt:winapinls.obj
 0002:00003da0       ??_C@_1O@LAOBCMDF@?$AAq?$AAu?$AAz?$AA?9?$AAE?$AAC@ 0000000140078da0     libcpmt:winapinls.obj
 0002:00003db0       ??_C@_1M@POEEMAIO@?$AAa?$AAr?$AA?9?$AAE?$AAG@ 0000000140078db0     libcpmt:winapinls.obj
 0002:00003dc0       ??_C@_1M@EFAKDEDL@?$AAz?$AAh?$AA?9?$AAH?$AAK@ 0000000140078dc0     libcpmt:winapinls.obj
 0002:00003dd0       ??_C@_1M@HKKIJHGI@?$AAd?$AAe?$AA?9?$AAA?$AAT@ 0000000140078dd0     libcpmt:winapinls.obj
 0002:00003de0       ??_C@_1M@KBFBEHJF@?$AAe?$AAn?$AA?9?$AAA?$AAU@ 0000000140078de0     libcpmt:winapinls.obj
 0002:00003df0       ??_C@_1M@MNPLFAAH@?$AAe?$AAs?$AA?9?$AAE?$AAS@ 0000000140078df0     libcpmt:winapinls.obj
 0002:00003e00       ??_C@_1M@HJOOJFMA@?$AAf?$AAr?$AA?9?$AAC?$AAA@ 0000000140078e00     libcpmt:winapinls.obj
 0002:00003e10       ??_C@_1BG@JPOFPNAB@?$AAs?$AAr?$AA?9?$AAS?$AAP?$AA?9?$AAC?$AAy?$AAr?$AAl@ 0000000140078e10     libcpmt:winapinls.obj
 0002:00003e28       ??_C@_1M@LNFOCMOB@?$AAs?$AAe?$AA?9?$AAF?$AAI@ 0000000140078e28     libcpmt:winapinls.obj
 0002:00003e38       ??_C@_1O@MGJBOAMB@?$AAq?$AAu?$AAz?$AA?9?$AAP?$AAE@ 0000000140078e38     libcpmt:winapinls.obj
 0002:00003e48       ??_C@_1M@GJINLBOK@?$AAa?$AAr?$AA?9?$AAL?$AAY@ 0000000140078e48     libcpmt:winapinls.obj
 0002:00003e58       ??_C@_1M@GGMNHJNL@?$AAz?$AAh?$AA?9?$AAS?$AAG@ 0000000140078e58     libcpmt:winapinls.obj
 0002:00003e68       ??_C@_1M@HOIKODND@?$AAd?$AAe?$AA?9?$AAL?$AAU@ 0000000140078e68     libcpmt:winapinls.obj
 0002:00003e78       ??_C@_1M@DDOCCGFG@?$AAe?$AAn?$AA?9?$AAC?$AAA@ 0000000140078e78     libcpmt:winapinls.obj
 0002:00003e88       ??_C@_1M@BNOEMJLF@?$AAe?$AAs?$AA?9?$AAG?$AAT@ 0000000140078e88     libcpmt:winapinls.obj
 0002:00003e98       ??_C@_1M@EOGNKEK@?$AAf?$AAr?$AA?9?$AAC?$AAH@ 0000000140078e98     libcpmt:winapinls.obj
 0002:00003ea8       ??_C@_1M@FLIDJFHL@?$AAh?$AAr?$AA?9?$AAB?$AAA@ 0000000140078ea8     libcpmt:winapinls.obj
 0002:00003eb8       ??_C@_1O@FMCELNAJ@?$AAs?$AAm?$AAj?$AA?9?$AAN?$AAO@ 0000000140078eb8     libcpmt:winapinls.obj
 0002:00003ec8       ??_C@_1M@JHGLJMGJ@?$AAa?$AAr?$AA?9?$AAD?$AAZ@ 0000000140078ec8     libcpmt:winapinls.obj
 0002:00003ed8       ??_C@_1M@JKKFDCNP@?$AAz?$AAh?$AA?9?$AAM?$AAO@ 0000000140078ed8     libcpmt:winapinls.obj
 0002:00003ee8       ??_C@_1M@GEEFALPE@?$AAd?$AAe?$AA?9?$AAL?$AAI@ 0000000140078ee8     libcpmt:winapinls.obj
 0002:00003ef8       ??_C@_1M@IGEOFBG@?$AAe?$AAn?$AA?9?$AAN?$AAZ@ 0000000140078ef8     libcpmt:winapinls.obj
 0002:00003f08       ??_C@_1M@KDBONEHP@?$AAe?$AAs?$AA?9?$AAC?$AAR@ 0000000140078f08     libcpmt:winapinls.obj
 0002:00003f18       ??_C@_1M@FHMDOHNN@?$AAf?$AAr?$AA?9?$AAL?$AAU@ 0000000140078f18     libcpmt:winapinls.obj
 0002:00003f28       ??_C@_1BG@NFKKMAFG@?$AAb?$AAs?$AA?9?$AAB?$AAA?$AA?9?$AAL?$AAa?$AAt?$AAn@ 0000000140078f28     libcpmt:winapinls.obj
 0002:00003f40       ??_C@_1O@IMNBEMCI@?$AAs?$AAm?$AAj?$AA?9?$AAS?$AAE@ 0000000140078f40     libcpmt:winapinls.obj
 0002:00003f50       ??_C@_1M@DHHMBNDP@?$AAa?$AAr?$AA?9?$AAM?$AAA@ 0000000140078f50     libcpmt:winapinls.obj
 0002:00003f60       ??_C@_1M@BNBLJCGH@?$AAe?$AAn?$AA?9?$AAI?$AAE@ 0000000140078f60     libcpmt:winapinls.obj
 0002:00003f70       ??_C@_1M@GEPAFMDL@?$AAe?$AAs?$AA?9?$AAP?$AAA@ 0000000140078f70     libcpmt:winapinls.obj
 0002:00003f80       ??_C@_1M@OJONDMDL@?$AAf?$AAr?$AA?9?$AAM?$AAC@ 0000000140078f80     libcpmt:winapinls.obj
 0002:00003f90       ??_C@_1BG@OBCNFJB@?$AAs?$AAr?$AA?9?$AAB?$AAA?$AA?9?$AAL?$AAa?$AAt?$AAn@ 0000000140078f90     libcpmt:winapinls.obj
 0002:00003fa8       ??_C@_1O@KEMEEGPO@?$AAs?$AAm?$AAa?$AA?9?$AAN?$AAO@ 0000000140078fa8     libcpmt:winapinls.obj
 0002:00003fb8       ??_C@_1M@ELMGFODK@?$AAa?$AAr?$AA?9?$AAT?$AAN@ 0000000140078fb8     libcpmt:winapinls.obj
 0002:00003fc8       ??_C@_1M@BHDLHFAF@?$AAe?$AAn?$AA?9?$AAZ?$AAA@ 0000000140078fc8     libcpmt:winapinls.obj
 0002:00003fd8       ??_C@_1M@BMGIGLIF@?$AAe?$AAs?$AA?9?$AAD?$AAO@ 0000000140078fd8     libcpmt:winapinls.obj
 0002:00003fe8       ??_C@_1BG@CMBHIPBE@?$AAs?$AAr?$AA?9?$AAB?$AAA?$AA?9?$AAC?$AAy?$AAr?$AAl@ 0000000140078fe8     libcpmt:winapinls.obj
 0002:00004000       ??_C@_1O@HEDBLHNP@?$AAs?$AAm?$AAa?$AA?9?$AAS?$AAE@ 0000000140079000     libcpmt:winapinls.obj
 0002:00004010       ??_C@_1M@DAGCADIM@?$AAa?$AAr?$AA?9?$AAO?$AAM@ 0000000140079010     libcpmt:winapinls.obj
 0002:00004020       ??_C@_1M@FODLMICG@?$AAe?$AAn?$AA?9?$AAJ?$AAM@ 0000000140079020     libcpmt:winapinls.obj
 0002:00004030       ??_C@_1M@DNMLCIHB@?$AAe?$AAs?$AA?9?$AAV?$AAE@ 0000000140079030     libcpmt:winapinls.obj
 0002:00004040       ??_C@_1O@EOKHMKJK@?$AAs?$AAm?$AAs?$AA?9?$AAF?$AAI@ 0000000140079040     libcpmt:winapinls.obj
 0002:00004050       ??_C@_1M@CAFJMKOF@?$AAa?$AAr?$AA?9?$AAY?$AAE@ 0000000140079050     libcpmt:winapinls.obj
 0002:00004060       ??_C@_1M@CBFHIJLI@?$AAe?$AAn?$AA?9?$AAC?$AAB@ 0000000140079060     libcpmt:winapinls.obj
 0002:00004070       ??_C@_1M@BGNFLDN@?$AAe?$AAs?$AA?9?$AAC?$AAO@ 0000000140079070     libcpmt:winapinls.obj
 0002:00004080       ??_C@_1O@JMPHMAMC@?$AAs?$AAm?$AAn?$AA?9?$AAF?$AAI@ 0000000140079080     libcpmt:winapinls.obj
 0002:00004090       ??_C@_1M@JLANABKE@?$AAa?$AAr?$AA?9?$AAS?$AAY@ 0000000140079090     libcpmt:winapinls.obj
 0002:000040a0       ??_C@_1M@HPKGCFGN@?$AAe?$AAn?$AA?9?$AAB?$AAZ@ 00000001400790a0     libcpmt:winapinls.obj
 0002:000040b0       ??_C@_1M@OLJCMLGM@?$AAe?$AAs?$AA?9?$AAP?$AAE@ 00000001400790b0     libcpmt:winapinls.obj
 0002:000040c0       ??_C@_1M@MKKGFKLE@?$AAa?$AAr?$AA?9?$AAJ?$AAO@ 00000001400790c0     libcpmt:winapinls.obj
 0002:000040d0       ??_C@_1M@EKPGLDNI@?$AAe?$AAn?$AA?9?$AAT?$AAT@ 00000001400790d0     libcpmt:winapinls.obj
 0002:000040e0       ??_C@_1M@OONGHFHE@?$AAe?$AAs?$AA?9?$AAA?$AAR@ 00000001400790e0     libcpmt:winapinls.obj
 0002:000040f0       ??_C@_1M@OOJFGBHE@?$AAa?$AAr?$AA?9?$AAL?$AAB@ 00000001400790f0     libcpmt:winapinls.obj
 0002:00004100       ??_C@_1M@GCEJHNEG@?$AAe?$AAn?$AA?9?$AAZ?$AAW@ 0000000140079100     libcpmt:winapinls.obj
 0002:00004110       ??_C@_1M@JNOCAHJI@?$AAe?$AAs?$AA?9?$AAE?$AAC@ 0000000140079110     libcpmt:winapinls.obj
 0002:00004120       ??_C@_1M@JEFHPGGB@?$AAa?$AAr?$AA?9?$AAK?$AAW@ 0000000140079120     libcpmt:winapinls.obj
